GAS LISTING /tmp/ccJWEVCX.s 			page 1


   1              		.file	"_Buffer.cpp"
   2              		.option pic
   3              		.option norelax
   4              		.text
   5              	.Ltext0:
   6              		.align	2
   7              		.globl	_ZN7_BuffernwEm
   9              	_ZN7_BuffernwEm:
  10              	.LFB17:
  11              		.file 1 "src/_Buffer.cpp"
   1:src/_Buffer.cpp **** //
   2:src/_Buffer.cpp **** // Created by os on 5/27/23.
   3:src/_Buffer.cpp **** //
   4:src/_Buffer.cpp **** 
   5:src/_Buffer.cpp **** #include "../h/_Buffer.hpp"
   6:src/_Buffer.cpp **** 
   7:src/_Buffer.cpp **** 
   8:src/_Buffer.cpp **** void *_Buffer::operator new(size_t size) {
  12              		.loc 1 8 42
  13              		.cfi_startproc
  14              	.LVL0:
  15 0000 130101FF 		addi	sp,sp,-16
  16              		.cfi_def_cfa_offset 16
  17 0004 23341100 		sd	ra,8(sp)
  18 0008 23308100 		sd	s0,0(sp)
  19              		.cfi_offset 1, -8
  20              		.cfi_offset 8, -16
  21 000c 13040101 		addi	s0,sp,16
  22              		.cfi_def_cfa 8, 0
   9:src/_Buffer.cpp **** 
  10:src/_Buffer.cpp **** 
  11:src/_Buffer.cpp ****     size_t block = (size + MEM_BLOCK_SIZE-1)/MEM_BLOCK_SIZE;
  23              		.loc 1 11 5
  24              		.loc 1 11 42 is_stmt 0
  25 0010 1305F503 		addi	a0,a0,63
  26              	.LVL1:
  12:src/_Buffer.cpp ****     void* pointer = MemoryAllocator::mem_alloc(block);
  27              		.loc 1 12 5 is_stmt 1
  28              		.loc 1 12 47 is_stmt 0
  29 0014 13556500 		srli	a0,a0,6
  30              	.LVL2:
  31 0018 97000000 		call	_ZN15MemoryAllocator9mem_allocEm@plt
  31      E7800000 
  32              	.LVL3:
  13:src/_Buffer.cpp ****     return pointer;
  33              		.loc 1 13 5 is_stmt 1
  14:src/_Buffer.cpp **** }
  34              		.loc 1 14 1 is_stmt 0
  35 0020 83308100 		ld	ra,8(sp)
  36              		.cfi_restore 1
  37 0024 03340100 		ld	s0,0(sp)
  38              		.cfi_restore 8
  39              		.cfi_def_cfa 2, 16
  40 0028 13010101 		addi	sp,sp,16
  41              		.cfi_def_cfa_offset 0
  42 002c 67800000 		jr	ra
  43              		.cfi_endproc
GAS LISTING /tmp/ccJWEVCX.s 			page 2


  44              	.LFE17:
  46              		.align	2
  47              		.globl	_ZN7_BufferD2Ev
  49              	_ZN7_BufferD2Ev:
  50              	.LFB19:
  15:src/_Buffer.cpp **** 
  16:src/_Buffer.cpp **** 
  17:src/_Buffer.cpp **** _Buffer::~_Buffer()
  51              		.loc 1 17 1 is_stmt 1
  52              		.cfi_startproc
  53              		.cfi_personality 0x9b,DW.ref.__gxx_personality_v0
  54              		.cfi_lsda 0x1b,.LLSDA19
  55              	.LVL4:
  56 0030 130101FE 		addi	sp,sp,-32
  57              		.cfi_def_cfa_offset 32
  58 0034 233C1100 		sd	ra,24(sp)
  59 0038 23388100 		sd	s0,16(sp)
  60 003c 23349100 		sd	s1,8(sp)
  61 0040 23302101 		sd	s2,0(sp)
  62              		.cfi_offset 1, -8
  63              		.cfi_offset 8, -16
  64              		.cfi_offset 9, -24
  65              		.cfi_offset 18, -32
  66 0044 13040102 		addi	s0,sp,32
  67              		.cfi_def_cfa 8, 0
  68 0048 93040500 		mv	s1,a0
  69              	.LBB2:
  18:src/_Buffer.cpp **** {
  19:src/_Buffer.cpp ****     delete mutex;
  70              		.loc 1 19 5
  71              		.loc 1 19 12 is_stmt 0
  72 004c 03390511 		ld	s2,272(a0)
  73              		.loc 1 19 17
  74 0050 630E0900 		beqz	s2,.L4
  75              		.loc 1 19 12 discriminator 1
  76 0054 13050900 		mv	a0,s2
  77              	.LVL5:
  78 0058 97000000 		call	_ZN4_semD1Ev@plt
  78      E7800000 
  79              	.LVL6:
  80 0060 13050900 		mv	a0,s2
  81 0064 97000000 		call	_ZN4_semdlEPv@plt
  81      E7800000 
  82              	.LVL7:
  83              	.L4:
  20:src/_Buffer.cpp ****     delete space_available;
  84              		.loc 1 20 5 is_stmt 1
  85              		.loc 1 20 12 is_stmt 0
  86 006c 03B98411 		ld	s2,280(s1)
  87              		.loc 1 20 27
  88 0070 630E0900 		beqz	s2,.L5
  89              		.loc 1 20 12 discriminator 1
  90 0074 13050900 		mv	a0,s2
  91 0078 97000000 		call	_ZN4_semD1Ev@plt
  91      E7800000 
  92              	.LVL8:
  93 0080 13050900 		mv	a0,s2
GAS LISTING /tmp/ccJWEVCX.s 			page 3


  94 0084 97000000 		call	_ZN4_semdlEPv@plt
  94      E7800000 
  95              	.LVL9:
  96              	.L5:
  21:src/_Buffer.cpp ****     delete item_available;
  97              		.loc 1 21 5 is_stmt 1
  98              		.loc 1 21 12 is_stmt 0
  99 008c 83B40412 		ld	s1,288(s1)
 100              	.LVL10:
 101              		.loc 1 21 26
 102 0090 638E0400 		beqz	s1,.L3
 103              		.loc 1 21 12 discriminator 1
 104 0094 13850400 		mv	a0,s1
 105 0098 97000000 		call	_ZN4_semD1Ev@plt
 105      E7800000 
 106              	.LVL11:
 107 00a0 13850400 		mv	a0,s1
 108 00a4 97000000 		call	_ZN4_semdlEPv@plt
 108      E7800000 
 109              	.LVL12:
 110              	.L3:
 111              	.LBE2:
  22:src/_Buffer.cpp **** }
 112              		.loc 1 22 1
 113 00ac 83308101 		ld	ra,24(sp)
 114              		.cfi_restore 1
 115 00b0 03340101 		ld	s0,16(sp)
 116              		.cfi_restore 8
 117              		.cfi_def_cfa 2, 32
 118 00b4 83348100 		ld	s1,8(sp)
 119              		.cfi_restore 9
 120 00b8 03390100 		ld	s2,0(sp)
 121              		.cfi_restore 18
 122 00bc 13010102 		addi	sp,sp,32
 123              		.cfi_def_cfa_offset 0
 124 00c0 67800000 		jr	ra
 125              		.cfi_endproc
 126              	.LFE19:
 127              		.globl	__gxx_personality_v0
 128              		.section	.gcc_except_table,"a",@progbits
 129              	.LLSDA19:
 130 0000 FF       		.byte	0xff
 131 0001 FF       		.byte	0xff
 132 0002 03       		.byte	0x3
 133 0003 00       		.byte	0
 134              		.text
 136              		.globl	_ZN7_BufferD1Ev
 137              		.set	_ZN7_BufferD1Ev,_ZN7_BufferD2Ev
 138              		.align	2
 139              		.globl	_ZN7_BufferdlEPv
 141              	_ZN7_BufferdlEPv:
 142              	.LFB21:
  23:src/_Buffer.cpp **** 
  24:src/_Buffer.cpp **** void _Buffer::operator delete(void *adress) {
 143              		.loc 1 24 45 is_stmt 1
 144              		.cfi_startproc
 145              	.LVL13:
GAS LISTING /tmp/ccJWEVCX.s 			page 4


 146 00c4 130101FF 		addi	sp,sp,-16
 147              		.cfi_def_cfa_offset 16
 148 00c8 23341100 		sd	ra,8(sp)
 149 00cc 23308100 		sd	s0,0(sp)
 150              		.cfi_offset 1, -8
 151              		.cfi_offset 8, -16
 152 00d0 13040101 		addi	s0,sp,16
 153              		.cfi_def_cfa 8, 0
  25:src/_Buffer.cpp ****     MemoryAllocator::mem_free(adress);
 154              		.loc 1 25 5
 155              		.loc 1 25 30 is_stmt 0
 156 00d4 97000000 		call	_ZN15MemoryAllocator8mem_freeEPv@plt
 156      E7800000 
 157              	.LVL14:
  26:src/_Buffer.cpp **** }
 158              		.loc 1 26 1
 159 00dc 83308100 		ld	ra,8(sp)
 160              		.cfi_restore 1
 161 00e0 03340100 		ld	s0,0(sp)
 162              		.cfi_restore 8
 163              		.cfi_def_cfa 2, 16
 164 00e4 13010101 		addi	sp,sp,16
 165              		.cfi_def_cfa_offset 0
 166 00e8 67800000 		jr	ra
 167              		.cfi_endproc
 168              	.LFE21:
 170              		.align	2
 171              		.globl	_ZN7_BufferC2Ev
 173              	_ZN7_BufferC2Ev:
 174              	.LFB23:
  27:src/_Buffer.cpp **** 
  28:src/_Buffer.cpp **** _Buffer::_Buffer():head(0),tail(0),size(0) {
 175              		.loc 1 28 1 is_stmt 1
 176              		.cfi_startproc
 177              	.LVL15:
 178 00ec 130101FE 		addi	sp,sp,-32
 179              		.cfi_def_cfa_offset 32
 180 00f0 233C1100 		sd	ra,24(sp)
 181 00f4 23388100 		sd	s0,16(sp)
 182 00f8 23349100 		sd	s1,8(sp)
 183              		.cfi_offset 1, -8
 184              		.cfi_offset 8, -16
 185              		.cfi_offset 9, -24
 186 00fc 13040102 		addi	s0,sp,32
 187              		.cfi_def_cfa 8, 0
 188 0100 93040500 		mv	s1,a0
 189              	.LBB3:
 190              		.loc 1 28 42 is_stmt 0
 191 0104 23200500 		sw	zero,0(a0)
 192 0108 23220500 		sw	zero,4(a0)
 193 010c 23240500 		sw	zero,8(a0)
  29:src/_Buffer.cpp ****     mutex = _sem::createSemaphore(1);
 194              		.loc 1 29 5 is_stmt 1
 195              		.loc 1 29 34 is_stmt 0
 196 0110 13051000 		li	a0,1
 197              	.LVL16:
 198 0114 97000000 		call	_ZN4_sem15createSemaphoreEj@plt
GAS LISTING /tmp/ccJWEVCX.s 			page 5


 198      E7800000 
 199              	.LVL17:
 200              		.loc 1 29 11
 201 011c 23B8A410 		sd	a0,272(s1)
  30:src/_Buffer.cpp ****     space_available = _sem::createSemaphore(256);
 202              		.loc 1 30 5 is_stmt 1
 203              		.loc 1 30 44 is_stmt 0
 204 0120 13050010 		li	a0,256
 205 0124 97000000 		call	_ZN4_sem15createSemaphoreEj@plt
 205      E7800000 
 206              	.LVL18:
 207              		.loc 1 30 21
 208 012c 23BCA410 		sd	a0,280(s1)
  31:src/_Buffer.cpp ****     item_available = _sem::createSemaphore(0);
 209              		.loc 1 31 5 is_stmt 1
 210              		.loc 1 31 43 is_stmt 0
 211 0130 13050000 		li	a0,0
 212 0134 97000000 		call	_ZN4_sem15createSemaphoreEj@plt
 212      E7800000 
 213              	.LVL19:
 214              		.loc 1 31 20
 215 013c 23B0A412 		sd	a0,288(s1)
 216              	.LBE3:
  32:src/_Buffer.cpp **** }
 217              		.loc 1 32 1
 218 0140 83308101 		ld	ra,24(sp)
 219              		.cfi_restore 1
 220 0144 03340101 		ld	s0,16(sp)
 221              		.cfi_restore 8
 222              		.cfi_def_cfa 2, 32
 223 0148 83348100 		ld	s1,8(sp)
 224              		.cfi_restore 9
 225              	.LVL20:
 226 014c 13010102 		addi	sp,sp,32
 227              		.cfi_def_cfa_offset 0
 228 0150 67800000 		jr	ra
 229              		.cfi_endproc
 230              	.LFE23:
 232              		.globl	_ZN7_BufferC1Ev
 233              		.set	_ZN7_BufferC1Ev,_ZN7_BufferC2Ev
 234              		.align	2
 235              		.globl	_ZN7_Buffer3putEc
 237              	_ZN7_Buffer3putEc:
 238              	.LFB25:
  33:src/_Buffer.cpp **** 
  34:src/_Buffer.cpp **** 
  35:src/_Buffer.cpp **** 
  36:src/_Buffer.cpp **** void _Buffer::put(char c) {
 239              		.loc 1 36 27 is_stmt 1
 240              		.cfi_startproc
 241              	.LVL21:
 242 0154 130101FE 		addi	sp,sp,-32
 243              		.cfi_def_cfa_offset 32
 244 0158 233C1100 		sd	ra,24(sp)
 245 015c 23388100 		sd	s0,16(sp)
 246 0160 23349100 		sd	s1,8(sp)
 247 0164 23302101 		sd	s2,0(sp)
GAS LISTING /tmp/ccJWEVCX.s 			page 6


 248              		.cfi_offset 1, -8
 249              		.cfi_offset 8, -16
 250              		.cfi_offset 9, -24
 251              		.cfi_offset 18, -32
 252 0168 13040102 		addi	s0,sp,32
 253              		.cfi_def_cfa 8, 0
 254 016c 93040500 		mv	s1,a0
 255 0170 13890500 		mv	s2,a1
  37:src/_Buffer.cpp ****     space_available->wait();
 256              		.loc 1 37 5
 257              		.loc 1 37 26 is_stmt 0
 258 0174 03358511 		ld	a0,280(a0)
 259              	.LVL22:
 260 0178 97000000 		call	_ZN4_sem4waitEv@plt
 260      E7800000 
 261              	.LVL23:
  38:src/_Buffer.cpp ****     mutex->wait();
 262              		.loc 1 38 5 is_stmt 1
 263              		.loc 1 38 16 is_stmt 0
 264 0180 03B50411 		ld	a0,272(s1)
 265 0184 97000000 		call	_ZN4_sem4waitEv@plt
 265      E7800000 
 266              	.LVL24:
  39:src/_Buffer.cpp ****     niz[tail] = c;
 267              		.loc 1 39 5 is_stmt 1
 268              		.loc 1 39 9 is_stmt 0
 269 018c 83A74400 		lw	a5,4(s1)
 270              		.loc 1 39 15
 271 0190 3387F400 		add	a4,s1,a5
 272 0194 23062701 		sb	s2,12(a4)
  40:src/_Buffer.cpp ****     tail = (tail + 1) % 256;
 273              		.loc 1 40 5 is_stmt 1
 274              		.loc 1 40 18 is_stmt 0
 275 0198 9B871700 		addiw	a5,a5,1
 276              		.loc 1 40 23
 277 019c 1BD7F741 		sraiw	a4,a5,31
 278 01a0 1B578701 		srliw	a4,a4,24
 279 01a4 BB87E700 		addw	a5,a5,a4
 280 01a8 93F7F70F 		andi	a5,a5,255
 281 01ac BB87E740 		subw	a5,a5,a4
 282              		.loc 1 40 10
 283 01b0 23A2F400 		sw	a5,4(s1)
  41:src/_Buffer.cpp ****     size++;
 284              		.loc 1 41 5 is_stmt 1
 285 01b4 83A78400 		lw	a5,8(s1)
 286              		.loc 1 41 9 is_stmt 0
 287 01b8 9B871700 		addiw	a5,a5,1
 288 01bc 23A4F400 		sw	a5,8(s1)
  42:src/_Buffer.cpp ****     mutex->signal();
 289              		.loc 1 42 5 is_stmt 1
 290              		.loc 1 42 18 is_stmt 0
 291 01c0 03B50411 		ld	a0,272(s1)
 292 01c4 97000000 		call	_ZN4_sem6signalEv@plt
 292      E7800000 
 293              	.LVL25:
  43:src/_Buffer.cpp ****     item_available->signal();
 294              		.loc 1 43 5 is_stmt 1
GAS LISTING /tmp/ccJWEVCX.s 			page 7


 295              		.loc 1 43 27 is_stmt 0
 296 01cc 03B50412 		ld	a0,288(s1)
 297 01d0 97000000 		call	_ZN4_sem6signalEv@plt
 297      E7800000 
 298              	.LVL26:
  44:src/_Buffer.cpp **** }
 299              		.loc 1 44 1
 300 01d8 83308101 		ld	ra,24(sp)
 301              		.cfi_restore 1
 302 01dc 03340101 		ld	s0,16(sp)
 303              		.cfi_restore 8
 304              		.cfi_def_cfa 2, 32
 305 01e0 83348100 		ld	s1,8(sp)
 306              		.cfi_restore 9
 307              	.LVL27:
 308 01e4 03390100 		ld	s2,0(sp)
 309              		.cfi_restore 18
 310 01e8 13010102 		addi	sp,sp,32
 311              		.cfi_def_cfa_offset 0
 312 01ec 67800000 		jr	ra
 313              		.cfi_endproc
 314              	.LFE25:
 316              		.align	2
 317              		.globl	_ZN7_Buffer3getEv
 319              	_ZN7_Buffer3getEv:
 320              	.LFB26:
  45:src/_Buffer.cpp **** 
  46:src/_Buffer.cpp **** char _Buffer::get()
  47:src/_Buffer.cpp **** {
 321              		.loc 1 47 1 is_stmt 1
 322              		.cfi_startproc
 323              	.LVL28:
 324 01f0 130101FE 		addi	sp,sp,-32
 325              		.cfi_def_cfa_offset 32
 326 01f4 233C1100 		sd	ra,24(sp)
 327 01f8 23388100 		sd	s0,16(sp)
 328 01fc 23349100 		sd	s1,8(sp)
 329 0200 23302101 		sd	s2,0(sp)
 330              		.cfi_offset 1, -8
 331              		.cfi_offset 8, -16
 332              		.cfi_offset 9, -24
 333              		.cfi_offset 18, -32
 334 0204 13040102 		addi	s0,sp,32
 335              		.cfi_def_cfa 8, 0
 336 0208 93040500 		mv	s1,a0
  48:src/_Buffer.cpp ****         item_available->wait();
 337              		.loc 1 48 9
 338              		.loc 1 48 29 is_stmt 0
 339 020c 03350512 		ld	a0,288(a0)
 340              	.LVL29:
 341 0210 97000000 		call	_ZN4_sem4waitEv@plt
 341      E7800000 
 342              	.LVL30:
  49:src/_Buffer.cpp ****         mutex->wait();
 343              		.loc 1 49 9 is_stmt 1
 344              		.loc 1 49 20 is_stmt 0
 345 0218 03B50411 		ld	a0,272(s1)
GAS LISTING /tmp/ccJWEVCX.s 			page 8


 346 021c 97000000 		call	_ZN4_sem4waitEv@plt
 346      E7800000 
 347              	.LVL31:
  50:src/_Buffer.cpp ****         char c = niz[head];
 348              		.loc 1 50 9 is_stmt 1
 349              		.loc 1 50 22 is_stmt 0
 350 0224 83A70400 		lw	a5,0(s1)
 351              		.loc 1 50 14
 352 0228 3387F400 		add	a4,s1,a5
 353 022c 0349C700 		lbu	s2,12(a4)
 354              	.LVL32:
  51:src/_Buffer.cpp ****         head = (head + 1) % 256;
 355              		.loc 1 51 9 is_stmt 1
 356              		.loc 1 51 22 is_stmt 0
 357 0230 9B871700 		addiw	a5,a5,1
 358              		.loc 1 51 27
 359 0234 1BD7F741 		sraiw	a4,a5,31
 360 0238 1B578701 		srliw	a4,a4,24
 361 023c BB87E700 		addw	a5,a5,a4
 362 0240 93F7F70F 		andi	a5,a5,255
 363 0244 BB87E740 		subw	a5,a5,a4
 364              		.loc 1 51 14
 365 0248 23A0F400 		sw	a5,0(s1)
  52:src/_Buffer.cpp ****         size--;
 366              		.loc 1 52 9 is_stmt 1
 367 024c 83A78400 		lw	a5,8(s1)
 368              		.loc 1 52 13 is_stmt 0
 369 0250 9B87F7FF 		addiw	a5,a5,-1
 370 0254 23A4F400 		sw	a5,8(s1)
  53:src/_Buffer.cpp ****         mutex->signal();
 371              		.loc 1 53 9 is_stmt 1
 372              		.loc 1 53 22 is_stmt 0
 373 0258 03B50411 		ld	a0,272(s1)
 374 025c 97000000 		call	_ZN4_sem6signalEv@plt
 374      E7800000 
 375              	.LVL33:
  54:src/_Buffer.cpp ****         space_available->signal();
 376              		.loc 1 54 9 is_stmt 1
 377              		.loc 1 54 32 is_stmt 0
 378 0264 03B58411 		ld	a0,280(s1)
 379 0268 97000000 		call	_ZN4_sem6signalEv@plt
 379      E7800000 
 380              	.LVL34:
  55:src/_Buffer.cpp ****         return c;
 381              		.loc 1 55 9 is_stmt 1
  56:src/_Buffer.cpp **** }
 382              		.loc 1 56 1 is_stmt 0
 383 0270 13050900 		mv	a0,s2
 384 0274 83308101 		ld	ra,24(sp)
 385              		.cfi_restore 1
 386 0278 03340101 		ld	s0,16(sp)
 387              		.cfi_restore 8
 388              		.cfi_def_cfa 2, 32
 389 027c 83348100 		ld	s1,8(sp)
 390              		.cfi_restore 9
 391              	.LVL35:
 392 0280 03390100 		ld	s2,0(sp)
GAS LISTING /tmp/ccJWEVCX.s 			page 9


 393              		.cfi_restore 18
 394              	.LVL36:
 395 0284 13010102 		addi	sp,sp,32
 396              		.cfi_def_cfa_offset 0
 397 0288 67800000 		jr	ra
 398              		.cfi_endproc
 399              	.LFE26:
 401              		.align	2
 402              		.globl	_ZN7_Buffer5countEv
 404              	_ZN7_Buffer5countEv:
 405              	.LFB27:
  57:src/_Buffer.cpp **** 
  58:src/_Buffer.cpp **** int _Buffer::count() {
 406              		.loc 1 58 22 is_stmt 1
 407              		.cfi_startproc
 408              	.LVL37:
 409 028c 130101FF 		addi	sp,sp,-16
 410              		.cfi_def_cfa_offset 16
 411 0290 23348100 		sd	s0,8(sp)
 412              		.cfi_offset 8, -8
 413 0294 13040101 		addi	s0,sp,16
 414              		.cfi_def_cfa 8, 0
  59:src/_Buffer.cpp ****     return size;
 415              		.loc 1 59 5
  60:src/_Buffer.cpp **** }
 416              		.loc 1 60 1 is_stmt 0
 417 0298 03258500 		lw	a0,8(a0)
 418              	.LVL38:
 419 029c 03348100 		ld	s0,8(sp)
 420              		.cfi_restore 8
 421              		.cfi_def_cfa 2, 16
 422 02a0 13010101 		addi	sp,sp,16
 423              		.cfi_def_cfa_offset 0
 424 02a4 67800000 		jr	ra
 425              		.cfi_endproc
 426              	.LFE27:
 428              	.Letext0:
 429              		.file 2 "src/../h/../lib/hw.h"
 430              		.file 3 "src/../h/../h/MemoryAllocator.hpp"
 431              		.file 4 "src/../h/../h/../h/syscall_c.h"
 432              		.file 5 "src/../h/../h/TCB.hpp"
 433              		.file 6 "src/../h/../h/_sem.hpp"
 434              		.file 7 "src/../h/_Buffer.hpp"
 3437              		.align	3
 3440              	DW.ref.__gxx_personality_v0:
 3441 0000 00000000 		.dword	__gxx_personality_v0
 3441      00000000 
 3442              		.ident	"GCC: (Ubuntu 9.4.0-1ubuntu1~20.04) 9.4.0"
 3443              		.section	.note.GNU-stack,"",@progbits
GAS LISTING /tmp/ccJWEVCX.s 			page 10

