GAS LISTING /tmp/cctiRQj0.s 			page 1


   1              		.file	"_sem.cpp"
   2              		.option pic
   3              		.option norelax
   4              		.text
   5              	.Ltext0:
   6              		.align	2
   7              		.globl	_ZN4_semdlEPv
   9              	_ZN4_semdlEPv:
  10              	.LFB17:
  11              		.file 1 "src/_sem.cpp"
   1:src/_sem.cpp  **** //
   2:src/_sem.cpp  **** // Created by os on 5/8/23.
   3:src/_sem.cpp  **** //
   4:src/_sem.cpp  **** 
   5:src/_sem.cpp  **** #include "../h/_sem.hpp"
   6:src/_sem.cpp  **** 
   7:src/_sem.cpp  **** 
   8:src/_sem.cpp  **** 
   9:src/_sem.cpp  **** 
  10:src/_sem.cpp  **** void _sem::operator delete(void *adress) {
  12              		.loc 1 10 42
  13              		.cfi_startproc
  14              	.LVL0:
  15 0000 130101FF 		addi	sp,sp,-16
  16              		.cfi_def_cfa_offset 16
  17 0004 23341100 		sd	ra,8(sp)
  18 0008 23308100 		sd	s0,0(sp)
  19              		.cfi_offset 1, -8
  20              		.cfi_offset 8, -16
  21 000c 13040101 		addi	s0,sp,16
  22              		.cfi_def_cfa 8, 0
  11:src/_sem.cpp  ****     MemoryAllocator::mem_free(adress);
  23              		.loc 1 11 5
  24              		.loc 1 11 30 is_stmt 0
  25 0010 97000000 		call	_ZN15MemoryAllocator8mem_freeEPv@plt
  25      E7800000 
  26              	.LVL1:
  12:src/_sem.cpp  **** }
  27              		.loc 1 12 1
  28 0018 83308100 		ld	ra,8(sp)
  29              		.cfi_restore 1
  30 001c 03340100 		ld	s0,0(sp)
  31              		.cfi_restore 8
  32              		.cfi_def_cfa 2, 16
  33 0020 13010101 		addi	sp,sp,16
  34              		.cfi_def_cfa_offset 0
  35 0024 67800000 		jr	ra
  36              		.cfi_endproc
  37              	.LFE17:
  39              		.align	2
  40              		.globl	_ZN4_semnwEm
  42              	_ZN4_semnwEm:
  43              	.LFB18:
  13:src/_sem.cpp  **** 
  14:src/_sem.cpp  **** 
  15:src/_sem.cpp  **** 
  16:src/_sem.cpp  **** void *_sem::operator new(size_t size) {
GAS LISTING /tmp/cctiRQj0.s 			page 2


  44              		.loc 1 16 39 is_stmt 1
  45              		.cfi_startproc
  46              	.LVL2:
  47 0028 130101FF 		addi	sp,sp,-16
  48              		.cfi_def_cfa_offset 16
  49 002c 23341100 		sd	ra,8(sp)
  50 0030 23308100 		sd	s0,0(sp)
  51              		.cfi_offset 1, -8
  52              		.cfi_offset 8, -16
  53 0034 13040101 		addi	s0,sp,16
  54              		.cfi_def_cfa 8, 0
  17:src/_sem.cpp  **** 
  18:src/_sem.cpp  **** 
  19:src/_sem.cpp  **** 
  20:src/_sem.cpp  ****    size_t block = (size + MEM_BLOCK_SIZE-1)/MEM_BLOCK_SIZE;
  55              		.loc 1 20 4
  56              		.loc 1 20 41 is_stmt 0
  57 0038 1305F503 		addi	a0,a0,63
  58              	.LVL3:
  21:src/_sem.cpp  ****     void* pointer = MemoryAllocator::mem_alloc(block);
  59              		.loc 1 21 5 is_stmt 1
  60              		.loc 1 21 47 is_stmt 0
  61 003c 13556500 		srli	a0,a0,6
  62              	.LVL4:
  63 0040 97000000 		call	_ZN15MemoryAllocator9mem_allocEm@plt
  63      E7800000 
  64              	.LVL5:
  22:src/_sem.cpp  ****     return pointer;
  65              		.loc 1 22 5 is_stmt 1
  23:src/_sem.cpp  **** }
  66              		.loc 1 23 1 is_stmt 0
  67 0048 83308100 		ld	ra,8(sp)
  68              		.cfi_restore 1
  69 004c 03340100 		ld	s0,0(sp)
  70              		.cfi_restore 8
  71              		.cfi_def_cfa 2, 16
  72 0050 13010101 		addi	sp,sp,16
  73              		.cfi_def_cfa_offset 0
  74 0054 67800000 		jr	ra
  75              		.cfi_endproc
  76              	.LFE18:
  78              		.align	2
  79              		.globl	_ZN4_sem10add_threadEP3TCB
  81              	_ZN4_sem10add_threadEP3TCB:
  82              	.LFB20:
  24:src/_sem.cpp  **** 
  25:src/_sem.cpp  **** 
  26:src/_sem.cpp  **** 
  27:src/_sem.cpp  **** 
  28:src/_sem.cpp  **** 
  29:src/_sem.cpp  **** 
  30:src/_sem.cpp  **** int _sem::wait() {
  31:src/_sem.cpp  ****     if (this->finished){return -1;}
  32:src/_sem.cpp  ****     else
  33:src/_sem.cpp  ****     {
  34:src/_sem.cpp  ****         if (--val<0)
  35:src/_sem.cpp  ****         {
GAS LISTING /tmp/cctiRQj0.s 			page 3


  36:src/_sem.cpp  ****             TCB::running->blocked= true;
  37:src/_sem.cpp  ****             add_thread(TCB::running);
  38:src/_sem.cpp  ****             TCB::dispatch();
  39:src/_sem.cpp  ****         }
  40:src/_sem.cpp  ****     }
  41:src/_sem.cpp  ****     if (this->finished){return -1;}
  42:src/_sem.cpp  ****     else return 0;
  43:src/_sem.cpp  **** }
  44:src/_sem.cpp  **** 
  45:src/_sem.cpp  **** void _sem::add_thread(TCB *nit) {
  83              		.loc 1 45 33 is_stmt 1
  84              		.cfi_startproc
  85              	.LVL6:
  86 0058 130101FF 		addi	sp,sp,-16
  87              		.cfi_def_cfa_offset 16
  88 005c 23348100 		sd	s0,8(sp)
  89              		.cfi_offset 8, -8
  90 0060 13040101 		addi	s0,sp,16
  91              		.cfi_def_cfa 8, 0
  46:src/_sem.cpp  **** 
  47:src/_sem.cpp  ****     if (waiting_head== nullptr)
  92              		.loc 1 47 5
  93              		.loc 1 47 9 is_stmt 0
  94 0064 83378500 		ld	a5,8(a0)
  95              		.loc 1 47 5
  96 0068 63800702 		beqz	a5,.L9
  48:src/_sem.cpp  ****     {
  49:src/_sem.cpp  ****         waiting_head=nit;
  50:src/_sem.cpp  ****         tail=nit;
  51:src/_sem.cpp  ****         nit->next= nullptr;
  52:src/_sem.cpp  ****     }
  53:src/_sem.cpp  ****     else
  54:src/_sem.cpp  ****     {
  55:src/_sem.cpp  ****         tail->next=nit;
  97              		.loc 1 55 9 is_stmt 1
  98 006c 83370501 		ld	a5,16(a0)
  99              		.loc 1 55 19 is_stmt 0
 100 0070 23BCB702 		sd	a1,56(a5)
  56:src/_sem.cpp  ****         tail=nit;
 101              		.loc 1 56 9 is_stmt 1
 102              		.loc 1 56 13 is_stmt 0
 103 0074 2338B500 		sd	a1,16(a0)
  57:src/_sem.cpp  ****         nit->next= nullptr;
 104              		.loc 1 57 9 is_stmt 1
 105              		.loc 1 57 18 is_stmt 0
 106 0078 23BC0502 		sd	zero,56(a1)
 107              	.L5:
  58:src/_sem.cpp  **** 
  59:src/_sem.cpp  ****     }
  60:src/_sem.cpp  **** 
  61:src/_sem.cpp  **** }
 108              		.loc 1 61 1
 109 007c 03348100 		ld	s0,8(sp)
 110              		.cfi_remember_state
 111              		.cfi_restore 8
 112              		.cfi_def_cfa 2, 16
 113 0080 13010101 		addi	sp,sp,16
GAS LISTING /tmp/cctiRQj0.s 			page 4


 114              		.cfi_def_cfa_offset 0
 115 0084 67800000 		jr	ra
 116              	.L9:
 117              		.cfi_restore_state
  49:src/_sem.cpp  ****         tail=nit;
 118              		.loc 1 49 9 is_stmt 1
  49:src/_sem.cpp  ****         tail=nit;
 119              		.loc 1 49 21 is_stmt 0
 120 0088 2334B500 		sd	a1,8(a0)
  50:src/_sem.cpp  ****         nit->next= nullptr;
 121              		.loc 1 50 9 is_stmt 1
  50:src/_sem.cpp  ****         nit->next= nullptr;
 122              		.loc 1 50 13 is_stmt 0
 123 008c 2338B500 		sd	a1,16(a0)
  51:src/_sem.cpp  ****     }
 124              		.loc 1 51 9 is_stmt 1
  51:src/_sem.cpp  ****     }
 125              		.loc 1 51 18 is_stmt 0
 126 0090 23BC0502 		sd	zero,56(a1)
 127 0094 6FF09FFE 		j	.L5
 128              		.cfi_endproc
 129              	.LFE20:
 131              		.align	2
 132              		.globl	_ZN4_sem4waitEv
 134              	_ZN4_sem4waitEv:
 135              	.LFB19:
  30:src/_sem.cpp  ****     if (this->finished){return -1;}
 136              		.loc 1 30 18 is_stmt 1
 137              		.cfi_startproc
 138              	.LVL7:
  31:src/_sem.cpp  ****     else
 139              		.loc 1 31 5
  31:src/_sem.cpp  ****     else
 140              		.loc 1 31 15 is_stmt 0
 141 0098 83474500 		lbu	a5,4(a0)
  31:src/_sem.cpp  ****     else
 142              		.loc 1 31 5
 143 009c 63900708 		bnez	a5,.L13
  30:src/_sem.cpp  ****     if (this->finished){return -1;}
 144              		.loc 1 30 18
 145 00a0 130101FE 		addi	sp,sp,-32
 146              		.cfi_def_cfa_offset 32
 147 00a4 233C1100 		sd	ra,24(sp)
 148 00a8 23388100 		sd	s0,16(sp)
 149 00ac 23349100 		sd	s1,8(sp)
 150              		.cfi_offset 1, -8
 151              		.cfi_offset 8, -16
 152              		.cfi_offset 9, -24
 153 00b0 13040102 		addi	s0,sp,32
 154              		.cfi_def_cfa 8, 0
 155 00b4 93040500 		mv	s1,a0
  34:src/_sem.cpp  ****         {
 156              		.loc 1 34 9 is_stmt 1
  34:src/_sem.cpp  ****         {
 157              		.loc 1 34 15 is_stmt 0
 158 00b8 83270500 		lw	a5,0(a0)
  34:src/_sem.cpp  ****         {
GAS LISTING /tmp/cctiRQj0.s 			page 5


 159              		.loc 1 34 13
 160 00bc 9B87F7FF 		addiw	a5,a5,-1
  34:src/_sem.cpp  ****         {
 161              		.loc 1 34 18
 162 00c0 2320F500 		sw	a5,0(a0)
  34:src/_sem.cpp  ****         {
 163              		.loc 1 34 9
 164 00c4 13970702 		slli	a4,a5,32
 165 00c8 63420702 		bltz	a4,.L19
 166              	.LVL8:
 167              	.L12:
  41:src/_sem.cpp  ****     else return 0;
 168              		.loc 1 41 5 is_stmt 1
  41:src/_sem.cpp  ****     else return 0;
 169              		.loc 1 41 15 is_stmt 0
 170 00cc 83C74400 		lbu	a5,4(s1)
  41:src/_sem.cpp  ****     else return 0;
 171              		.loc 1 41 5
 172 00d0 63920704 		bnez	a5,.L20
  42:src/_sem.cpp  **** }
 173              		.loc 1 42 17
 174 00d4 13050000 		li	a0,0
 175              	.L11:
  43:src/_sem.cpp  **** 
 176              		.loc 1 43 1
 177 00d8 83308101 		ld	ra,24(sp)
 178              		.cfi_remember_state
 179              		.cfi_restore 1
 180 00dc 03340101 		ld	s0,16(sp)
 181              		.cfi_restore 8
 182              		.cfi_def_cfa 2, 32
 183 00e0 83348100 		ld	s1,8(sp)
 184              		.cfi_restore 9
 185              	.LVL9:
 186 00e4 13010102 		addi	sp,sp,32
 187              		.cfi_def_cfa_offset 0
 188 00e8 67800000 		jr	ra
 189              	.LVL10:
 190              	.L19:
 191              		.cfi_restore_state
  36:src/_sem.cpp  ****             add_thread(TCB::running);
 192              		.loc 1 36 13 is_stmt 1
  36:src/_sem.cpp  ****             add_thread(TCB::running);
 193              		.loc 1 36 27 is_stmt 0
 194 00ec 97070000 		la	a5,_ZN3TCB7runningE
 194      83B70700 
 195 00f4 83B50700 		ld	a1,0(a5)
  36:src/_sem.cpp  ****             add_thread(TCB::running);
 196              		.loc 1 36 34
 197 00f8 93071000 		li	a5,1
 198 00fc A388F502 		sb	a5,49(a1)
  37:src/_sem.cpp  ****             TCB::dispatch();
 199              		.loc 1 37 13 is_stmt 1
  37:src/_sem.cpp  ****             TCB::dispatch();
 200              		.loc 1 37 23 is_stmt 0
 201 0100 97000000 		call	_ZN4_sem10add_threadEP3TCB
 201      E7800000 
GAS LISTING /tmp/cctiRQj0.s 			page 6


 202              	.LVL11:
  38:src/_sem.cpp  ****         }
 203              		.loc 1 38 13 is_stmt 1
  38:src/_sem.cpp  ****         }
 204              		.loc 1 38 26 is_stmt 0
 205 0108 97000000 		call	_ZN3TCB8dispatchEv@plt
 205      E7800000 
 206              	.LVL12:
 207 0110 6FF0DFFB 		j	.L12
 208              	.L20:
  41:src/_sem.cpp  ****     else return 0;
 209              		.loc 1 41 33
 210 0114 1305F0FF 		li	a0,-1
 211 0118 6FF01FFC 		j	.L11
 212              	.LVL13:
 213              	.L13:
 214              		.cfi_def_cfa_register 2
 215              		.cfi_restore 1
 216              		.cfi_restore 8
 217              		.cfi_restore 9
  31:src/_sem.cpp  ****     else
 218              		.loc 1 31 33
 219 011c 1305F0FF 		li	a0,-1
 220              	.LVL14:
  43:src/_sem.cpp  **** 
 221              		.loc 1 43 1
 222 0120 67800000 		ret
 223              		.cfi_endproc
 224              	.LFE19:
 226              		.align	2
 227              		.globl	_ZN4_sem14release_threadEv
 229              	_ZN4_sem14release_threadEv:
 230              	.LFB21:
  62:src/_sem.cpp  **** 
  63:src/_sem.cpp  **** TCB *_sem::release_thread() {
 231              		.loc 1 63 29 is_stmt 1
 232              		.cfi_startproc
 233              	.LVL15:
 234 0124 130101FF 		addi	sp,sp,-16
 235              		.cfi_def_cfa_offset 16
 236 0128 23348100 		sd	s0,8(sp)
 237              		.cfi_offset 8, -8
 238 012c 13040101 		addi	s0,sp,16
 239              		.cfi_def_cfa 8, 0
 240 0130 93070500 		mv	a5,a0
  64:src/_sem.cpp  ****     TCB* curr = waiting_head;
 241              		.loc 1 64 5
 242              		.loc 1 64 10 is_stmt 0
 243 0134 03358500 		ld	a0,8(a0)
 244              	.LVL16:
  65:src/_sem.cpp  ****     if (curr== nullptr)return nullptr;
 245              		.loc 1 65 5 is_stmt 1
 246 0138 630A0500 		beqz	a0,.L21
  66:src/_sem.cpp  ****     waiting_head = waiting_head->next;
 247              		.loc 1 66 5
 248              		.loc 1 66 34 is_stmt 0
 249 013c 03378503 		ld	a4,56(a0)
GAS LISTING /tmp/cctiRQj0.s 			page 7


 250              		.loc 1 66 18
 251 0140 23B4E700 		sd	a4,8(a5)
  67:src/_sem.cpp  ****     if (waiting_head== nullptr)tail= nullptr;
 252              		.loc 1 67 5 is_stmt 1
 253 0144 630A0700 		beqz	a4,.L25
 254              	.L23:
  68:src/_sem.cpp  ****     curr->next= nullptr;
 255              		.loc 1 68 5
 256              		.loc 1 68 15 is_stmt 0
 257 0148 233C0502 		sd	zero,56(a0)
  69:src/_sem.cpp  ****     return curr;
 258              		.loc 1 69 5 is_stmt 1
 259              	.L21:
  70:src/_sem.cpp  **** }
 260              		.loc 1 70 1 is_stmt 0
 261 014c 03348100 		ld	s0,8(sp)
 262              		.cfi_remember_state
 263              		.cfi_restore 8
 264              		.cfi_def_cfa 2, 16
 265 0150 13010101 		addi	sp,sp,16
 266              		.cfi_def_cfa_offset 0
 267 0154 67800000 		jr	ra
 268              	.L25:
 269              		.cfi_restore_state
  67:src/_sem.cpp  ****     curr->next= nullptr;
 270              		.loc 1 67 32 is_stmt 1 discriminator 1
  67:src/_sem.cpp  ****     curr->next= nullptr;
 271              		.loc 1 67 36 is_stmt 0 discriminator 1
 272 0158 23B80700 		sd	zero,16(a5)
 273 015c 6FF0DFFE 		j	.L23
 274              		.cfi_endproc
 275              	.LFE21:
 277              		.align	2
 278              		.globl	_ZN4_sem6signalEv
 280              	_ZN4_sem6signalEv:
 281              	.LFB22:
  71:src/_sem.cpp  **** 
  72:src/_sem.cpp  **** int _sem::signal() {
 282              		.loc 1 72 20 is_stmt 1
 283              		.cfi_startproc
 284              	.LVL17:
  73:src/_sem.cpp  ****     if (this->finished)return -1;
 285              		.loc 1 73 5
 286              		.loc 1 73 15 is_stmt 0
 287 0160 83474500 		lbu	a5,4(a0)
 288              		.loc 1 73 5
 289 0164 639C0704 		bnez	a5,.L28
  74:src/_sem.cpp  ****     if (++val<=0)
 290              		.loc 1 74 5 is_stmt 1
 291              	.LBB12:
 292              		.loc 1 74 11 is_stmt 0
 293 0168 83270500 		lw	a5,0(a0)
 294              		.loc 1 74 9
 295 016c 9B871700 		addiw	a5,a5,1
 296 0170 1B870700 		sext.w	a4,a5
 297              		.loc 1 74 14
 298 0174 2320F500 		sw	a5,0(a0)
GAS LISTING /tmp/cctiRQj0.s 			page 8


 299              		.loc 1 74 5
 300 0178 6356E000 		blez	a4,.L34
 301              	.LBE12:
  75:src/_sem.cpp  ****     {
  76:src/_sem.cpp  ****         TCB* curr = release_thread();
  77:src/_sem.cpp  ****         curr->setBlocked(false);
  78:src/_sem.cpp  ****         Scheduler::put(curr);
  79:src/_sem.cpp  ****     }
  80:src/_sem.cpp  ****     return 0;
 302              		.loc 1 80 12
 303 017c 13050000 		li	a0,0
 304              	.LVL18:
  81:src/_sem.cpp  **** }
 305              		.loc 1 81 1
 306 0180 67800000 		ret
 307              	.LVL19:
 308              	.L34:
  72:src/_sem.cpp  ****     if (this->finished)return -1;
 309              		.loc 1 72 20
 310 0184 130101FF 		addi	sp,sp,-16
 311              		.cfi_def_cfa_offset 16
 312 0188 23341100 		sd	ra,8(sp)
 313 018c 23308100 		sd	s0,0(sp)
 314              		.cfi_offset 1, -8
 315              		.cfi_offset 8, -16
 316 0190 13040101 		addi	s0,sp,16
 317              		.cfi_def_cfa 8, 0
 318              	.LBB16:
 319              	.LBB13:
  76:src/_sem.cpp  ****         curr->setBlocked(false);
 320              		.loc 1 76 9 is_stmt 1
  76:src/_sem.cpp  ****         curr->setBlocked(false);
 321              		.loc 1 76 35 is_stmt 0
 322 0194 97000000 		call	_ZN4_sem14release_threadEv
 322      E7800000 
 323              	.LVL20:
  77:src/_sem.cpp  ****         Scheduler::put(curr);
 324              		.loc 1 77 9 is_stmt 1
 325              	.LBB14:
 326              	.LBB15:
 327              		.file 2 "src/../h/TCB.hpp"
   1:src/../h/TCB.hpp **** //
   2:src/../h/TCB.hpp **** // Created by os on 4/28/23.
   3:src/../h/TCB.hpp **** //
   4:src/../h/TCB.hpp **** 
   5:src/../h/TCB.hpp **** 
   6:src/../h/TCB.hpp **** #ifndef OS1_VEZBE07_RISCV_CONTEXT_SWITCH_2_INTERRUPT_TCB_HPP
   7:src/../h/TCB.hpp **** #define OS1_VEZBE07_RISCV_CONTEXT_SWITCH_2_INTERRUPT_TCB_HPP
   8:src/../h/TCB.hpp **** 
   9:src/../h/TCB.hpp **** #include "../lib/hw.h"
  10:src/../h/TCB.hpp **** 
  11:src/../h/TCB.hpp **** #include "../h/MemoryAllocator.hpp"
  12:src/../h/TCB.hpp **** #include "../h/syscall_c.h"
  13:src/../h/TCB.hpp **** 
  14:src/../h/TCB.hpp **** 
  15:src/../h/TCB.hpp **** 
  16:src/../h/TCB.hpp **** // Thread Control Block
GAS LISTING /tmp/cctiRQj0.s 			page 9


  17:src/../h/TCB.hpp **** class TCB
  18:src/../h/TCB.hpp **** {
  19:src/../h/TCB.hpp **** public:
  20:src/../h/TCB.hpp **** 
  21:src/../h/TCB.hpp **** 
  22:src/../h/TCB.hpp ****     ~TCB() {
  23:src/../h/TCB.hpp ****         delete[] stack;
  24:src/../h/TCB.hpp ****         }
  25:src/../h/TCB.hpp **** 
  26:src/../h/TCB.hpp ****     bool isFinished() const { return finished; }
  27:src/../h/TCB.hpp **** 
  28:src/../h/TCB.hpp ****     bool isBlocked() const { return blocked; }
  29:src/../h/TCB.hpp **** 
  30:src/../h/TCB.hpp ****     bool isStarted() const { return started; }
  31:src/../h/TCB.hpp **** 
  32:src/../h/TCB.hpp ****     bool isSystemThread() { return system_thread;}
  33:src/../h/TCB.hpp **** 
  34:src/../h/TCB.hpp ****     void setFinished(bool value) { finished = value; }
  35:src/../h/TCB.hpp **** 
  36:src/../h/TCB.hpp ****     void setBlocked (bool value) { blocked=value; }
 328              		.loc 2 36 36
 329              		.loc 2 36 43 is_stmt 0
 330 019c A3080502 		sb	zero,49(a0)
 331              	.LVL21:
 332              	.LBE15:
 333              	.LBE14:
  78:src/_sem.cpp  ****     }
 334              		.loc 1 78 9 is_stmt 1
  78:src/_sem.cpp  ****     }
 335              		.loc 1 78 23 is_stmt 0
 336 01a0 97000000 		call	_ZN9Scheduler3putEP3TCB@plt
 336      E7800000 
 337              	.LVL22:
 338              	.LBE13:
 339              	.LBE16:
  80:src/_sem.cpp  **** }
 340              		.loc 1 80 12
 341 01a8 13050000 		li	a0,0
 342              		.loc 1 81 1
 343 01ac 83308100 		ld	ra,8(sp)
 344              		.cfi_restore 1
 345 01b0 03340100 		ld	s0,0(sp)
 346              		.cfi_restore 8
 347              		.cfi_def_cfa 2, 16
 348 01b4 13010101 		addi	sp,sp,16
 349              		.cfi_def_cfa_offset 0
 350 01b8 67800000 		jr	ra
 351              	.LVL23:
 352              	.L28:
  73:src/_sem.cpp  ****     if (++val<=0)
 353              		.loc 1 73 32
 354 01bc 1305F0FF 		li	a0,-1
 355              	.LVL24:
 356 01c0 67800000 		ret
 357              		.cfi_endproc
 358              	.LFE22:
 360              		.align	2
GAS LISTING /tmp/cctiRQj0.s 			page 10


 361              		.globl	_ZN4_sem5closeEv
 363              	_ZN4_sem5closeEv:
 364              	.LFB23:
  82:src/_sem.cpp  **** 
  83:src/_sem.cpp  **** int _sem::close() {
 365              		.loc 1 83 19 is_stmt 1
 366              		.cfi_startproc
 367              	.LVL25:
  84:src/_sem.cpp  ****     if (finished)return -1;
 368              		.loc 1 84 5
 369              		.loc 1 84 9 is_stmt 0
 370 01c4 83474500 		lbu	a5,4(a0)
 371              		.loc 1 84 5
 372 01c8 63900706 		bnez	a5,.L38
  83:src/_sem.cpp  ****     if (finished)return -1;
 373              		.loc 1 83 19
 374 01cc 130101FE 		addi	sp,sp,-32
 375              		.cfi_def_cfa_offset 32
 376 01d0 233C1100 		sd	ra,24(sp)
 377 01d4 23388100 		sd	s0,16(sp)
 378 01d8 23349100 		sd	s1,8(sp)
 379              		.cfi_offset 1, -8
 380              		.cfi_offset 8, -16
 381              		.cfi_offset 9, -24
 382 01dc 13040102 		addi	s0,sp,32
 383              		.cfi_def_cfa 8, 0
 384 01e0 93040500 		mv	s1,a0
  85:src/_sem.cpp  ****     finished=true;
 385              		.loc 1 85 5 is_stmt 1
 386              		.loc 1 85 13 is_stmt 0
 387 01e4 93071000 		li	a5,1
 388 01e8 2302F500 		sb	a5,4(a0)
  86:src/_sem.cpp  ****     val = 0;
 389              		.loc 1 86 5 is_stmt 1
 390              		.loc 1 86 9 is_stmt 0
 391 01ec 23200500 		sw	zero,0(a0)
 392 01f0 6F000001 		j	.L37
 393              	.LVL26:
 394              	.L44:
 395              	.LBB17:
  87:src/_sem.cpp  ****     while (true)
  88:src/_sem.cpp  ****     {
  89:src/_sem.cpp  ****         TCB* curr = release_thread();
  90:src/_sem.cpp  ****         if (curr== nullptr)break;
  91:src/_sem.cpp  ****         curr->setBlocked(false);
 396              		.loc 1 91 9 is_stmt 1
 397              	.LBB18:
 398              	.LBB19:
 399              		.loc 2 36 36
 400              		.loc 2 36 43 is_stmt 0
 401 01f4 A3080502 		sb	zero,49(a0)
 402              	.LVL27:
 403              	.LBE19:
 404              	.LBE18:
  92:src/_sem.cpp  ****         Scheduler::put(curr);
 405              		.loc 1 92 9 is_stmt 1
 406              		.loc 1 92 23 is_stmt 0
GAS LISTING /tmp/cctiRQj0.s 			page 11


 407 01f8 97000000 		call	_ZN9Scheduler3putEP3TCB@plt
 407      E7800000 
 408              	.LVL28:
 409              	.LBE17:
  87:src/_sem.cpp  ****     while (true)
 410              		.loc 1 87 5 is_stmt 1
 411              	.L37:
  87:src/_sem.cpp  ****     while (true)
 412              		.loc 1 87 5
 413              	.LBB20:
  89:src/_sem.cpp  ****         if (curr== nullptr)break;
 414              		.loc 1 89 9
  89:src/_sem.cpp  ****         if (curr== nullptr)break;
 415              		.loc 1 89 35 is_stmt 0
 416 0200 13850400 		mv	a0,s1
 417 0204 97000000 		call	_ZN4_sem14release_threadEv
 417      E7800000 
 418              	.LVL29:
  90:src/_sem.cpp  ****         curr->setBlocked(false);
 419              		.loc 1 90 9 is_stmt 1
 420 020c E31405FE 		bnez	a0,.L44
 421              	.LBE20:
  93:src/_sem.cpp  ****     }
  94:src/_sem.cpp  ****     return 0;
 422              		.loc 1 94 12 is_stmt 0
 423 0210 13050000 		li	a0,0
 424              	.LVL30:
  95:src/_sem.cpp  **** }
 425              		.loc 1 95 1
 426 0214 83308101 		ld	ra,24(sp)
 427              		.cfi_restore 1
 428 0218 03340101 		ld	s0,16(sp)
 429              		.cfi_restore 8
 430              		.cfi_def_cfa 2, 32
 431 021c 83348100 		ld	s1,8(sp)
 432              		.cfi_restore 9
 433              	.LVL31:
 434 0220 13010102 		addi	sp,sp,32
 435              		.cfi_def_cfa_offset 0
 436 0224 67800000 		jr	ra
 437              	.LVL32:
 438              	.L38:
  84:src/_sem.cpp  ****     finished=true;
 439              		.loc 1 84 26
 440 0228 1305F0FF 		li	a0,-1
 441              	.LVL33:
 442              		.loc 1 95 1
 443 022c 67800000 		ret
 444              		.cfi_endproc
 445              	.LFE23:
 447              		.align	2
 448              		.globl	_ZN4_semD2Ev
 450              	_ZN4_semD2Ev:
 451              	.LFB25:
  96:src/_sem.cpp  **** 
  97:src/_sem.cpp  **** _sem::~_sem() {
 452              		.loc 1 97 1 is_stmt 1
GAS LISTING /tmp/cctiRQj0.s 			page 12


 453              		.cfi_startproc
 454              		.cfi_personality 0x9b,DW.ref.__gxx_personality_v0
 455              		.cfi_lsda 0x1b,.LLSDA25
 456              	.LVL34:
 457 0230 130101FF 		addi	sp,sp,-16
 458              		.cfi_def_cfa_offset 16
 459 0234 23341100 		sd	ra,8(sp)
 460 0238 23308100 		sd	s0,0(sp)
 461              		.cfi_offset 1, -8
 462              		.cfi_offset 8, -16
 463 023c 13040101 		addi	s0,sp,16
 464              		.cfi_def_cfa 8, 0
 465              	.LBB21:
  98:src/_sem.cpp  ****     this->close();
 466              		.loc 1 98 5
 467              		.loc 1 98 16 is_stmt 0
 468 0240 97000000 		call	_ZN4_sem5closeEv
 468      E7800000 
 469              	.LVL35:
 470              	.LBE21:
  99:src/_sem.cpp  **** }
 471              		.loc 1 99 1
 472 0248 83308100 		ld	ra,8(sp)
 473              		.cfi_restore 1
 474 024c 03340100 		ld	s0,0(sp)
 475              		.cfi_restore 8
 476              		.cfi_def_cfa 2, 16
 477 0250 13010101 		addi	sp,sp,16
 478              		.cfi_def_cfa_offset 0
 479 0254 67800000 		jr	ra
 480              		.cfi_endproc
 481              	.LFE25:
 482              		.globl	__gxx_personality_v0
 483              		.section	.gcc_except_table,"a",@progbits
 484              	.LLSDA25:
 485 0000 FF       		.byte	0xff
 486 0001 FF       		.byte	0xff
 487 0002 03       		.byte	0x3
 488 0003 00       		.byte	0
 489              		.text
 491              		.globl	_ZN4_semD1Ev
 492              		.set	_ZN4_semD1Ev,_ZN4_semD2Ev
 493              		.align	2
 494              		.globl	_ZN4_sem15createSemaphoreEj
 496              	_ZN4_sem15createSemaphoreEj:
 497              	.LFB27:
 100:src/_sem.cpp  **** 
 101:src/_sem.cpp  **** 
 102:src/_sem.cpp  **** _sem* _sem::createSemaphore(unsigned init) {
 498              		.loc 1 102 44 is_stmt 1
 499              		.cfi_startproc
 500              	.LVL36:
 501 0258 130101FE 		addi	sp,sp,-32
 502              		.cfi_def_cfa_offset 32
 503 025c 233C1100 		sd	ra,24(sp)
 504 0260 23388100 		sd	s0,16(sp)
 505 0264 23349100 		sd	s1,8(sp)
GAS LISTING /tmp/cctiRQj0.s 			page 13


 506              		.cfi_offset 1, -8
 507              		.cfi_offset 8, -16
 508              		.cfi_offset 9, -24
 509 0268 13040102 		addi	s0,sp,32
 510              		.cfi_def_cfa 8, 0
 511 026c 93040500 		mv	s1,a0
 103:src/_sem.cpp  ****     _sem* curr = new _sem(init);
 512              		.loc 1 103 5
 513              		.loc 1 103 31 is_stmt 0
 514 0270 13058001 		li	a0,24
 515              	.LVL37:
 516 0274 97000000 		call	_ZN4_semnwEm
 516      E7800000 
 517              	.LVL38:
 518              	.LBB22:
 519              	.LBB23:
 520              		.file 3 "src/../h/_sem.hpp"
   1:src/../h/_sem.hpp **** //
   2:src/../h/_sem.hpp **** // Created by os on 5/8/23.
   3:src/../h/_sem.hpp **** //
   4:src/../h/_sem.hpp **** 
   5:src/../h/_sem.hpp **** #ifndef PROJECT_BASE_V1_1__SEM_HPP
   6:src/../h/_sem.hpp **** #define PROJECT_BASE_V1_1__SEM_HPP
   7:src/../h/_sem.hpp **** 
   8:src/../h/_sem.hpp **** #include "TCB.hpp"
   9:src/../h/_sem.hpp **** #include "Scheduler.hpp"
  10:src/../h/_sem.hpp **** 
  11:src/../h/_sem.hpp **** class _sem
  12:src/../h/_sem.hpp **** {
  13:src/../h/_sem.hpp **** private:
  14:src/../h/_sem.hpp ****     int val;
  15:src/../h/_sem.hpp ****     bool finished;
  16:src/../h/_sem.hpp ****     TCB* waiting_head;
  17:src/../h/_sem.hpp ****     TCB* tail;
  18:src/../h/_sem.hpp **** 
  19:src/../h/_sem.hpp **** 
  20:src/../h/_sem.hpp ****     _sem(unsigned init):finished(false),waiting_head(nullptr),tail(nullptr){};
 521              		.loc 3 20 75
 522 027c 23020500 		sb	zero,4(a0)
 523 0280 23340500 		sd	zero,8(a0)
 524 0284 23380500 		sd	zero,16(a0)
 525              	.LVL39:
 526              	.LBE23:
 527              	.LBE22:
 104:src/_sem.cpp  ****     curr->val=(int)init;
 528              		.loc 1 104 5 is_stmt 1
 529              		.loc 1 104 14 is_stmt 0
 530 0288 23209500 		sw	s1,0(a0)
 105:src/_sem.cpp  ****     return curr;
 531              		.loc 1 105 5 is_stmt 1
 106:src/_sem.cpp  **** }
 532              		.loc 1 106 1 is_stmt 0
 533 028c 83308101 		ld	ra,24(sp)
 534              		.cfi_restore 1
 535 0290 03340101 		ld	s0,16(sp)
 536              		.cfi_restore 8
 537              		.cfi_def_cfa 2, 32
GAS LISTING /tmp/cctiRQj0.s 			page 14


 538 0294 83348100 		ld	s1,8(sp)
 539              		.cfi_restore 9
 540 0298 13010102 		addi	sp,sp,32
 541              		.cfi_def_cfa_offset 0
 542 029c 67800000 		jr	ra
 543              		.cfi_endproc
 544              	.LFE27:
 546              	.Letext0:
 547              		.file 4 "src/../h/../lib/hw.h"
 548              		.file 5 "src/../h/../h/MemoryAllocator.hpp"
 549              		.file 6 "src/../h/../h/syscall_c.h"
 550              		.file 7 "src/../h/Scheduler.hpp"
 3599              		.align	3
 3602              	DW.ref.__gxx_personality_v0:
 3603 0000 00000000 		.dword	__gxx_personality_v0
 3603      00000000 
 3604              		.ident	"GCC: (Ubuntu 9.4.0-1ubuntu1~20.04) 9.4.0"
 3605              		.section	.note.GNU-stack,"",@progbits
GAS LISTING /tmp/cctiRQj0.s 			page 15


DEFINED SYMBOLS
                            *ABS*:0000000000000000 _sem.cpp
     /tmp/cctiRQj0.s:9      .text:0000000000000000 _ZN4_semdlEPv
     /tmp/cctiRQj0.s:13     .text:0000000000000000 .L0 
     /tmp/cctiRQj0.s:15     .text:0000000000000000 .L0 
     /tmp/cctiRQj0.s:16     .text:0000000000000004 .L0 
     /tmp/cctiRQj0.s:19     .text:000000000000000c .L0 
     /tmp/cctiRQj0.s:20     .text:000000000000000c .L0 
     /tmp/cctiRQj0.s:22     .text:0000000000000010 .L0 
     /tmp/cctiRQj0.s:24     .text:0000000000000010 .L0 
     /tmp/cctiRQj0.s:25     .text:0000000000000010 .L0 
     /tmp/cctiRQj0.s:28     .text:0000000000000018 .L0 
     /tmp/cctiRQj0.s:29     .text:000000000000001c .L0 
     /tmp/cctiRQj0.s:31     .text:0000000000000020 .L0 
     /tmp/cctiRQj0.s:32     .text:0000000000000020 .L0 
     /tmp/cctiRQj0.s:34     .text:0000000000000024 .L0 
     /tmp/cctiRQj0.s:36     .text:0000000000000028 .L0 
     /tmp/cctiRQj0.s:42     .text:0000000000000028 _ZN4_semnwEm
     /tmp/cctiRQj0.s:45     .text:0000000000000028 .L0 
     /tmp/cctiRQj0.s:47     .text:0000000000000028 .L0 
     /tmp/cctiRQj0.s:48     .text:000000000000002c .L0 
     /tmp/cctiRQj0.s:51     .text:0000000000000034 .L0 
     /tmp/cctiRQj0.s:52     .text:0000000000000034 .L0 
     /tmp/cctiRQj0.s:54     .text:0000000000000038 .L0 
     /tmp/cctiRQj0.s:56     .text:0000000000000038 .L0 
     /tmp/cctiRQj0.s:57     .text:0000000000000038 .L0 
     /tmp/cctiRQj0.s:60     .text:000000000000003c .L0 
     /tmp/cctiRQj0.s:61     .text:000000000000003c .L0 
     /tmp/cctiRQj0.s:66     .text:0000000000000048 .L0 
     /tmp/cctiRQj0.s:67     .text:0000000000000048 .L0 
     /tmp/cctiRQj0.s:68     .text:000000000000004c .L0 
     /tmp/cctiRQj0.s:70     .text:0000000000000050 .L0 
     /tmp/cctiRQj0.s:71     .text:0000000000000050 .L0 
     /tmp/cctiRQj0.s:73     .text:0000000000000054 .L0 
     /tmp/cctiRQj0.s:75     .text:0000000000000058 .L0 
     /tmp/cctiRQj0.s:81     .text:0000000000000058 _ZN4_sem10add_threadEP3TCB
     /tmp/cctiRQj0.s:84     .text:0000000000000058 .L0 
     /tmp/cctiRQj0.s:86     .text:0000000000000058 .L0 
     /tmp/cctiRQj0.s:87     .text:000000000000005c .L0 
     /tmp/cctiRQj0.s:89     .text:0000000000000060 .L0 
     /tmp/cctiRQj0.s:91     .text:0000000000000064 .L0 
     /tmp/cctiRQj0.s:93     .text:0000000000000064 .L0 
     /tmp/cctiRQj0.s:94     .text:0000000000000064 .L0 
     /tmp/cctiRQj0.s:96     .text:0000000000000068 .L0 
     /tmp/cctiRQj0.s:98     .text:000000000000006c .L0 
     /tmp/cctiRQj0.s:100    .text:0000000000000070 .L0 
     /tmp/cctiRQj0.s:102    .text:0000000000000074 .L0 
     /tmp/cctiRQj0.s:103    .text:0000000000000074 .L0 
     /tmp/cctiRQj0.s:105    .text:0000000000000078 .L0 
     /tmp/cctiRQj0.s:106    .text:0000000000000078 .L0 
     /tmp/cctiRQj0.s:109    .text:000000000000007c .L0 
     /tmp/cctiRQj0.s:110    .text:0000000000000080 .L0 
     /tmp/cctiRQj0.s:111    .text:0000000000000080 .L0 
     /tmp/cctiRQj0.s:112    .text:0000000000000080 .L0 
     /tmp/cctiRQj0.s:114    .text:0000000000000084 .L0 
     /tmp/cctiRQj0.s:117    .text:0000000000000088 .L0 
     /tmp/cctiRQj0.s:119    .text:0000000000000088 .L0 
GAS LISTING /tmp/cctiRQj0.s 			page 16


     /tmp/cctiRQj0.s:120    .text:0000000000000088 .L0 
     /tmp/cctiRQj0.s:122    .text:000000000000008c .L0 
     /tmp/cctiRQj0.s:123    .text:000000000000008c .L0 
     /tmp/cctiRQj0.s:125    .text:0000000000000090 .L0 
     /tmp/cctiRQj0.s:126    .text:0000000000000090 .L0 
     /tmp/cctiRQj0.s:128    .text:0000000000000098 .L0 
     /tmp/cctiRQj0.s:134    .text:0000000000000098 _ZN4_sem4waitEv
     /tmp/cctiRQj0.s:137    .text:0000000000000098 .L0 
     /tmp/cctiRQj0.s:139    .text:0000000000000098 .L0 
     /tmp/cctiRQj0.s:140    .text:0000000000000098 .L0 
     /tmp/cctiRQj0.s:141    .text:0000000000000098 .L0 
     /tmp/cctiRQj0.s:143    .text:000000000000009c .L0 
     /tmp/cctiRQj0.s:145    .text:00000000000000a0 .L0 
     /tmp/cctiRQj0.s:146    .text:00000000000000a4 .L0 
     /tmp/cctiRQj0.s:150    .text:00000000000000b0 .L0 
     /tmp/cctiRQj0.s:151    .text:00000000000000b0 .L0 
     /tmp/cctiRQj0.s:152    .text:00000000000000b0 .L0 
     /tmp/cctiRQj0.s:154    .text:00000000000000b4 .L0 
     /tmp/cctiRQj0.s:157    .text:00000000000000b8 .L0 
     /tmp/cctiRQj0.s:158    .text:00000000000000b8 .L0 
     /tmp/cctiRQj0.s:160    .text:00000000000000bc .L0 
     /tmp/cctiRQj0.s:162    .text:00000000000000c0 .L0 
     /tmp/cctiRQj0.s:164    .text:00000000000000c4 .L0 
     /tmp/cctiRQj0.s:169    .text:00000000000000cc .L0 
     /tmp/cctiRQj0.s:170    .text:00000000000000cc .L0 
     /tmp/cctiRQj0.s:172    .text:00000000000000d0 .L0 
     /tmp/cctiRQj0.s:174    .text:00000000000000d4 .L0 
     /tmp/cctiRQj0.s:177    .text:00000000000000d8 .L0 
     /tmp/cctiRQj0.s:178    .text:00000000000000dc .L0 
     /tmp/cctiRQj0.s:179    .text:00000000000000dc .L0 
     /tmp/cctiRQj0.s:181    .text:00000000000000e0 .L0 
     /tmp/cctiRQj0.s:182    .text:00000000000000e0 .L0 
     /tmp/cctiRQj0.s:184    .text:00000000000000e4 .L0 
     /tmp/cctiRQj0.s:187    .text:00000000000000e8 .L0 
     /tmp/cctiRQj0.s:191    .text:00000000000000ec .L0 
     /tmp/cctiRQj0.s:193    .text:00000000000000ec .L0 
     /tmp/cctiRQj0.s:194    .text:00000000000000ec .L0 
     /tmp/cctiRQj0.s:197    .text:00000000000000f8 .L0 
     /tmp/cctiRQj0.s:200    .text:0000000000000100 .L0 
     /tmp/cctiRQj0.s:201    .text:0000000000000100 .L0 
     /tmp/cctiRQj0.s:204    .text:0000000000000108 .L0 
     /tmp/cctiRQj0.s:205    .text:0000000000000108 .L0 
     /tmp/cctiRQj0.s:210    .text:0000000000000114 .L0 
     /tmp/cctiRQj0.s:214    .text:000000000000011c .L0 
     /tmp/cctiRQj0.s:215    .text:000000000000011c .L0 
     /tmp/cctiRQj0.s:216    .text:000000000000011c .L0 
     /tmp/cctiRQj0.s:217    .text:000000000000011c .L0 
     /tmp/cctiRQj0.s:219    .text:000000000000011c .L0 
     /tmp/cctiRQj0.s:222    .text:0000000000000120 .L0 
     /tmp/cctiRQj0.s:223    .text:0000000000000124 .L0 
     /tmp/cctiRQj0.s:229    .text:0000000000000124 _ZN4_sem14release_threadEv
     /tmp/cctiRQj0.s:232    .text:0000000000000124 .L0 
     /tmp/cctiRQj0.s:234    .text:0000000000000124 .L0 
     /tmp/cctiRQj0.s:235    .text:0000000000000128 .L0 
     /tmp/cctiRQj0.s:237    .text:000000000000012c .L0 
     /tmp/cctiRQj0.s:239    .text:0000000000000130 .L0 
     /tmp/cctiRQj0.s:242    .text:0000000000000134 .L0 
GAS LISTING /tmp/cctiRQj0.s 			page 17


     /tmp/cctiRQj0.s:243    .text:0000000000000134 .L0 
     /tmp/cctiRQj0.s:246    .text:0000000000000138 .L0 
     /tmp/cctiRQj0.s:248    .text:000000000000013c .L0 
     /tmp/cctiRQj0.s:249    .text:000000000000013c .L0 
     /tmp/cctiRQj0.s:251    .text:0000000000000140 .L0 
     /tmp/cctiRQj0.s:253    .text:0000000000000144 .L0 
     /tmp/cctiRQj0.s:256    .text:0000000000000148 .L0 
     /tmp/cctiRQj0.s:257    .text:0000000000000148 .L0 
     /tmp/cctiRQj0.s:260    .text:000000000000014c .L0 
     /tmp/cctiRQj0.s:261    .text:000000000000014c .L0 
     /tmp/cctiRQj0.s:262    .text:0000000000000150 .L0 
     /tmp/cctiRQj0.s:263    .text:0000000000000150 .L0 
     /tmp/cctiRQj0.s:264    .text:0000000000000150 .L0 
     /tmp/cctiRQj0.s:266    .text:0000000000000154 .L0 
     /tmp/cctiRQj0.s:269    .text:0000000000000158 .L0 
     /tmp/cctiRQj0.s:271    .text:0000000000000158 .L0 
     /tmp/cctiRQj0.s:272    .text:0000000000000158 .L0 
     /tmp/cctiRQj0.s:274    .text:0000000000000160 .L0 
     /tmp/cctiRQj0.s:280    .text:0000000000000160 _ZN4_sem6signalEv
     /tmp/cctiRQj0.s:283    .text:0000000000000160 .L0 
     /tmp/cctiRQj0.s:285    .text:0000000000000160 .L0 
     /tmp/cctiRQj0.s:286    .text:0000000000000160 .L0 
     /tmp/cctiRQj0.s:287    .text:0000000000000160 .L0 
     /tmp/cctiRQj0.s:289    .text:0000000000000164 .L0 
     /tmp/cctiRQj0.s:292    .text:0000000000000168 .L0 
     /tmp/cctiRQj0.s:293    .text:0000000000000168 .L0 
     /tmp/cctiRQj0.s:295    .text:000000000000016c .L0 
     /tmp/cctiRQj0.s:298    .text:0000000000000174 .L0 
     /tmp/cctiRQj0.s:300    .text:0000000000000178 .L0 
     /tmp/cctiRQj0.s:303    .text:000000000000017c .L0 
     /tmp/cctiRQj0.s:306    .text:0000000000000180 .L0 
     /tmp/cctiRQj0.s:310    .text:0000000000000184 .L0 
     /tmp/cctiRQj0.s:311    .text:0000000000000188 .L0 
     /tmp/cctiRQj0.s:314    .text:0000000000000190 .L0 
     /tmp/cctiRQj0.s:315    .text:0000000000000190 .L0 
     /tmp/cctiRQj0.s:317    .text:0000000000000194 .L0 
     /tmp/cctiRQj0.s:321    .text:0000000000000194 .L0 
     /tmp/cctiRQj0.s:322    .text:0000000000000194 .L0 
     /tmp/cctiRQj0.s:328    .text:000000000000019c .L0 
     /tmp/cctiRQj0.s:329    .text:000000000000019c .L0 
     /tmp/cctiRQj0.s:330    .text:000000000000019c .L0 
     /tmp/cctiRQj0.s:335    .text:00000000000001a0 .L0 
     /tmp/cctiRQj0.s:336    .text:00000000000001a0 .L0 
     /tmp/cctiRQj0.s:341    .text:00000000000001a8 .L0 
     /tmp/cctiRQj0.s:343    .text:00000000000001ac .L0 
     /tmp/cctiRQj0.s:344    .text:00000000000001b0 .L0 
     /tmp/cctiRQj0.s:346    .text:00000000000001b4 .L0 
     /tmp/cctiRQj0.s:347    .text:00000000000001b4 .L0 
     /tmp/cctiRQj0.s:349    .text:00000000000001b8 .L0 
     /tmp/cctiRQj0.s:354    .text:00000000000001bc .L0 
     /tmp/cctiRQj0.s:357    .text:00000000000001c4 .L0 
     /tmp/cctiRQj0.s:363    .text:00000000000001c4 _ZN4_sem5closeEv
     /tmp/cctiRQj0.s:366    .text:00000000000001c4 .L0 
     /tmp/cctiRQj0.s:368    .text:00000000000001c4 .L0 
     /tmp/cctiRQj0.s:369    .text:00000000000001c4 .L0 
     /tmp/cctiRQj0.s:370    .text:00000000000001c4 .L0 
     /tmp/cctiRQj0.s:372    .text:00000000000001c8 .L0 
GAS LISTING /tmp/cctiRQj0.s 			page 18


     /tmp/cctiRQj0.s:374    .text:00000000000001cc .L0 
     /tmp/cctiRQj0.s:375    .text:00000000000001d0 .L0 
     /tmp/cctiRQj0.s:379    .text:00000000000001dc .L0 
     /tmp/cctiRQj0.s:380    .text:00000000000001dc .L0 
     /tmp/cctiRQj0.s:381    .text:00000000000001dc .L0 
     /tmp/cctiRQj0.s:383    .text:00000000000001e0 .L0 
     /tmp/cctiRQj0.s:386    .text:00000000000001e4 .L0 
     /tmp/cctiRQj0.s:387    .text:00000000000001e4 .L0 
     /tmp/cctiRQj0.s:390    .text:00000000000001ec .L0 
     /tmp/cctiRQj0.s:391    .text:00000000000001ec .L0 
     /tmp/cctiRQj0.s:399    .text:00000000000001f4 .L0 
     /tmp/cctiRQj0.s:400    .text:00000000000001f4 .L0 
     /tmp/cctiRQj0.s:401    .text:00000000000001f4 .L0 
     /tmp/cctiRQj0.s:406    .text:00000000000001f8 .L0 
     /tmp/cctiRQj0.s:407    .text:00000000000001f8 .L0 
     /tmp/cctiRQj0.s:412    .text:0000000000000200 .L0 
     /tmp/cctiRQj0.s:414    .text:0000000000000200 .L0 
     /tmp/cctiRQj0.s:415    .text:0000000000000200 .L0 
     /tmp/cctiRQj0.s:416    .text:0000000000000200 .L0 
     /tmp/cctiRQj0.s:420    .text:000000000000020c .L0 
     /tmp/cctiRQj0.s:423    .text:0000000000000210 .L0 
     /tmp/cctiRQj0.s:426    .text:0000000000000214 .L0 
     /tmp/cctiRQj0.s:427    .text:0000000000000218 .L0 
     /tmp/cctiRQj0.s:429    .text:000000000000021c .L0 
     /tmp/cctiRQj0.s:430    .text:000000000000021c .L0 
     /tmp/cctiRQj0.s:432    .text:0000000000000220 .L0 
     /tmp/cctiRQj0.s:435    .text:0000000000000224 .L0 
     /tmp/cctiRQj0.s:440    .text:0000000000000228 .L0 
     /tmp/cctiRQj0.s:443    .text:000000000000022c .L0 
     /tmp/cctiRQj0.s:444    .text:0000000000000230 .L0 
     /tmp/cctiRQj0.s:450    .text:0000000000000230 _ZN4_semD2Ev
     /tmp/cctiRQj0.s:453    .text:0000000000000230 .L0 
     /tmp/cctiRQj0.s:3602   .data.rel.local.DW.ref.__gxx_personality_v0:0000000000000000 DW.ref.__gxx_personality_v0
     /tmp/cctiRQj0.s:457    .text:0000000000000230 .L0 
     /tmp/cctiRQj0.s:458    .text:0000000000000234 .L0 
     /tmp/cctiRQj0.s:461    .text:000000000000023c .L0 
     /tmp/cctiRQj0.s:462    .text:000000000000023c .L0 
     /tmp/cctiRQj0.s:464    .text:0000000000000240 .L0 
     /tmp/cctiRQj0.s:467    .text:0000000000000240 .L0 
     /tmp/cctiRQj0.s:468    .text:0000000000000240 .L0 
     /tmp/cctiRQj0.s:472    .text:0000000000000248 .L0 
     /tmp/cctiRQj0.s:473    .text:000000000000024c .L0 
     /tmp/cctiRQj0.s:475    .text:0000000000000250 .L0 
     /tmp/cctiRQj0.s:476    .text:0000000000000250 .L0 
     /tmp/cctiRQj0.s:478    .text:0000000000000254 .L0 
     /tmp/cctiRQj0.s:480    .text:0000000000000258 .L0 
     /tmp/cctiRQj0.s:450    .text:0000000000000230 _ZN4_semD1Ev
     /tmp/cctiRQj0.s:496    .text:0000000000000258 _ZN4_sem15createSemaphoreEj
     /tmp/cctiRQj0.s:499    .text:0000000000000258 .L0 
     /tmp/cctiRQj0.s:501    .text:0000000000000258 .L0 
     /tmp/cctiRQj0.s:502    .text:000000000000025c .L0 
     /tmp/cctiRQj0.s:506    .text:0000000000000268 .L0 
     /tmp/cctiRQj0.s:507    .text:0000000000000268 .L0 
     /tmp/cctiRQj0.s:508    .text:0000000000000268 .L0 
     /tmp/cctiRQj0.s:510    .text:000000000000026c .L0 
     /tmp/cctiRQj0.s:513    .text:0000000000000270 .L0 
     /tmp/cctiRQj0.s:514    .text:0000000000000270 .L0 
GAS LISTING /tmp/cctiRQj0.s 			page 19


     /tmp/cctiRQj0.s:522    .text:000000000000027c .L0 
     /tmp/cctiRQj0.s:529    .text:0000000000000288 .L0 
     /tmp/cctiRQj0.s:530    .text:0000000000000288 .L0 
     /tmp/cctiRQj0.s:532    .text:000000000000028c .L0 
     /tmp/cctiRQj0.s:533    .text:000000000000028c .L0 
     /tmp/cctiRQj0.s:534    .text:0000000000000290 .L0 
     /tmp/cctiRQj0.s:536    .text:0000000000000294 .L0 
     /tmp/cctiRQj0.s:537    .text:0000000000000294 .L0 
     /tmp/cctiRQj0.s:539    .text:0000000000000298 .L0 
     /tmp/cctiRQj0.s:541    .text:000000000000029c .L0 
     /tmp/cctiRQj0.s:543    .text:00000000000002a0 .L0 
     /tmp/cctiRQj0.s:551    .text:00000000000002a0 .L0 
     /tmp/cctiRQj0.s:194    .text:00000000000000ec .L0 
     /tmp/cctiRQj0.s:116    .text:0000000000000088 .L9
     /tmp/cctiRQj0.s:107    .text:000000000000007c .L5
     /tmp/cctiRQj0.s:213    .text:000000000000011c .L13
     /tmp/cctiRQj0.s:190    .text:00000000000000ec .L19
     /tmp/cctiRQj0.s:208    .text:0000000000000114 .L20
     /tmp/cctiRQj0.s:167    .text:00000000000000cc .L12
     /tmp/cctiRQj0.s:175    .text:00000000000000d8 .L11
     /tmp/cctiRQj0.s:259    .text:000000000000014c .L21
     /tmp/cctiRQj0.s:268    .text:0000000000000158 .L25
     /tmp/cctiRQj0.s:254    .text:0000000000000148 .L23
     /tmp/cctiRQj0.s:352    .text:00000000000001bc .L28
     /tmp/cctiRQj0.s:308    .text:0000000000000184 .L34
     /tmp/cctiRQj0.s:438    .text:0000000000000228 .L38
     /tmp/cctiRQj0.s:411    .text:0000000000000200 .L37
     /tmp/cctiRQj0.s:394    .text:00000000000001f4 .L44
     /tmp/cctiRQj0.s:1987   .debug_abbrev:0000000000000000 .Ldebug_abbrev0
     /tmp/cctiRQj0.s:3536   .debug_str:0000000000000647 .LASF134
     /tmp/cctiRQj0.s:3322   .debug_str:0000000000000065 .LASF135
     /tmp/cctiRQj0.s:3358   .debug_str:000000000000014b .LASF136
     /tmp/cctiRQj0.s:5      .text:0000000000000000 .Ltext0
     /tmp/cctiRQj0.s:546    .text:00000000000002a0 .Letext0
     /tmp/cctiRQj0.s:3302   .debug_line:0000000000000000 .Ldebug_line0
     /tmp/cctiRQj0.s:3458   .debug_str:000000000000040f .LASF0
     /tmp/cctiRQj0.s:3472   .debug_str:000000000000046c .LASF1
     /tmp/cctiRQj0.s:3444   .debug_str:00000000000003aa .LASF2
     /tmp/cctiRQj0.s:3412   .debug_str:00000000000002fe .LASF4
     /tmp/cctiRQj0.s:3512   .debug_str:0000000000000583 .LASF3
     /tmp/cctiRQj0.s:3330   .debug_str:00000000000000a2 .LASF5
     /tmp/cctiRQj0.s:3474   .debug_str:000000000000047f .LASF6
     /tmp/cctiRQj0.s:3456   .debug_str:00000000000003fc .LASF7
     /tmp/cctiRQj0.s:3556   .debug_str:00000000000007a2 .LASF8
     /tmp/cctiRQj0.s:3396   .debug_str:0000000000000268 .LASF9
     /tmp/cctiRQj0.s:3486   .debug_str:00000000000004c1 .LASF10
     /tmp/cctiRQj0.s:3542   .debug_str:000000000000073c .LASF11
     /tmp/cctiRQj0.s:3336   .debug_str:00000000000000c2 .LASF12
     /tmp/cctiRQj0.s:3312   .debug_str:0000000000000027 .LASF13
     /tmp/cctiRQj0.s:3348   .debug_str:0000000000000111 .LASF14
     /tmp/cctiRQj0.s:3506   .debug_str:0000000000000545 .LASF15
     /tmp/cctiRQj0.s:3360   .debug_str:000000000000016e .LASF16
     /tmp/cctiRQj0.s:3440   .debug_str:0000000000000394 .LASF30
     /tmp/cctiRQj0.s:3404   .debug_str:00000000000002ae .LASF20
     /tmp/cctiRQj0.s:3588   .debug_str:000000000000087d .LASF17
     /tmp/cctiRQj0.s:3572   .debug_str:000000000000080e .LASF18
     /tmp/cctiRQj0.s:3532   .debug_str:000000000000063c .LASF19
GAS LISTING /tmp/cctiRQj0.s 			page 20


     /tmp/cctiRQj0.s:3582   .debug_str:000000000000084b .LASF21
     /tmp/cctiRQj0.s:3580   .debug_str:000000000000083f .LASF22
     /tmp/cctiRQj0.s:3428   .debug_str:0000000000000354 .LASF23
     /tmp/cctiRQj0.s:3540   .debug_str:0000000000000732 .LASF24
     /tmp/cctiRQj0.s:3518   .debug_str:00000000000005b0 .LASF25
     /tmp/cctiRQj0.s:3484   .debug_str:00000000000004b3 .LASF26
     /tmp/cctiRQj0.s:3492   .debug_str:00000000000004f7 .LASF32
     /tmp/cctiRQj0.s:3394   .debug_str:0000000000000247 .LASF34
     /tmp/cctiRQj0.s:3516   .debug_str:00000000000005a6 .LASF66
     /tmp/cctiRQj0.s:3528   .debug_str:0000000000000600 .LASF68
     /tmp/cctiRQj0.s:3384   .debug_str:0000000000000200 .LASF27
     /tmp/cctiRQj0.s:3522   .debug_str:00000000000005db .LASF28
     /tmp/cctiRQj0.s:3500   .debug_str:0000000000000516 .LASF29
     /tmp/cctiRQj0.s:3320   .debug_str:000000000000005d .LASF31
     /tmp/cctiRQj0.s:3370   .debug_str:00000000000001b8 .LASF33
     /tmp/cctiRQj0.s:3496   .debug_str:0000000000000505 .LASF35
     /tmp/cctiRQj0.s:3476   .debug_str:0000000000000492 .LASF36
     /tmp/cctiRQj0.s:3356   .debug_str:0000000000000134 .LASF38
     /tmp/cctiRQj0.s:3318   .debug_str:0000000000000053 .LASF37
     /tmp/cctiRQj0.s:3426   .debug_str:000000000000033f .LASF39
     /tmp/cctiRQj0.s:3346   .debug_str:0000000000000107 .LASF40
     /tmp/cctiRQj0.s:3344   .debug_str:00000000000000f2 .LASF41
     /tmp/cctiRQj0.s:3558   .debug_str:00000000000007b2 .LASF42
     /tmp/cctiRQj0.s:3590   .debug_str:0000000000000882 .LASF43
     /tmp/cctiRQj0.s:3446   .debug_str:00000000000003b8 .LASF44
     /tmp/cctiRQj0.s:3406   .debug_str:00000000000002ba .LASF45
     /tmp/cctiRQj0.s:3416   .debug_str:0000000000000311 .LASF46
     /tmp/cctiRQj0.s:3546   .debug_str:0000000000000753 .LASF47
     /tmp/cctiRQj0.s:3366   .debug_str:0000000000000199 .LASF48
     /tmp/cctiRQj0.s:3488   .debug_str:00000000000004d0 .LASF49
     /tmp/cctiRQj0.s:3438   .debug_str:0000000000000387 .LASF50
     /tmp/cctiRQj0.s:3328   .debug_str:0000000000000089 .LASF51
     /tmp/cctiRQj0.s:3398   .debug_str:0000000000000276 .LASF52
     /tmp/cctiRQj0.s:3538   .debug_str:000000000000070b .LASF53
     /tmp/cctiRQj0.s:3498   .debug_str:0000000000000511 .LASF137
     /tmp/cctiRQj0.s:3424   .debug_str:0000000000000332 .LASF54
     /tmp/cctiRQj0.s:3452   .debug_str:00000000000003d4 .LASF55
     /tmp/cctiRQj0.s:3470   .debug_str:0000000000000461 .LASF56
     /tmp/cctiRQj0.s:3586   .debug_str:000000000000085c .LASF57
     /tmp/cctiRQj0.s:3376   .debug_str:00000000000001cf .LASF58
     /tmp/cctiRQj0.s:3454   .debug_str:00000000000003f7 .LASF59
     /tmp/cctiRQj0.s:3304   .debug_str:0000000000000000 .LASF60
     /tmp/cctiRQj0.s:3490   .debug_str:00000000000004e6 .LASF61
     /tmp/cctiRQj0.s:3460   .debug_str:000000000000041c .LASF80
     /tmp/cctiRQj0.s:3382   .debug_str:00000000000001ed .LASF82
     /tmp/cctiRQj0.s:3442   .debug_str:00000000000003a4 .LASF62
     /tmp/cctiRQj0.s:3324   .debug_str:0000000000000072 .LASF63
     /tmp/cctiRQj0.s:3568   .debug_str:00000000000007e9 .LASF64
     /tmp/cctiRQj0.s:3414   .debug_str:0000000000000305 .LASF65
     /tmp/cctiRQj0.s:3362   .debug_str:0000000000000184 .LASF67
     /tmp/cctiRQj0.s:3502   .debug_str:000000000000051f .LASF69
     /tmp/cctiRQj0.s:3468   .debug_str:000000000000044a .LASF138
     /tmp/cctiRQj0.s:3420   .debug_str:0000000000000325 .LASF70
     /tmp/cctiRQj0.s:3354   .debug_str:000000000000012e .LASF71
     /tmp/cctiRQj0.s:3422   .debug_str:000000000000032a .LASF72
     /tmp/cctiRQj0.s:3466   .debug_str:0000000000000440 .LASF73
     /tmp/cctiRQj0.s:3418   .debug_str:000000000000031c .LASF74
GAS LISTING /tmp/cctiRQj0.s 			page 21


     /tmp/cctiRQj0.s:3306   .debug_str:0000000000000005 .LASF75
     /tmp/cctiRQj0.s:3436   .debug_str:000000000000037f .LASF76
     /tmp/cctiRQj0.s:3560   .debug_str:00000000000007c1 .LASF77
     /tmp/cctiRQj0.s:3310   .debug_str:0000000000000018 .LASF78
     /tmp/cctiRQj0.s:3400   .debug_str:0000000000000287 .LASF139
     /tmp/cctiRQj0.s:3402   .debug_str:0000000000000295 .LASF140
     /tmp/cctiRQj0.s:3564   .debug_str:00000000000007d5 .LASF125
     /tmp/cctiRQj0.s:3408   .debug_str:00000000000002d1 .LASF141
     /tmp/cctiRQj0.s:3514   .debug_str:0000000000000595 .LASF79
     /tmp/cctiRQj0.s:3432   .debug_str:000000000000036a .LASF81
     /tmp/cctiRQj0.s:3340   .debug_str:00000000000000dd .LASF83
     /tmp/cctiRQj0.s:3332   .debug_str:00000000000000a9 .LASF84
     /tmp/cctiRQj0.s:3504   .debug_str:000000000000052c .LASF85
     /tmp/cctiRQj0.s:3316   .debug_str:0000000000000044 .LASF86
     /tmp/cctiRQj0.s:3390   .debug_str:000000000000021d .LASF87
     /tmp/cctiRQj0.s:3464   .debug_str:0000000000000432 .LASF88
     /tmp/cctiRQj0.s:3372   .debug_str:00000000000001bd .LASF89
     /tmp/cctiRQj0.s:3392   .debug_str:0000000000000237 .LASF90
     /tmp/cctiRQj0.s:3430   .debug_str:000000000000035e .LASF91
     /tmp/cctiRQj0.s:3526   .debug_str:00000000000005f3 .LASF92
     /tmp/cctiRQj0.s:3508   .debug_str:000000000000055b .LASF93
     /tmp/cctiRQj0.s:3524   .debug_str:00000000000005e5 .LASF94
     /tmp/cctiRQj0.s:3410   .debug_str:00000000000002f9 .LASF95
     /tmp/cctiRQj0.s:3462   .debug_str:0000000000000425 .LASF96
     /tmp/cctiRQj0.s:3450   .debug_str:00000000000003cf .LASF97
     /tmp/cctiRQj0.s:3552   .debug_str:000000000000078c .LASF98
     /tmp/cctiRQj0.s:3308   .debug_str:000000000000000d .LASF99
     /tmp/cctiRQj0.s:3520   .debug_str:00000000000005c0 .LASF100
     /tmp/cctiRQj0.s:3574   .debug_str:0000000000000813 .LASF101
     /tmp/cctiRQj0.s:3530   .debug_str:0000000000000621 .LASF102
     /tmp/cctiRQj0.s:3576   .debug_str:0000000000000822 .LASF103
     /tmp/cctiRQj0.s:3510   .debug_str:0000000000000567 .LASF104
     /tmp/cctiRQj0.s:3592   .debug_str:000000000000089c .LASF105
     /tmp/cctiRQj0.s:3434   .debug_str:000000000000036f .LASF106
     /tmp/cctiRQj0.s:3478   .debug_str:000000000000049d .LASF107
     /tmp/cctiRQj0.s:3548   .debug_str:0000000000000769 .LASF108
     /tmp/cctiRQj0.s:3562   .debug_str:00000000000007cf .LASF109
     /tmp/cctiRQj0.s:3550   .debug_str:000000000000077b .LASF110
     /tmp/cctiRQj0.s:3566   .debug_str:00000000000007e3 .LASF111
     /tmp/cctiRQj0.s:3334   .debug_str:00000000000000b5 .LASF112
     /tmp/cctiRQj0.s:3388   .debug_str:000000000000020f .LASF113
     /tmp/cctiRQj0.s:3578   .debug_str:0000000000000832 .LASF114
     /tmp/cctiRQj0.s:3554   .debug_str:0000000000000799 .LASF115
     /tmp/cctiRQj0.s:3386   .debug_str:0000000000000205 .LASF116
     /tmp/cctiRQj0.s:3378   .debug_str:00000000000001d7 .LASF117
     /tmp/cctiRQj0.s:3338   .debug_str:00000000000000d2 .LASF118
     /tmp/cctiRQj0.s:3448   .debug_str:00000000000003c4 .LASF119
     /tmp/cctiRQj0.s:3326   .debug_str:0000000000000084 .LASF120
     /tmp/cctiRQj0.s:3584   .debug_str:0000000000000857 .LASF121
     /tmp/cctiRQj0.s:3482   .debug_str:00000000000004a9 .LASF122
     /tmp/cctiRQj0.s:3364   .debug_str:0000000000000194 .LASF123
     /tmp/cctiRQj0.s:3534   .debug_str:0000000000000641 .LASF124
     /tmp/cctiRQj0.s:3368   .debug_str:00000000000001a4 .LASF142
     /tmp/cctiRQj0.s:3570   .debug_str:00000000000007f6 .LASF143
     /tmp/cctiRQj0.s:497    .text:0000000000000258 .LFB27
     /tmp/cctiRQj0.s:544    .text:00000000000002a0 .LFE27
     /tmp/cctiRQj0.s:3594   .debug_str:00000000000008a1 .LASF129
GAS LISTING /tmp/cctiRQj0.s 			page 22


     /tmp/cctiRQj0.s:3022   .debug_loc:0000000000000000 .LLST14
     /tmp/cctiRQj0.s:3480   .debug_str:00000000000004a4 .LASF126
     /tmp/cctiRQj0.s:518    .text:000000000000027c .LBB22
     /tmp/cctiRQj0.s:527    .text:0000000000000288 .LBE22
     /tmp/cctiRQj0.s:3036   .debug_loc:0000000000000039 .LLST15
     /tmp/cctiRQj0.s:3043   .debug_loc:000000000000005c .LLST16
     /tmp/cctiRQj0.s:517    .text:000000000000027c .LVL38
     /tmp/cctiRQj0.s:3494   .debug_str:0000000000000500 .LASF127
     /tmp/cctiRQj0.s:3350   .debug_str:000000000000011d .LASF128
     /tmp/cctiRQj0.s:3380   .debug_str:00000000000001e0 .LASF144
     /tmp/cctiRQj0.s:451    .text:0000000000000230 .LFB25
     /tmp/cctiRQj0.s:481    .text:0000000000000258 .LFE25
     /tmp/cctiRQj0.s:3050   .debug_loc:000000000000007f .LLST13
     /tmp/cctiRQj0.s:469    .text:0000000000000248 .LVL35
     /tmp/cctiRQj0.s:364    .text:00000000000001c4 .LFB23
     /tmp/cctiRQj0.s:445    .text:0000000000000230 .LFE23
     /tmp/cctiRQj0.s:3064   .debug_loc:00000000000000b8 .LLST9
     /tmp/cctiRQj0.s:3294   .debug_ranges:0000000000000000 .Ldebug_ranges0
     /tmp/cctiRQj0.s:3093   .debug_loc:000000000000012d .LLST10
     /tmp/cctiRQj0.s:397    .text:00000000000001f4 .LBB18
     /tmp/cctiRQj0.s:404    .text:00000000000001f8 .LBE18
     /tmp/cctiRQj0.s:3104   .debug_loc:0000000000000163 .LLST11
     /tmp/cctiRQj0.s:3112   .debug_loc:0000000000000187 .LLST12
     /tmp/cctiRQj0.s:408    .text:0000000000000200 .LVL28
     /tmp/cctiRQj0.s:418    .text:000000000000020c .LVL29
     /tmp/cctiRQj0.s:281    .text:0000000000000160 .LFB22
     /tmp/cctiRQj0.s:358    .text:00000000000001c4 .LFE22
     /tmp/cctiRQj0.s:3119   .debug_loc:00000000000001aa .LLST5
     /tmp/cctiRQj0.s:319    .text:0000000000000194 .LBB13
     /tmp/cctiRQj0.s:338    .text:00000000000001a8 .LBE13
     /tmp/cctiRQj0.s:3155   .debug_loc:0000000000000235 .LLST6
     /tmp/cctiRQj0.s:325    .text:000000000000019c .LBB14
     /tmp/cctiRQj0.s:333    .text:00000000000001a0 .LBE14
     /tmp/cctiRQj0.s:3162   .debug_loc:0000000000000258 .LLST7
     /tmp/cctiRQj0.s:3170   .debug_loc:000000000000027c .LLST8
     /tmp/cctiRQj0.s:323    .text:000000000000019c .LVL20
     /tmp/cctiRQj0.s:337    .text:00000000000001a8 .LVL22
     /tmp/cctiRQj0.s:230    .text:0000000000000124 .LFB21
     /tmp/cctiRQj0.s:275    .text:0000000000000160 .LFE21
     /tmp/cctiRQj0.s:3177   .debug_loc:000000000000029f .LLST4
     /tmp/cctiRQj0.s:82     .text:0000000000000058 .LFB20
     /tmp/cctiRQj0.s:129    .text:0000000000000098 .LFE20
     /tmp/cctiRQj0.s:135    .text:0000000000000098 .LFB19
     /tmp/cctiRQj0.s:224    .text:0000000000000124 .LFE19
     /tmp/cctiRQj0.s:3188   .debug_loc:00000000000002d5 .LLST3
     /tmp/cctiRQj0.s:202    .text:0000000000000108 .LVL11
     /tmp/cctiRQj0.s:206    .text:0000000000000110 .LVL12
     /tmp/cctiRQj0.s:43     .text:0000000000000028 .LFB18
     /tmp/cctiRQj0.s:76     .text:0000000000000058 .LFE18
     /tmp/cctiRQj0.s:3221   .debug_loc:000000000000035d .LLST1
     /tmp/cctiRQj0.s:3374   .debug_str:00000000000001c9 .LASF130
     /tmp/cctiRQj0.s:3241   .debug_loc:00000000000003ab .LLST2
     /tmp/cctiRQj0.s:3544   .debug_str:000000000000074b .LASF131
     /tmp/cctiRQj0.s:64     .text:0000000000000048 .LVL5
     /tmp/cctiRQj0.s:10     .text:0000000000000000 .LFB17
     /tmp/cctiRQj0.s:37     .text:0000000000000028 .LFE17
     /tmp/cctiRQj0.s:3352   .debug_str:0000000000000127 .LASF132
GAS LISTING /tmp/cctiRQj0.s 			page 23


     /tmp/cctiRQj0.s:3267   .debug_loc:00000000000003ff .LLST0
     /tmp/cctiRQj0.s:26     .text:0000000000000018 .LVL1
     /tmp/cctiRQj0.s:3314   .debug_str:0000000000000037 .LASF145
     /tmp/cctiRQj0.s:3342   .debug_str:00000000000000ec .LASF133
     /tmp/cctiRQj0.s:500    .text:0000000000000258 .LVL36
     /tmp/cctiRQj0.s:515    .text:0000000000000274 .LVL37
     /tmp/cctiRQj0.s:525    .text:0000000000000288 .LVL39
     /tmp/cctiRQj0.s:456    .text:0000000000000230 .LVL34
     /tmp/cctiRQj0.s:367    .text:00000000000001c4 .LVL25
     /tmp/cctiRQj0.s:393    .text:00000000000001f4 .LVL26
     /tmp/cctiRQj0.s:433    .text:0000000000000220 .LVL31
     /tmp/cctiRQj0.s:437    .text:0000000000000228 .LVL32
     /tmp/cctiRQj0.s:441    .text:000000000000022c .LVL33
     /tmp/cctiRQj0.s:424    .text:0000000000000214 .LVL30
     /tmp/cctiRQj0.s:402    .text:00000000000001f8 .LVL27
     /tmp/cctiRQj0.s:284    .text:0000000000000160 .LVL17
     /tmp/cctiRQj0.s:304    .text:0000000000000180 .LVL18
     /tmp/cctiRQj0.s:307    .text:0000000000000184 .LVL19
     /tmp/cctiRQj0.s:351    .text:00000000000001bc .LVL23
     /tmp/cctiRQj0.s:355    .text:00000000000001c0 .LVL24
     /tmp/cctiRQj0.s:331    .text:00000000000001a0 .LVL21
     /tmp/cctiRQj0.s:233    .text:0000000000000124 .LVL15
     /tmp/cctiRQj0.s:244    .text:0000000000000138 .LVL16
     /tmp/cctiRQj0.s:138    .text:0000000000000098 .LVL7
     /tmp/cctiRQj0.s:166    .text:00000000000000cc .LVL8
     /tmp/cctiRQj0.s:185    .text:00000000000000e4 .LVL9
     /tmp/cctiRQj0.s:189    .text:00000000000000ec .LVL10
     /tmp/cctiRQj0.s:212    .text:000000000000011c .LVL13
     /tmp/cctiRQj0.s:220    .text:0000000000000120 .LVL14
     /tmp/cctiRQj0.s:46     .text:0000000000000028 .LVL2
     /tmp/cctiRQj0.s:58     .text:000000000000003c .LVL3
     /tmp/cctiRQj0.s:62     .text:0000000000000040 .LVL4
     /tmp/cctiRQj0.s:14     .text:0000000000000000 .LVL0
     /tmp/cctiRQj0.s:552    .debug_info:0000000000000000 .Ldebug_info0
     /tmp/cctiRQj0.s:395    .text:00000000000001f4 .LBB17
     /tmp/cctiRQj0.s:409    .text:0000000000000200 .LBE17
     /tmp/cctiRQj0.s:413    .text:0000000000000200 .LBB20
     /tmp/cctiRQj0.s:421    .text:0000000000000210 .LBE20
     /tmp/cctiRQj0.s:484    .gcc_except_table:0000000000000000 .LLSDA25

UNDEFINED SYMBOLS
_ZN15MemoryAllocator8mem_freeEPv
_ZN15MemoryAllocator9mem_allocEm
_ZN3TCB7runningE
_ZN3TCB8dispatchEv
_ZN9Scheduler3putEP3TCB
__gxx_personality_v0
