GAS LISTING /tmp/cctiRQj0.s 			page 1


   1              		.file	"_sem.cpp"
   2              		.option pic
   3              		.option norelax
   4              		.text
   5              	.Ltext0:
   6              		.align	2
   7              		.globl	_ZN4_semdlEPv
   9              	_ZN4_semdlEPv:
  10              	.LFB17:
  11              		.file 1 "src/_sem.cpp"
   1:src/_sem.cpp  **** //
   2:src/_sem.cpp  **** // Created by os on 5/8/23.
   3:src/_sem.cpp  **** //
   4:src/_sem.cpp  **** 
   5:src/_sem.cpp  **** #include "../h/_sem.hpp"
   6:src/_sem.cpp  **** 
   7:src/_sem.cpp  **** 
   8:src/_sem.cpp  **** 
   9:src/_sem.cpp  **** 
  10:src/_sem.cpp  **** void _sem::operator delete(void *adress) {
  12              		.loc 1 10 42
  13              		.cfi_startproc
  14              	.LVL0:
  15 0000 130101FF 		addi	sp,sp,-16
  16              		.cfi_def_cfa_offset 16
  17 0004 23341100 		sd	ra,8(sp)
  18 0008 23308100 		sd	s0,0(sp)
  19              		.cfi_offset 1, -8
  20              		.cfi_offset 8, -16
  21 000c 13040101 		addi	s0,sp,16
  22              		.cfi_def_cfa 8, 0
  11:src/_sem.cpp  ****     MemoryAllocator::mem_free(adress);
  23              		.loc 1 11 5
  24              		.loc 1 11 30 is_stmt 0
  25 0010 97000000 		call	_ZN15MemoryAllocator8mem_freeEPv@plt
  25      E7800000 
  26              	.LVL1:
  12:src/_sem.cpp  **** }
  27              		.loc 1 12 1
  28 0018 83308100 		ld	ra,8(sp)
  29              		.cfi_restore 1
  30 001c 03340100 		ld	s0,0(sp)
  31              		.cfi_restore 8
  32              		.cfi_def_cfa 2, 16
  33 0020 13010101 		addi	sp,sp,16
  34              		.cfi_def_cfa_offset 0
  35 0024 67800000 		jr	ra
  36              		.cfi_endproc
  37              	.LFE17:
  39              		.align	2
  40              		.globl	_ZN4_semnwEm
  42              	_ZN4_semnwEm:
  43              	.LFB18:
  13:src/_sem.cpp  **** 
  14:src/_sem.cpp  **** 
  15:src/_sem.cpp  **** 
  16:src/_sem.cpp  **** void *_sem::operator new(size_t size) {
GAS LISTING /tmp/cctiRQj0.s 			page 2


  44              		.loc 1 16 39 is_stmt 1
  45              		.cfi_startproc
  46              	.LVL2:
  47 0028 130101FF 		addi	sp,sp,-16
  48              		.cfi_def_cfa_offset 16
  49 002c 23341100 		sd	ra,8(sp)
  50 0030 23308100 		sd	s0,0(sp)
  51              		.cfi_offset 1, -8
  52              		.cfi_offset 8, -16
  53 0034 13040101 		addi	s0,sp,16
  54              		.cfi_def_cfa 8, 0
  17:src/_sem.cpp  **** 
  18:src/_sem.cpp  **** 
  19:src/_sem.cpp  **** 
  20:src/_sem.cpp  ****    size_t block = (size + MEM_BLOCK_SIZE-1)/MEM_BLOCK_SIZE;
  55              		.loc 1 20 4
  56              		.loc 1 20 41 is_stmt 0
  57 0038 1305F503 		addi	a0,a0,63
  58              	.LVL3:
  21:src/_sem.cpp  ****     void* pointer = MemoryAllocator::mem_alloc(block);
  59              		.loc 1 21 5 is_stmt 1
  60              		.loc 1 21 47 is_stmt 0
  61 003c 13556500 		srli	a0,a0,6
  62              	.LVL4:
  63 0040 97000000 		call	_ZN15MemoryAllocator9mem_allocEm@plt
  63      E7800000 
  64              	.LVL5:
  22:src/_sem.cpp  ****     return pointer;
  65              		.loc 1 22 5 is_stmt 1
  23:src/_sem.cpp  **** }
  66              		.loc 1 23 1 is_stmt 0
  67 0048 83308100 		ld	ra,8(sp)
  68              		.cfi_restore 1
  69 004c 03340100 		ld	s0,0(sp)
  70              		.cfi_restore 8
  71              		.cfi_def_cfa 2, 16
  72 0050 13010101 		addi	sp,sp,16
  73              		.cfi_def_cfa_offset 0
  74 0054 67800000 		jr	ra
  75              		.cfi_endproc
  76              	.LFE18:
  78              		.align	2
  79              		.globl	_ZN4_sem10add_threadEP3TCB
  81              	_ZN4_sem10add_threadEP3TCB:
  82              	.LFB20:
  24:src/_sem.cpp  **** 
  25:src/_sem.cpp  **** 
  26:src/_sem.cpp  **** 
  27:src/_sem.cpp  **** 
  28:src/_sem.cpp  **** 
  29:src/_sem.cpp  **** 
  30:src/_sem.cpp  **** int _sem::wait() {
  31:src/_sem.cpp  ****     if (this->finished){return -1;}
  32:src/_sem.cpp  ****     else
  33:src/_sem.cpp  ****     {
  34:src/_sem.cpp  ****         if (--val<0)
  35:src/_sem.cpp  ****         {
GAS LISTING /tmp/cctiRQj0.s 			page 3


  36:src/_sem.cpp  ****             TCB::running->blocked= true;
  37:src/_sem.cpp  ****             add_thread(TCB::running);
  38:src/_sem.cpp  ****             TCB::dispatch();
  39:src/_sem.cpp  ****         }
  40:src/_sem.cpp  ****     }
  41:src/_sem.cpp  ****     if (this->finished){return -1;}
  42:src/_sem.cpp  ****     else return 0;
  43:src/_sem.cpp  **** }
  44:src/_sem.cpp  **** 
  45:src/_sem.cpp  **** void _sem::add_thread(TCB *nit) {
  83              		.loc 1 45 33 is_stmt 1
  84              		.cfi_startproc
  85              	.LVL6:
  86 0058 130101FF 		addi	sp,sp,-16
  87              		.cfi_def_cfa_offset 16
  88 005c 23348100 		sd	s0,8(sp)
  89              		.cfi_offset 8, -8
  90 0060 13040101 		addi	s0,sp,16
  91              		.cfi_def_cfa 8, 0
  46:src/_sem.cpp  **** 
  47:src/_sem.cpp  ****     if (waiting_head== nullptr)
  92              		.loc 1 47 5
  93              		.loc 1 47 9 is_stmt 0
  94 0064 83378500 		ld	a5,8(a0)
  95              		.loc 1 47 5
  96 0068 63800702 		beqz	a5,.L9
  48:src/_sem.cpp  ****     {
  49:src/_sem.cpp  ****         waiting_head=nit;
  50:src/_sem.cpp  ****         tail=nit;
  51:src/_sem.cpp  ****         nit->next= nullptr;
  52:src/_sem.cpp  ****     }
  53:src/_sem.cpp  ****     else
  54:src/_sem.cpp  ****     {
  55:src/_sem.cpp  ****         tail->next=nit;
  97              		.loc 1 55 9 is_stmt 1
  98 006c 83370501 		ld	a5,16(a0)
  99              		.loc 1 55 19 is_stmt 0
 100 0070 23BCB702 		sd	a1,56(a5)
  56:src/_sem.cpp  ****         tail=nit;
 101              		.loc 1 56 9 is_stmt 1
 102              		.loc 1 56 13 is_stmt 0
 103 0074 2338B500 		sd	a1,16(a0)
  57:src/_sem.cpp  ****         nit->next= nullptr;
 104              		.loc 1 57 9 is_stmt 1
 105              		.loc 1 57 18 is_stmt 0
 106 0078 23BC0502 		sd	zero,56(a1)
 107              	.L5:
  58:src/_sem.cpp  **** 
  59:src/_sem.cpp  ****     }
  60:src/_sem.cpp  **** 
  61:src/_sem.cpp  **** }
 108              		.loc 1 61 1
 109 007c 03348100 		ld	s0,8(sp)
 110              		.cfi_remember_state
 111              		.cfi_restore 8
 112              		.cfi_def_cfa 2, 16
 113 0080 13010101 		addi	sp,sp,16
GAS LISTING /tmp/cctiRQj0.s 			page 4


 114              		.cfi_def_cfa_offset 0
 115 0084 67800000 		jr	ra
 116              	.L9:
 117              		.cfi_restore_state
  49:src/_sem.cpp  ****         tail=nit;
 118              		.loc 1 49 9 is_stmt 1
  49:src/_sem.cpp  ****         tail=nit;
 119              		.loc 1 49 21 is_stmt 0
 120 0088 2334B500 		sd	a1,8(a0)
  50:src/_sem.cpp  ****         nit->next= nullptr;
 121              		.loc 1 50 9 is_stmt 1
  50:src/_sem.cpp  ****         nit->next= nullptr;
 122              		.loc 1 50 13 is_stmt 0
 123 008c 2338B500 		sd	a1,16(a0)
  51:src/_sem.cpp  ****     }
 124              		.loc 1 51 9 is_stmt 1
  51:src/_sem.cpp  ****     }
 125              		.loc 1 51 18 is_stmt 0
 126 0090 23BC0502 		sd	zero,56(a1)
 127 0094 6FF09FFE 		j	.L5
 128              		.cfi_endproc
 129              	.LFE20:
 131              		.align	2
 132              		.globl	_ZN4_sem4waitEv
 134              	_ZN4_sem4waitEv:
 135              	.LFB19:
  30:src/_sem.cpp  ****     if (this->finished){return -1;}
 136              		.loc 1 30 18 is_stmt 1
 137              		.cfi_startproc
 138              	.LVL7:
  31:src/_sem.cpp  ****     else
 139              		.loc 1 31 5
  31:src/_sem.cpp  ****     else
 140              		.loc 1 31 15 is_stmt 0
 141 0098 83474500 		lbu	a5,4(a0)
  31:src/_sem.cpp  ****     else
 142              		.loc 1 31 5
 143 009c 63900708 		bnez	a5,.L13
  30:src/_sem.cpp  ****     if (this->finished){return -1;}
 144              		.loc 1 30 18
 145 00a0 130101FE 		addi	sp,sp,-32
 146              		.cfi_def_cfa_offset 32
 147 00a4 233C1100 		sd	ra,24(sp)
 148 00a8 23388100 		sd	s0,16(sp)
 149 00ac 23349100 		sd	s1,8(sp)
 150              		.cfi_offset 1, -8
 151              		.cfi_offset 8, -16
 152              		.cfi_offset 9, -24
 153 00b0 13040102 		addi	s0,sp,32
 154              		.cfi_def_cfa 8, 0
 155 00b4 93040500 		mv	s1,a0
  34:src/_sem.cpp  ****         {
 156              		.loc 1 34 9 is_stmt 1
  34:src/_sem.cpp  ****         {
 157              		.loc 1 34 15 is_stmt 0
 158 00b8 83270500 		lw	a5,0(a0)
  34:src/_sem.cpp  ****         {
GAS LISTING /tmp/cctiRQj0.s 			page 5


 159              		.loc 1 34 13
 160 00bc 9B87F7FF 		addiw	a5,a5,-1
  34:src/_sem.cpp  ****         {
 161              		.loc 1 34 18
 162 00c0 2320F500 		sw	a5,0(a0)
  34:src/_sem.cpp  ****         {
 163              		.loc 1 34 9
 164 00c4 13970702 		slli	a4,a5,32
 165 00c8 63420702 		bltz	a4,.L19
 166              	.LVL8:
 167              	.L12:
  41:src/_sem.cpp  ****     else return 0;
 168              		.loc 1 41 5 is_stmt 1
  41:src/_sem.cpp  ****     else return 0;
 169              		.loc 1 41 15 is_stmt 0
 170 00cc 83C74400 		lbu	a5,4(s1)
  41:src/_sem.cpp  ****     else return 0;
 171              		.loc 1 41 5
 172 00d0 63920704 		bnez	a5,.L20
  42:src/_sem.cpp  **** }
 173              		.loc 1 42 17
 174 00d4 13050000 		li	a0,0
 175              	.L11:
  43:src/_sem.cpp  **** 
 176              		.loc 1 43 1
 177 00d8 83308101 		ld	ra,24(sp)
 178              		.cfi_remember_state
 179              		.cfi_restore 1
 180 00dc 03340101 		ld	s0,16(sp)
 181              		.cfi_restore 8
 182              		.cfi_def_cfa 2, 32
 183 00e0 83348100 		ld	s1,8(sp)
 184              		.cfi_restore 9
 185              	.LVL9:
 186 00e4 13010102 		addi	sp,sp,32
 187              		.cfi_def_cfa_offset 0
 188 00e8 67800000 		jr	ra
 189              	.LVL10:
 190              	.L19:
 191              		.cfi_restore_state
  36:src/_sem.cpp  ****             add_thread(TCB::running);
 192              		.loc 1 36 13 is_stmt 1
  36:src/_sem.cpp  ****             add_thread(TCB::running);
 193              		.loc 1 36 27 is_stmt 0
 194 00ec 97070000 		la	a5,_ZN3TCB7runningE
 194      83B70700 
 195 00f4 83B50700 		ld	a1,0(a5)
  36:src/_sem.cpp  ****             add_thread(TCB::running);
 196              		.loc 1 36 34
 197 00f8 93071000 		li	a5,1
 198 00fc A388F502 		sb	a5,49(a1)
  37:src/_sem.cpp  ****             TCB::dispatch();
 199              		.loc 1 37 13 is_stmt 1
  37:src/_sem.cpp  ****             TCB::dispatch();
 200              		.loc 1 37 23 is_stmt 0
 201 0100 97000000 		call	_ZN4_sem10add_threadEP3TCB
 201      E7800000 
GAS LISTING /tmp/cctiRQj0.s 			page 6


 202              	.LVL11:
  38:src/_sem.cpp  ****         }
 203              		.loc 1 38 13 is_stmt 1
  38:src/_sem.cpp  ****         }
 204              		.loc 1 38 26 is_stmt 0
 205 0108 97000000 		call	_ZN3TCB8dispatchEv@plt
 205      E7800000 
 206              	.LVL12:
 207 0110 6FF0DFFB 		j	.L12
 208              	.L20:
  41:src/_sem.cpp  ****     else return 0;
 209              		.loc 1 41 33
 210 0114 1305F0FF 		li	a0,-1
 211 0118 6FF01FFC 		j	.L11
 212              	.LVL13:
 213              	.L13:
 214              		.cfi_def_cfa_register 2
 215              		.cfi_restore 1
 216              		.cfi_restore 8
 217              		.cfi_restore 9
  31:src/_sem.cpp  ****     else
 218              		.loc 1 31 33
 219 011c 1305F0FF 		li	a0,-1
 220              	.LVL14:
  43:src/_sem.cpp  **** 
 221              		.loc 1 43 1
 222 0120 67800000 		ret
 223              		.cfi_endproc
 224              	.LFE19:
 226              		.align	2
 227              		.globl	_ZN4_sem14release_threadEv
 229              	_ZN4_sem14release_threadEv:
 230              	.LFB21:
  62:src/_sem.cpp  **** 
  63:src/_sem.cpp  **** TCB *_sem::release_thread() {
 231              		.loc 1 63 29 is_stmt 1
 232              		.cfi_startproc
 233              	.LVL15:
 234 0124 130101FF 		addi	sp,sp,-16
 235              		.cfi_def_cfa_offset 16
 236 0128 23348100 		sd	s0,8(sp)
 237              		.cfi_offset 8, -8
 238 012c 13040101 		addi	s0,sp,16
 239              		.cfi_def_cfa 8, 0
 240 0130 93070500 		mv	a5,a0
  64:src/_sem.cpp  ****     TCB* curr = waiting_head;
 241              		.loc 1 64 5
 242              		.loc 1 64 10 is_stmt 0
 243 0134 03358500 		ld	a0,8(a0)
 244              	.LVL16:
  65:src/_sem.cpp  ****     if (curr== nullptr)return nullptr;
 245              		.loc 1 65 5 is_stmt 1
 246 0138 630A0500 		beqz	a0,.L21
  66:src/_sem.cpp  ****     waiting_head = waiting_head->next;
 247              		.loc 1 66 5
 248              		.loc 1 66 34 is_stmt 0
 249 013c 03378503 		ld	a4,56(a0)
GAS LISTING /tmp/cctiRQj0.s 			page 7


 250              		.loc 1 66 18
 251 0140 23B4E700 		sd	a4,8(a5)
  67:src/_sem.cpp  ****     if (waiting_head== nullptr)tail= nullptr;
 252              		.loc 1 67 5 is_stmt 1
 253 0144 630A0700 		beqz	a4,.L25
 254              	.L23:
  68:src/_sem.cpp  ****     curr->next= nullptr;
 255              		.loc 1 68 5
 256              		.loc 1 68 15 is_stmt 0
 257 0148 233C0502 		sd	zero,56(a0)
  69:src/_sem.cpp  ****     return curr;
 258              		.loc 1 69 5 is_stmt 1
 259              	.L21:
  70:src/_sem.cpp  **** }
 260              		.loc 1 70 1 is_stmt 0
 261 014c 03348100 		ld	s0,8(sp)
 262              		.cfi_remember_state
 263              		.cfi_restore 8
 264              		.cfi_def_cfa 2, 16
 265 0150 13010101 		addi	sp,sp,16
 266              		.cfi_def_cfa_offset 0
 267 0154 67800000 		jr	ra
 268              	.L25:
 269              		.cfi_restore_state
  67:src/_sem.cpp  ****     curr->next= nullptr;
 270              		.loc 1 67 32 is_stmt 1 discriminator 1
  67:src/_sem.cpp  ****     curr->next= nullptr;
 271              		.loc 1 67 36 is_stmt 0 discriminator 1
 272 0158 23B80700 		sd	zero,16(a5)
 273 015c 6FF0DFFE 		j	.L23
 274              		.cfi_endproc
 275              	.LFE21:
 277              		.align	2
 278              		.globl	_ZN4_sem6signalEv
 280              	_ZN4_sem6signalEv:
 281              	.LFB22:
  71:src/_sem.cpp  **** 
  72:src/_sem.cpp  **** int _sem::signal() {
 282              		.loc 1 72 20 is_stmt 1
 283              		.cfi_startproc
 284              	.LVL17:
  73:src/_sem.cpp  ****     if (this->finished)return -1;
 285              		.loc 1 73 5
 286              		.loc 1 73 15 is_stmt 0
 287 0160 83474500 		lbu	a5,4(a0)
 288              		.loc 1 73 5
 289 0164 639C0704 		bnez	a5,.L28
  74:src/_sem.cpp  ****     if (++val<=0)
 290              		.loc 1 74 5 is_stmt 1
 291              	.LBB12:
 292              		.loc 1 74 11 is_stmt 0
 293 0168 83270500 		lw	a5,0(a0)
 294              		.loc 1 74 9
 295 016c 9B871700 		addiw	a5,a5,1
 296 0170 1B870700 		sext.w	a4,a5
 297              		.loc 1 74 14
 298 0174 2320F500 		sw	a5,0(a0)
GAS LISTING /tmp/cctiRQj0.s 			page 8


 299              		.loc 1 74 5
 300 0178 6356E000 		blez	a4,.L34
 301              	.LBE12:
  75:src/_sem.cpp  ****     {
  76:src/_sem.cpp  ****         TCB* curr = release_thread();
  77:src/_sem.cpp  ****         curr->setBlocked(false);
  78:src/_sem.cpp  ****         Scheduler::put(curr);
  79:src/_sem.cpp  ****     }
  80:src/_sem.cpp  ****     return 0;
 302              		.loc 1 80 12
 303 017c 13050000 		li	a0,0
 304              	.LVL18:
  81:src/_sem.cpp  **** }
 305              		.loc 1 81 1
 306 0180 67800000 		ret
 307              	.LVL19:
 308              	.L34:
  72:src/_sem.cpp  ****     if (this->finished)return -1;
 309              		.loc 1 72 20
 310 0184 130101FF 		addi	sp,sp,-16
 311              		.cfi_def_cfa_offset 16
 312 0188 23341100 		sd	ra,8(sp)
 313 018c 23308100 		sd	s0,0(sp)
 314              		.cfi_offset 1, -8
 315              		.cfi_offset 8, -16
 316 0190 13040101 		addi	s0,sp,16
 317              		.cfi_def_cfa 8, 0
 318              	.LBB16:
 319              	.LBB13:
  76:src/_sem.cpp  ****         curr->setBlocked(false);
 320              		.loc 1 76 9 is_stmt 1
  76:src/_sem.cpp  ****         curr->setBlocked(false);
 321              		.loc 1 76 35 is_stmt 0
 322 0194 97000000 		call	_ZN4_sem14release_threadEv
 322      E7800000 
 323              	.LVL20:
  77:src/_sem.cpp  ****         Scheduler::put(curr);
 324              		.loc 1 77 9 is_stmt 1
 325              	.LBB14:
 326              	.LBB15:
 327              		.file 2 "src/../h/TCB.hpp"
   1:src/../h/TCB.hpp **** //
   2:src/../h/TCB.hpp **** // Created by os on 4/28/23.
   3:src/../h/TCB.hpp **** //
   4:src/../h/TCB.hpp **** 
   5:src/../h/TCB.hpp **** 
   6:src/../h/TCB.hpp **** #ifndef OS1_VEZBE07_RISCV_CONTEXT_SWITCH_2_INTERRUPT_TCB_HPP
   7:src/../h/TCB.hpp **** #define OS1_VEZBE07_RISCV_CONTEXT_SWITCH_2_INTERRUPT_TCB_HPP
   8:src/../h/TCB.hpp **** 
   9:src/../h/TCB.hpp **** #include "../lib/hw.h"
  10:src/../h/TCB.hpp **** 
  11:src/../h/TCB.hpp **** #include "../h/MemoryAllocator.hpp"
  12:src/../h/TCB.hpp **** #include "../h/syscall_c.h"
  13:src/../h/TCB.hpp **** 
  14:src/../h/TCB.hpp **** 
  15:src/../h/TCB.hpp **** 
  16:src/../h/TCB.hpp **** // Thread Control Block
GAS LISTING /tmp/cctiRQj0.s 			page 9


  17:src/../h/TCB.hpp **** class TCB
  18:src/../h/TCB.hpp **** {
  19:src/../h/TCB.hpp **** public:
  20:src/../h/TCB.hpp **** 
  21:src/../h/TCB.hpp **** 
  22:src/../h/TCB.hpp ****     ~TCB() {
  23:src/../h/TCB.hpp ****         delete[] stack;
  24:src/../h/TCB.hpp ****         }
  25:src/../h/TCB.hpp **** 
  26:src/../h/TCB.hpp ****     bool isFinished() const { return finished; }
  27:src/../h/TCB.hpp **** 
  28:src/../h/TCB.hpp ****     bool isBlocked() const { return blocked; }
  29:src/../h/TCB.hpp **** 
  30:src/../h/TCB.hpp ****     bool isStarted() const { return started; }
  31:src/../h/TCB.hpp **** 
  32:src/../h/TCB.hpp ****     bool isSystemThread() { return system_thread;}
  33:src/../h/TCB.hpp **** 
  34:src/../h/TCB.hpp ****     void setFinished(bool value) { finished = value; }
  35:src/../h/TCB.hpp **** 
  36:src/../h/TCB.hpp ****     void setBlocked (bool value) { blocked=value; }
 328              		.loc 2 36 36
 329              		.loc 2 36 43 is_stmt 0
 330 019c A3080502 		sb	zero,49(a0)
 331              	.LVL21:
 332              	.LBE15:
 333              	.LBE14:
  78:src/_sem.cpp  ****     }
 334              		.loc 1 78 9 is_stmt 1
  78:src/_sem.cpp  ****     }
 335              		.loc 1 78 23 is_stmt 0
 336 01a0 97000000 		call	_ZN9Scheduler3putEP3TCB@plt
 336      E7800000 
 337              	.LVL22:
 338              	.LBE13:
 339              	.LBE16:
  80:src/_sem.cpp  **** }
 340              		.loc 1 80 12
 341 01a8 13050000 		li	a0,0
 342              		.loc 1 81 1
 343 01ac 83308100 		ld	ra,8(sp)
 344              		.cfi_restore 1
 345 01b0 03340100 		ld	s0,0(sp)
 346              		.cfi_restore 8
 347              		.cfi_def_cfa 2, 16
 348 01b4 13010101 		addi	sp,sp,16
 349              		.cfi_def_cfa_offset 0
 350 01b8 67800000 		jr	ra
 351              	.LVL23:
 352              	.L28:
  73:src/_sem.cpp  ****     if (++val<=0)
 353              		.loc 1 73 32
 354 01bc 1305F0FF 		li	a0,-1
 355              	.LVL24:
 356 01c0 67800000 		ret
 357              		.cfi_endproc
 358              	.LFE22:
 360              		.align	2
GAS LISTING /tmp/cctiRQj0.s 			page 10


 361              		.globl	_ZN4_sem5closeEv
 363              	_ZN4_sem5closeEv:
 364              	.LFB23:
  82:src/_sem.cpp  **** 
  83:src/_sem.cpp  **** int _sem::close() {
 365              		.loc 1 83 19 is_stmt 1
 366              		.cfi_startproc
 367              	.LVL25:
  84:src/_sem.cpp  ****     if (finished)return -1;
 368              		.loc 1 84 5
 369              		.loc 1 84 9 is_stmt 0
 370 01c4 83474500 		lbu	a5,4(a0)
 371              		.loc 1 84 5
 372 01c8 63900706 		bnez	a5,.L38
  83:src/_sem.cpp  ****     if (finished)return -1;
 373              		.loc 1 83 19
 374 01cc 130101FE 		addi	sp,sp,-32
 375              		.cfi_def_cfa_offset 32
 376 01d0 233C1100 		sd	ra,24(sp)
 377 01d4 23388100 		sd	s0,16(sp)
 378 01d8 23349100 		sd	s1,8(sp)
 379              		.cfi_offset 1, -8
 380              		.cfi_offset 8, -16
 381              		.cfi_offset 9, -24
 382 01dc 13040102 		addi	s0,sp,32
 383              		.cfi_def_cfa 8, 0
 384 01e0 93040500 		mv	s1,a0
  85:src/_sem.cpp  ****     finished=true;
 385              		.loc 1 85 5 is_stmt 1
 386              		.loc 1 85 13 is_stmt 0
 387 01e4 93071000 		li	a5,1
 388 01e8 2302F500 		sb	a5,4(a0)
  86:src/_sem.cpp  ****     val = 0;
 389              		.loc 1 86 5 is_stmt 1
 390              		.loc 1 86 9 is_stmt 0
 391 01ec 23200500 		sw	zero,0(a0)
 392 01f0 6F000001 		j	.L37
 393              	.LVL26:
 394              	.L44:
 395              	.LBB17:
  87:src/_sem.cpp  ****     while (true)
  88:src/_sem.cpp  ****     {
  89:src/_sem.cpp  ****         TCB* curr = release_thread();
  90:src/_sem.cpp  ****         if (curr== nullptr)break;
  91:src/_sem.cpp  ****         curr->setBlocked(false);
 396              		.loc 1 91 9 is_stmt 1
 397              	.LBB18:
 398              	.LBB19:
 399              		.loc 2 36 36
 400              		.loc 2 36 43 is_stmt 0
 401 01f4 A3080502 		sb	zero,49(a0)
 402              	.LVL27:
 403              	.LBE19:
 404              	.LBE18:
  92:src/_sem.cpp  ****         Scheduler::put(curr);
 405              		.loc 1 92 9 is_stmt 1
 406              		.loc 1 92 23 is_stmt 0
GAS LISTING /tmp/cctiRQj0.s 			page 11


 407 01f8 97000000 		call	_ZN9Scheduler3putEP3TCB@plt
 407      E7800000 
 408              	.LVL28:
 409              	.LBE17:
  87:src/_sem.cpp  ****     while (true)
 410              		.loc 1 87 5 is_stmt 1
 411              	.L37:
  87:src/_sem.cpp  ****     while (true)
 412              		.loc 1 87 5
 413              	.LBB20:
  89:src/_sem.cpp  ****         if (curr== nullptr)break;
 414              		.loc 1 89 9
  89:src/_sem.cpp  ****         if (curr== nullptr)break;
 415              		.loc 1 89 35 is_stmt 0
 416 0200 13850400 		mv	a0,s1
 417 0204 97000000 		call	_ZN4_sem14release_threadEv
 417      E7800000 
 418              	.LVL29:
  90:src/_sem.cpp  ****         curr->setBlocked(false);
 419              		.loc 1 90 9 is_stmt 1
 420 020c E31405FE 		bnez	a0,.L44
 421              	.LBE20:
  93:src/_sem.cpp  ****     }
  94:src/_sem.cpp  ****     return 0;
 422              		.loc 1 94 12 is_stmt 0
 423 0210 13050000 		li	a0,0
 424              	.LVL30:
  95:src/_sem.cpp  **** }
 425              		.loc 1 95 1
 426 0214 83308101 		ld	ra,24(sp)
 427              		.cfi_restore 1
 428 0218 03340101 		ld	s0,16(sp)
 429              		.cfi_restore 8
 430              		.cfi_def_cfa 2, 32
 431 021c 83348100 		ld	s1,8(sp)
 432              		.cfi_restore 9
 433              	.LVL31:
 434 0220 13010102 		addi	sp,sp,32
 435              		.cfi_def_cfa_offset 0
 436 0224 67800000 		jr	ra
 437              	.LVL32:
 438              	.L38:
  84:src/_sem.cpp  ****     finished=true;
 439              		.loc 1 84 26
 440 0228 1305F0FF 		li	a0,-1
 441              	.LVL33:
 442              		.loc 1 95 1
 443 022c 67800000 		ret
 444              		.cfi_endproc
 445              	.LFE23:
 447              		.align	2
 448              		.globl	_ZN4_semD2Ev
 450              	_ZN4_semD2Ev:
 451              	.LFB25:
  96:src/_sem.cpp  **** 
  97:src/_sem.cpp  **** _sem::~_sem() {
 452              		.loc 1 97 1 is_stmt 1
GAS LISTING /tmp/cctiRQj0.s 			page 12


 453              		.cfi_startproc
 454              		.cfi_personality 0x9b,DW.ref.__gxx_personality_v0
 455              		.cfi_lsda 0x1b,.LLSDA25
 456              	.LVL34:
 457 0230 130101FF 		addi	sp,sp,-16
 458              		.cfi_def_cfa_offset 16
 459 0234 23341100 		sd	ra,8(sp)
 460 0238 23308100 		sd	s0,0(sp)
 461              		.cfi_offset 1, -8
 462              		.cfi_offset 8, -16
 463 023c 13040101 		addi	s0,sp,16
 464              		.cfi_def_cfa 8, 0
 465              	.LBB21:
  98:src/_sem.cpp  ****     this->close();
 466              		.loc 1 98 5
 467              		.loc 1 98 16 is_stmt 0
 468 0240 97000000 		call	_ZN4_sem5closeEv
 468      E7800000 
 469              	.LVL35:
 470              	.LBE21:
  99:src/_sem.cpp  **** }
 471              		.loc 1 99 1
 472 0248 83308100 		ld	ra,8(sp)
 473              		.cfi_restore 1
 474 024c 03340100 		ld	s0,0(sp)
 475              		.cfi_restore 8
 476              		.cfi_def_cfa 2, 16
 477 0250 13010101 		addi	sp,sp,16
 478              		.cfi_def_cfa_offset 0
 479 0254 67800000 		jr	ra
 480              		.cfi_endproc
 481              	.LFE25:
 482              		.globl	__gxx_personality_v0
 483              		.section	.gcc_except_table,"a",@progbits
 484              	.LLSDA25:
 485 0000 FF       		.byte	0xff
 486 0001 FF       		.byte	0xff
 487 0002 03       		.byte	0x3
 488 0003 00       		.byte	0
 489              		.text
 491              		.globl	_ZN4_semD1Ev
 492              		.set	_ZN4_semD1Ev,_ZN4_semD2Ev
 493              		.align	2
 494              		.globl	_ZN4_sem15createSemaphoreEj
 496              	_ZN4_sem15createSemaphoreEj:
 497              	.LFB27:
 100:src/_sem.cpp  **** 
 101:src/_sem.cpp  **** 
 102:src/_sem.cpp  **** _sem* _sem::createSemaphore(unsigned init) {
 498              		.loc 1 102 44 is_stmt 1
 499              		.cfi_startproc
 500              	.LVL36:
 501 0258 130101FE 		addi	sp,sp,-32
 502              		.cfi_def_cfa_offset 32
 503 025c 233C1100 		sd	ra,24(sp)
 504 0260 23388100 		sd	s0,16(sp)
 505 0264 23349100 		sd	s1,8(sp)
GAS LISTING /tmp/cctiRQj0.s 			page 13


 506              		.cfi_offset 1, -8
 507              		.cfi_offset 8, -16
 508              		.cfi_offset 9, -24
 509 0268 13040102 		addi	s0,sp,32
 510              		.cfi_def_cfa 8, 0
 511 026c 93040500 		mv	s1,a0
 103:src/_sem.cpp  ****     _sem* curr = new _sem(init);
 512              		.loc 1 103 5
 513              		.loc 1 103 31 is_stmt 0
 514 0270 13058001 		li	a0,24
 515              	.LVL37:
 516 0274 97000000 		call	_ZN4_semnwEm
 516      E7800000 
 517              	.LVL38:
 518              	.LBB22:
 519              	.LBB23:
 520              		.file 3 "src/../h/_sem.hpp"
   1:src/../h/_sem.hpp **** //
   2:src/../h/_sem.hpp **** // Created by os on 5/8/23.
   3:src/../h/_sem.hpp **** //
   4:src/../h/_sem.hpp **** 
   5:src/../h/_sem.hpp **** #ifndef PROJECT_BASE_V1_1__SEM_HPP
   6:src/../h/_sem.hpp **** #define PROJECT_BASE_V1_1__SEM_HPP
   7:src/../h/_sem.hpp **** 
   8:src/../h/_sem.hpp **** #include "TCB.hpp"
   9:src/../h/_sem.hpp **** #include "Scheduler.hpp"
  10:src/../h/_sem.hpp **** 
  11:src/../h/_sem.hpp **** class _sem
  12:src/../h/_sem.hpp **** {
  13:src/../h/_sem.hpp **** private:
  14:src/../h/_sem.hpp ****     int val;
  15:src/../h/_sem.hpp ****     bool finished;
  16:src/../h/_sem.hpp ****     TCB* waiting_head;
  17:src/../h/_sem.hpp ****     TCB* tail;
  18:src/../h/_sem.hpp **** 
  19:src/../h/_sem.hpp **** 
  20:src/../h/_sem.hpp ****     _sem(unsigned init):finished(false),waiting_head(nullptr),tail(nullptr){};
 521              		.loc 3 20 75
 522 027c 23020500 		sb	zero,4(a0)
 523 0280 23340500 		sd	zero,8(a0)
 524 0284 23380500 		sd	zero,16(a0)
 525              	.LVL39:
 526              	.LBE23:
 527              	.LBE22:
 104:src/_sem.cpp  ****     curr->val=(int)init;
 528              		.loc 1 104 5 is_stmt 1
 529              		.loc 1 104 14 is_stmt 0
 530 0288 23209500 		sw	s1,0(a0)
 105:src/_sem.cpp  ****     return curr;
 531              		.loc 1 105 5 is_stmt 1
 106:src/_sem.cpp  **** }
 532              		.loc 1 106 1 is_stmt 0
 533 028c 83308101 		ld	ra,24(sp)
 534              		.cfi_restore 1
 535 0290 03340101 		ld	s0,16(sp)
 536              		.cfi_restore 8
 537              		.cfi_def_cfa 2, 32
GAS LISTING /tmp/cctiRQj0.s 			page 14


 538 0294 83348100 		ld	s1,8(sp)
 539              		.cfi_restore 9
 540 0298 13010102 		addi	sp,sp,32
 541              		.cfi_def_cfa_offset 0
 542 029c 67800000 		jr	ra
 543              		.cfi_endproc
 544              	.LFE27:
 546              	.Letext0:
 547              		.file 4 "src/../h/../lib/hw.h"
 548              		.file 5 "src/../h/../h/MemoryAllocator.hpp"
 549              		.file 6 "src/../h/../h/syscall_c.h"
 550              		.file 7 "src/../h/Scheduler.hpp"
 3599              		.align	3
 3602              	DW.ref.__gxx_personality_v0:
 3603 0000 00000000 		.dword	__gxx_personality_v0
 3603      00000000 
 3604              		.ident	"GCC: (Ubuntu 9.4.0-1ubuntu1~20.04) 9.4.0"
 3605              		.section	.note.GNU-stack,"",@progbits
GAS LISTING /tmp/cctiRQj0.s 			page 15

