GAS LISTING /tmp/ccIPYeEL.s 			page 1


   1              		.file	"main.cpp"
   2              		.option pic
   3              		.option norelax
   4              		.text
   5              	.Ltext0:
   6              		.align	2
   7              		.globl	_Z13idle_functionPv
   9              	_Z13idle_functionPv:
  10              	.LFB39:
  11              		.file 1 "src/main.cpp"
   1:src/main.cpp  **** 
   2:src/main.cpp  **** #include "../lib/hw.h"
   3:src/main.cpp  **** #include "../h/riscv.hpp"
   4:src/main.cpp  **** 
   5:src/main.cpp  **** 
   6:src/main.cpp  **** 
   7:src/main.cpp  **** 
   8:src/main.cpp  **** extern "C" void supervisorTrap();
   9:src/main.cpp  **** 
  10:src/main.cpp  **** extern  void userMain();
  11:src/main.cpp  **** extern  void probasleep();
  12:src/main.cpp  **** 
  13:src/main.cpp  **** 
  14:src/main.cpp  **** void idle_function(void* arg)
  15:src/main.cpp  **** {
  12              		.loc 1 15 1
  13              		.cfi_startproc
  14              	.LVL0:
  15 0000 130101FF 		addi	sp,sp,-16
  16              		.cfi_def_cfa_offset 16
  17 0004 23341100 		sd	ra,8(sp)
  18 0008 23308100 		sd	s0,0(sp)
  19              		.cfi_offset 1, -8
  20              		.cfi_offset 8, -16
  21 000c 13040101 		addi	s0,sp,16
  22              		.cfi_def_cfa 8, 0
  23              	.LVL1:
  24              	.L2:
  16:src/main.cpp  ****     while(true)
  25              		.loc 1 16 5 discriminator 1
  17:src/main.cpp  ****     {
  18:src/main.cpp  ****         thread_dispatch();
  26              		.loc 1 18 9 discriminator 1
  27              		.loc 1 18 24 is_stmt 0 discriminator 1
  28 0010 97000000 		call	_Z15thread_dispatchv@plt
  28      E7800000 
  29              	.LVL2:
  16:src/main.cpp  ****     while(true)
  30              		.loc 1 16 5 is_stmt 1 discriminator 1
  31 0018 6FF09FFF 		j	.L2
  32              		.cfi_endproc
  33              	.LFE39:
  35              		.align	2
  36              		.globl	_Z12user_wrapperPv
  38              	_Z12user_wrapperPv:
  39              	.LFB40:
  19:src/main.cpp  ****     }
GAS LISTING /tmp/ccIPYeEL.s 			page 2


  20:src/main.cpp  **** }
  21:src/main.cpp  **** 
  22:src/main.cpp  **** 
  23:src/main.cpp  **** void user_wrapper(void* arg)
  24:src/main.cpp  **** {
  40              		.loc 1 24 1
  41              		.cfi_startproc
  42              	.LVL3:
  43 001c 130101FF 		addi	sp,sp,-16
  44              		.cfi_def_cfa_offset 16
  45 0020 23341100 		sd	ra,8(sp)
  46 0024 23308100 		sd	s0,0(sp)
  47              		.cfi_offset 1, -8
  48              		.cfi_offset 8, -16
  49 0028 13040101 		addi	s0,sp,16
  50              		.cfi_def_cfa 8, 0
  25:src/main.cpp  ****   userMain();
  51              		.loc 1 25 3
  52              		.loc 1 25 11 is_stmt 0
  53 002c 97000000 		call	_Z8userMainv@plt
  53      E7800000 
  54              	.LVL4:
  26:src/main.cpp  ****   //probasleep();
  27:src/main.cpp  **** }
  55              		.loc 1 27 1
  56 0034 83308100 		ld	ra,8(sp)
  57              		.cfi_restore 1
  58 0038 03340100 		ld	s0,0(sp)
  59              		.cfi_restore 8
  60              		.cfi_def_cfa 2, 16
  61 003c 13010101 		addi	sp,sp,16
  62              		.cfi_def_cfa_offset 0
  63 0040 67800000 		jr	ra
  64              		.cfi_endproc
  65              	.LFE40:
  67              		.align	2
  68              		.globl	_Z5ispisPv
  70              	_Z5ispisPv:
  71              	.LFB41:
  28:src/main.cpp  **** 
  29:src/main.cpp  **** 
  30:src/main.cpp  **** 
  31:src/main.cpp  **** void ispis(void* arg) {
  72              		.loc 1 31 23 is_stmt 1
  73              		.cfi_startproc
  74              	.LVL5:
  75 0044 130101FD 		addi	sp,sp,-48
  76              		.cfi_def_cfa_offset 48
  77 0048 23341102 		sd	ra,40(sp)
  78 004c 23308102 		sd	s0,32(sp)
  79 0050 233C9100 		sd	s1,24(sp)
  80              		.cfi_offset 1, -8
  81              		.cfi_offset 8, -16
  82              		.cfi_offset 9, -24
  83 0054 13040103 		addi	s0,sp,48
  84              		.cfi_def_cfa 8, 0
  85              	.LVL6:
GAS LISTING /tmp/ccIPYeEL.s 			page 3


  86              	.L7:
  32:src/main.cpp  ****     while (true) {
  87              		.loc 1 32 5
  88              	.LBB8:
  33:src/main.cpp  ****                 // Uzimanje vrednosti status registra
  34:src/main.cpp  ****                 char volatile status = *((char *) CONSOLE_STATUS);
  89              		.loc 1 34 17
  90              		.loc 1 34 40 is_stmt 0
  91 0058 97070000 		la	a5,CONSOLE_STATUS
  91      83B70700 
  92 0060 83B40700 		ld	s1,0(a5)
  93 0064 83C70400 		lbu	a5,0(s1)
  94              		.loc 1 34 31
  95 0068 230FF4FC 		sb	a5,-34(s0)
  96              	.L8:
  35:src/main.cpp  ****                 while (status & CONSOLE_TX_STATUS_BIT) {
  97              		.loc 1 35 17 is_stmt 1
  98              		.loc 1 35 33
  99              		.loc 1 35 24 is_stmt 0
 100 006c 8347E4FD 		lbu	a5,-34(s0)
 101 0070 93F7F70F 		andi	a5,a5,0xff
 102              		.loc 1 35 33
 103 0074 93F70702 		andi	a5,a5,32
 104 0078 E38007FE 		beqz	a5,.L7
 105              	.LBB9:
  36:src/main.cpp  ****                     // Uzimanje karaktera iz izlaznog bafera
  37:src/main.cpp  ****                     char volatile c = Riscv::output_buffer->get();
 106              		.loc 1 37 21 is_stmt 1
 107              		.loc 1 37 64 is_stmt 0
 108 007c 97070000 		la	a5,_ZN5Riscv13output_bufferE
 108      83B70700 
 109 0084 03B50700 		ld	a0,0(a5)
 110 0088 97000000 		call	_ZN7_Buffer3getEv@plt
 110      E7800000 
 111              	.LVL7:
 112              		.loc 1 37 65
 113 0090 A30FA4FC 		sb	a0,-33(s0)
  38:src/main.cpp  ****                     *((char *) CONSOLE_TX_DATA) = c;
 114              		.loc 1 38 21 is_stmt 1
 115 0094 97070000 		la	a5,CONSOLE_TX_DATA
 115      83B70700 
 116 009c 83B70700 		ld	a5,0(a5)
 117              		.loc 1 38 49 is_stmt 0
 118 00a0 0347F4FD 		lbu	a4,-33(s0)
 119 00a4 2380E700 		sb	a4,0(a5)
  39:src/main.cpp  ****                     status = *((char*)CONSOLE_STATUS);
 120              		.loc 1 39 21 is_stmt 1
 121              		.loc 1 39 30 is_stmt 0
 122 00a8 83C70400 		lbu	a5,0(s1)
 123              		.loc 1 39 28
 124 00ac 230FF4FC 		sb	a5,-34(s0)
 125              	.LBE9:
  35:src/main.cpp  ****                     // Uzimanje karaktera iz izlaznog bafera
 126              		.loc 1 35 17
 127 00b0 6FF0DFFB 		j	.L8
 128              	.LBE8:
 129              		.cfi_endproc
GAS LISTING /tmp/ccIPYeEL.s 			page 4


 130              	.LFE41:
 132              		.align	2
 133              		.globl	main
 135              	main:
 136              	.LFB42:
  40:src/main.cpp  ****                 }
  41:src/main.cpp  ****         }
  42:src/main.cpp  **** 
  43:src/main.cpp  ****     }
  44:src/main.cpp  **** 
  45:src/main.cpp  **** 
  46:src/main.cpp  **** 
  47:src/main.cpp  **** int main()
  48:src/main.cpp  **** {
 137              		.loc 1 48 1 is_stmt 1
 138              		.cfi_startproc
 139              		.cfi_personality 0x9b,DW.ref.__gxx_personality_v0
 140              		.cfi_lsda 0x1b,.LLSDA42
 141 00b4 130101FE 		addi	sp,sp,-32
 142              		.cfi_def_cfa_offset 32
 143 00b8 233C1100 		sd	ra,24(sp)
 144 00bc 23388100 		sd	s0,16(sp)
 145 00c0 23349100 		sd	s1,8(sp)
 146 00c4 23302101 		sd	s2,0(sp)
 147              		.cfi_offset 1, -8
 148              		.cfi_offset 8, -16
 149              		.cfi_offset 9, -24
 150              		.cfi_offset 18, -32
 151 00c8 13040102 		addi	s0,sp,32
 152              		.cfi_def_cfa 8, 0
  49:src/main.cpp  **** 
  50:src/main.cpp  ****   Riscv::input_buffer=new _Buffer();
 153              		.loc 1 50 3
 154              		.loc 1 50 35 is_stmt 0
 155 00cc 13058012 		li	a0,296
 156              	.LEHB0:
 157 00d0 97000000 		call	_ZN7_BuffernwEm@plt
 157      E7800000 
 158              	.LVL8:
 159              	.LEHE0:
 160 00d8 93040500 		mv	s1,a0
 161              	.LEHB1:
 162 00dc 97000000 		call	_ZN7_BufferC1Ev@plt
 162      E7800000 
 163              	.LVL9:
 164              	.LEHE1:
 165              		.loc 1 50 22 discriminator 2
 166 00e4 97070000 		la	a5,_ZN5Riscv12input_bufferE
 166      83B70700 
 167 00ec 23B09700 		sd	s1,0(a5)
  51:src/main.cpp  ****   Riscv::output_buffer=new _Buffer();
 168              		.loc 1 51 3 is_stmt 1 discriminator 2
 169              		.loc 1 51 36 is_stmt 0 discriminator 2
 170 00f0 13058012 		li	a0,296
 171              	.LEHB2:
 172 00f4 97000000 		call	_ZN7_BuffernwEm@plt
 172      E7800000 
GAS LISTING /tmp/ccIPYeEL.s 			page 5


 173              	.LVL10:
 174              	.LEHE2:
 175 00fc 93040500 		mv	s1,a0
 176              	.LEHB3:
 177 0100 97000000 		call	_ZN7_BufferC1Ev@plt
 177      E7800000 
 178              	.LVL11:
 179              	.LEHE3:
 180              		.loc 1 51 23
 181 0108 97070000 		la	a5,_ZN5Riscv13output_bufferE
 181      83B70700 
 182 0110 23B09700 		sd	s1,0(a5)
  52:src/main.cpp  **** 
  53:src/main.cpp  ****     Riscv::w_stvec((uint64) &supervisorTrap);
 183              		.loc 1 53 5 is_stmt 1
 184              		.loc 1 53 19 is_stmt 0
 185 0114 97070000 		la	a5,supervisorTrap
 185      83B70700 
 186              	.LVL12:
 187              	.LBB10:
 188              	.LBB11:
 189              		.file 2 "src/../h/riscv.hpp"
   1:src/../h/riscv.hpp **** //
   2:src/../h/riscv.hpp **** // Created by os on 4/17/23.
   3:src/../h/riscv.hpp **** //
   4:src/../h/riscv.hpp **** 
   5:src/../h/riscv.hpp **** #ifndef PROJECT_BASE_V1_1_RISCV_HPP
   6:src/../h/riscv.hpp **** #define PROJECT_BASE_V1_1_RISCV_HPP
   7:src/../h/riscv.hpp **** 
   8:src/../h/riscv.hpp **** #include "../lib/hw.h"
   9:src/../h/riscv.hpp **** #include "../h/MemoryAllocator.hpp"
  10:src/../h/riscv.hpp **** #include "../h/TCB.hpp"
  11:src/../h/riscv.hpp **** #include "../h/_sem.hpp"
  12:src/../h/riscv.hpp **** #include "../h/sleeping_list.hpp"
  13:src/../h/riscv.hpp **** #include "../h/_Buffer.hpp"
  14:src/../h/riscv.hpp **** 
  15:src/../h/riscv.hpp **** class Riscv
  16:src/../h/riscv.hpp **** {
  17:src/../h/riscv.hpp **** public:
  18:src/../h/riscv.hpp **** 
  19:src/../h/riscv.hpp **** 
  20:src/../h/riscv.hpp ****      //pop sstatus.spp and sstatus.spie bits (has to be a non-inline function)
  21:src/../h/riscv.hpp ****    static void popSppSpie();
  22:src/../h/riscv.hpp **** 
  23:src/../h/riscv.hpp ****     static void setThreadMode();
  24:src/../h/riscv.hpp **** 
  25:src/../h/riscv.hpp **** 
  26:src/../h/riscv.hpp ****     // read register scause
  27:src/../h/riscv.hpp ****     static uint64 r_scause();
  28:src/../h/riscv.hpp **** 
  29:src/../h/riscv.hpp ****     // write register scause
  30:src/../h/riscv.hpp ****     static void w_scause(uint64 scause);
  31:src/../h/riscv.hpp **** 
  32:src/../h/riscv.hpp ****     // read register sepc
  33:src/../h/riscv.hpp ****     static uint64 r_sepc();
  34:src/../h/riscv.hpp **** 
  35:src/../h/riscv.hpp ****     // write register sepc
GAS LISTING /tmp/ccIPYeEL.s 			page 6


  36:src/../h/riscv.hpp ****     static void w_sepc(uint64 sepc);
  37:src/../h/riscv.hpp **** 
  38:src/../h/riscv.hpp ****     // write register a0
  39:src/../h/riscv.hpp ****     static void w_a0(uint64 sepc);
  40:src/../h/riscv.hpp **** 
  41:src/../h/riscv.hpp ****     // read register stvec
  42:src/../h/riscv.hpp ****     static uint64 r_stvec();
  43:src/../h/riscv.hpp **** 
  44:src/../h/riscv.hpp ****     // write register stvec
  45:src/../h/riscv.hpp ****     static void w_stvec(uint64 stvec);
  46:src/../h/riscv.hpp **** 
  47:src/../h/riscv.hpp ****     // read register stval
  48:src/../h/riscv.hpp ****     static uint64 r_stval();
  49:src/../h/riscv.hpp **** 
  50:src/../h/riscv.hpp ****     // write register stval
  51:src/../h/riscv.hpp ****     static void w_stval(uint64 stval);
  52:src/../h/riscv.hpp **** 
  53:src/../h/riscv.hpp ****     enum BitMaskSip
  54:src/../h/riscv.hpp ****     {
  55:src/../h/riscv.hpp ****         SIP_SSIP = (1 << 1),
  56:src/../h/riscv.hpp ****         SIP_STIP = (1 << 5),
  57:src/../h/riscv.hpp ****         SIP_SEIP = (1 << 9),
  58:src/../h/riscv.hpp ****     };
  59:src/../h/riscv.hpp **** 
  60:src/../h/riscv.hpp ****     // mask set register sip
  61:src/../h/riscv.hpp ****     static void ms_sip(uint64 mask);
  62:src/../h/riscv.hpp **** 
  63:src/../h/riscv.hpp ****     // mask clear register sip
  64:src/../h/riscv.hpp ****     static void mc_sip(uint64 mask);
  65:src/../h/riscv.hpp **** 
  66:src/../h/riscv.hpp ****     // read register sip
  67:src/../h/riscv.hpp ****     static uint64 r_sip();
  68:src/../h/riscv.hpp **** 
  69:src/../h/riscv.hpp ****     // write register sip
  70:src/../h/riscv.hpp ****     static void w_sip(uint64 sip);
  71:src/../h/riscv.hpp **** 
  72:src/../h/riscv.hpp ****     enum BitMaskSstatus
  73:src/../h/riscv.hpp ****     {
  74:src/../h/riscv.hpp ****         SSTATUS_SIE = (1 << 1),
  75:src/../h/riscv.hpp ****         SSTATUS_SPIE = (1 << 5),
  76:src/../h/riscv.hpp ****         SSTATUS_SPP = (1 << 8),
  77:src/../h/riscv.hpp ****     };
  78:src/../h/riscv.hpp **** 
  79:src/../h/riscv.hpp ****     // mask set register sstatus
  80:src/../h/riscv.hpp ****     static void ms_sstatus(uint64 mask);
  81:src/../h/riscv.hpp **** 
  82:src/../h/riscv.hpp ****     // mask clear register sstatus
  83:src/../h/riscv.hpp ****     static void mc_sstatus(uint64 mask);
  84:src/../h/riscv.hpp **** 
  85:src/../h/riscv.hpp ****     // read register sstatus
  86:src/../h/riscv.hpp ****     static uint64 r_sstatus();
  87:src/../h/riscv.hpp **** 
  88:src/../h/riscv.hpp ****     // write register sstatus
  89:src/../h/riscv.hpp ****     static void w_sstatus(uint64 sstatus);
  90:src/../h/riscv.hpp **** 
  91:src/../h/riscv.hpp ****     static _Buffer* input_buffer;
  92:src/../h/riscv.hpp **** 
GAS LISTING /tmp/ccIPYeEL.s 			page 7


  93:src/../h/riscv.hpp ****     static _Buffer* output_buffer;
  94:src/../h/riscv.hpp **** 
  95:src/../h/riscv.hpp **** private:
  96:src/../h/riscv.hpp ****     static void supervisorsyscallHandler();
  97:src/../h/riscv.hpp **** 
  98:src/../h/riscv.hpp ****     static void supervisorTimerHandler();
  99:src/../h/riscv.hpp **** 
 100:src/../h/riscv.hpp ****     static void supervisorOutsideInterruptHandler();
 101:src/../h/riscv.hpp **** 
 102:src/../h/riscv.hpp ****     static SleepingList SleepingThreads;
 103:src/../h/riscv.hpp **** 
 104:src/../h/riscv.hpp **** 
 105:src/../h/riscv.hpp **** 
 106:src/../h/riscv.hpp **** 
 107:src/../h/riscv.hpp **** };
 108:src/../h/riscv.hpp **** 
 109:src/../h/riscv.hpp **** inline uint64 Riscv::r_scause()
 110:src/../h/riscv.hpp **** {
 111:src/../h/riscv.hpp ****     uint64 volatile scause;
 112:src/../h/riscv.hpp ****     __asm__ volatile ("csrr %[scause], scause" : [scause] "=r"(scause));
 113:src/../h/riscv.hpp ****     return scause;
 114:src/../h/riscv.hpp **** }
 115:src/../h/riscv.hpp **** 
 116:src/../h/riscv.hpp **** inline void Riscv::w_scause(uint64 scause)
 117:src/../h/riscv.hpp **** {
 118:src/../h/riscv.hpp ****     __asm__ volatile ("csrw scause, %[scause]" : : [scause] "r"(scause));
 119:src/../h/riscv.hpp **** }
 120:src/../h/riscv.hpp **** 
 121:src/../h/riscv.hpp **** inline uint64 Riscv::r_sepc()
 122:src/../h/riscv.hpp **** {
 123:src/../h/riscv.hpp ****     uint64 volatile sepc;
 124:src/../h/riscv.hpp ****     __asm__ volatile ("csrr %[sepc], sepc" : [sepc] "=r"(sepc));
 125:src/../h/riscv.hpp ****     return sepc;
 126:src/../h/riscv.hpp **** }
 127:src/../h/riscv.hpp **** 
 128:src/../h/riscv.hpp **** inline void Riscv::w_sepc(uint64 sepc)
 129:src/../h/riscv.hpp **** {
 130:src/../h/riscv.hpp ****     __asm__ volatile ("csrw sepc, %[sepc]" : : [sepc] "r"(sepc));
 131:src/../h/riscv.hpp **** }
 132:src/../h/riscv.hpp **** 
 133:src/../h/riscv.hpp **** inline uint64 Riscv::r_stvec()
 134:src/../h/riscv.hpp **** {
 135:src/../h/riscv.hpp ****     uint64 volatile stvec;
 136:src/../h/riscv.hpp ****     __asm__ volatile ("csrr %[stvec], stvec" : [stvec] "=r"(stvec));
 137:src/../h/riscv.hpp ****     return stvec;
 138:src/../h/riscv.hpp **** }
 139:src/../h/riscv.hpp **** 
 140:src/../h/riscv.hpp **** inline void Riscv::w_stvec(uint64 stvec)
 141:src/../h/riscv.hpp **** {
 142:src/../h/riscv.hpp ****     __asm__ volatile ("csrw stvec, %[stvec]" : : [stvec] "r"(stvec));
 190              		.loc 2 142 5 is_stmt 1
 191              		.loc 2 142 69 is_stmt 0
 192              	#APP
 193              	# 142 "src/../h/riscv.hpp" 1
 143              	}
 194              		csrw stvec, a5
 195              	# 0 "" 2
GAS LISTING /tmp/ccIPYeEL.s 			page 8


 196              	.LVL13:
 197              	#NO_APP
 198              	.LBE11:
 199              	.LBE10:
  54:src/main.cpp  ****     __asm__ volatile ("csrs stvec, 0x01");
 200              		.loc 1 54 5 is_stmt 1
 201              		.loc 1 54 42 is_stmt 0
 202              	#APP
 203              	# 54 "src/main.cpp" 1
  55              	
  56:src/main.cpp  **** 
  57:src/main.cpp  ****     TCB* kernel = TCB::createThread(nullptr, nullptr, nullptr,true);
 204              		csrs stvec, 0x01
 205              	# 0 "" 2
 206              		.loc 1 57 5 is_stmt 1
 207              		.loc 1 57 36 is_stmt 0
 208              	#NO_APP
 209 0124 93061000 		li	a3,1
 210 0128 13060000 		li	a2,0
 211 012c 93050000 		li	a1,0
 212 0130 13050000 		li	a0,0
 213              	.LEHB4:
 214 0134 97000000 		call	_ZN3TCB12createThreadEPFvPvES0_Pmb@plt
 214      E7800000 
 215              	.LVL14:
 216 013c 93040500 		mv	s1,a0
 217              	.LVL15:
  58:src/main.cpp  **** 
  59:src/main.cpp  **** 
  60:src/main.cpp  ****     TCB::running = kernel;
 218              		.loc 1 60 5 is_stmt 1
 219              		.loc 1 60 18 is_stmt 0
 220 0140 97070000 		la	a5,_ZN3TCB7runningE
 220      83B70700 
 221 0148 23B0A700 		sd	a0,0(a5)
  61:src/main.cpp  **** 
  62:src/main.cpp  ****     size_t velicina = sizeof(uint64) * DEFAULT_STACK_SIZE;
 222              		.loc 1 62 5 is_stmt 1
 223              	.LVL16:
  63:src/main.cpp  ****     if (velicina%MEM_BLOCK_SIZE==0){velicina = (sizeof(uint64) * DEFAULT_STACK_SIZE)/MEM_BLOCK_SIZE
 224              		.loc 1 63 5
 225              		.loc 1 63 37
  64:src/main.cpp  ****     else {
  65:src/main.cpp  ****         velicina = (sizeof(uint64) * DEFAULT_STACK_SIZE)/MEM_BLOCK_SIZE;
  66:src/main.cpp  ****         velicina = velicina+1;
  67:src/main.cpp  ****     }
  68:src/main.cpp  ****     TCB::idle = TCB::createIdleThread(idle_function, nullptr, (uint64*)MemoryAllocator::mem_alloc(v
 226              		.loc 1 68 5
 227              		.loc 1 68 98 is_stmt 0
 228 014c 13050020 		li	a0,512
 229 0150 97000000 		call	_ZN15MemoryAllocator9mem_allocEm@plt
 229      E7800000 
 230              	.LVL17:
 231 0158 13060500 		mv	a2,a0
 232              		.loc 1 68 38
 233 015c 93060000 		li	a3,0
 234 0160 93050000 		li	a1,0
GAS LISTING /tmp/ccIPYeEL.s 			page 9


 235 0164 17050000 		lla	a0,_Z13idle_functionPv
 235      13050500 
 236 016c 97000000 		call	_ZN3TCB16createIdleThreadEPFvPvES0_Pmb@plt
 236      E7800000 
 237              	.LVL18:
 238              		.loc 1 68 15
 239 0174 97070000 		la	a5,_ZN3TCB4idleE
 239      83B70700 
 240 017c 23B0A700 		sd	a0,0(a5)
  69:src/main.cpp  **** 
  70:src/main.cpp  ****     TCB::out = TCB::createThread(ispis, nullptr, (uint64*)MemoryAllocator::mem_alloc(velicina),true
 241              		.loc 1 70 5 is_stmt 1
 242              		.loc 1 70 85 is_stmt 0
 243 0180 13050020 		li	a0,512
 244 0184 97000000 		call	_ZN15MemoryAllocator9mem_allocEm@plt
 244      E7800000 
 245              	.LVL19:
 246 018c 13060500 		mv	a2,a0
 247              		.loc 1 70 33
 248 0190 93061000 		li	a3,1
 249 0194 93050000 		li	a1,0
 250 0198 17050000 		lla	a0,_Z5ispisPv
 250      13050500 
 251 01a0 97000000 		call	_ZN3TCB12createThreadEPFvPvES0_Pmb@plt
 251      E7800000 
 252              	.LVL20:
 253              		.loc 1 70 14
 254 01a8 97070000 		la	a5,_ZN3TCB3outE
 254      83B70700 
 255 01b0 23B0A700 		sd	a0,0(a5)
  71:src/main.cpp  **** 
  72:src/main.cpp  ****     Riscv::ms_sstatus(Riscv::SSTATUS_SIE);
 256              		.loc 1 72 5 is_stmt 1
 257              	.LVL21:
 258              	.LBB12:
 259              	.LBB13:
 144:src/../h/riscv.hpp **** 
 145:src/../h/riscv.hpp **** inline uint64 Riscv::r_stval()
 146:src/../h/riscv.hpp **** {
 147:src/../h/riscv.hpp ****     uint64 volatile stval;
 148:src/../h/riscv.hpp ****     __asm__ volatile ("csrr %[stval], stval" : [stval] "=r"(stval));
 149:src/../h/riscv.hpp ****     return stval;
 150:src/../h/riscv.hpp **** }
 151:src/../h/riscv.hpp **** 
 152:src/../h/riscv.hpp **** inline void Riscv::w_stval(uint64 stval)
 153:src/../h/riscv.hpp **** {
 154:src/../h/riscv.hpp ****     __asm__ volatile ("csrw stval, %[stval]" : : [stval] "r"(stval));
 155:src/../h/riscv.hpp **** }
 156:src/../h/riscv.hpp **** 
 157:src/../h/riscv.hpp **** inline void Riscv::ms_sip(uint64 mask)
 158:src/../h/riscv.hpp **** {
 159:src/../h/riscv.hpp ****     __asm__ volatile ("csrs sip, %[mask]" : : [mask] "r"(mask));
 160:src/../h/riscv.hpp **** }
 161:src/../h/riscv.hpp **** 
 162:src/../h/riscv.hpp **** inline void Riscv::mc_sip(uint64 mask)
 163:src/../h/riscv.hpp **** {
 164:src/../h/riscv.hpp ****     __asm__ volatile ("csrc sip, %[mask]" : : [mask] "r"(mask));
GAS LISTING /tmp/ccIPYeEL.s 			page 10


 165:src/../h/riscv.hpp **** }
 166:src/../h/riscv.hpp **** 
 167:src/../h/riscv.hpp **** inline uint64 Riscv::r_sip()
 168:src/../h/riscv.hpp **** {
 169:src/../h/riscv.hpp ****     uint64 volatile sip;
 170:src/../h/riscv.hpp ****     __asm__ volatile ("csrr %[sip], sip" : [sip] "=r"(sip));
 171:src/../h/riscv.hpp ****     return sip;
 172:src/../h/riscv.hpp **** }
 173:src/../h/riscv.hpp **** 
 174:src/../h/riscv.hpp **** inline void Riscv::w_sip(uint64 sip)
 175:src/../h/riscv.hpp **** {
 176:src/../h/riscv.hpp ****     __asm__ volatile ("csrw sip, %[sip]" : : [sip] "r"(sip));
 177:src/../h/riscv.hpp **** }
 178:src/../h/riscv.hpp **** 
 179:src/../h/riscv.hpp **** inline void Riscv::ms_sstatus(uint64 mask)
 180:src/../h/riscv.hpp **** {
 181:src/../h/riscv.hpp ****     __asm__ volatile ("csrs sstatus, %[mask]" : : [mask] "r"(mask));
 260              		.loc 2 181 5
 261              		.loc 2 181 68 is_stmt 0
 262 01b4 93072000 		li	a5,2
 263              	#APP
 264              	# 181 "src/../h/riscv.hpp" 1
 182              	}
 265              		csrs sstatus, a5
 266              	# 0 "" 2
 267              	.LVL22:
 268              	#NO_APP
 269              	.LBE13:
 270              	.LBE12:
  73:src/main.cpp  **** 
  74:src/main.cpp  ****     TCB* nit = TCB::createThread(user_wrapper, nullptr, (uint64*)MemoryAllocator::mem_alloc(velicin
 271              		.loc 1 74 5 is_stmt 1
 272              		.loc 1 74 92 is_stmt 0
 273 01bc 13050020 		li	a0,512
 274 01c0 97000000 		call	_ZN15MemoryAllocator9mem_allocEm@plt
 274      E7800000 
 275              	.LVL23:
 276 01c8 13060500 		mv	a2,a0
 277              		.loc 1 74 33
 278 01cc 93060000 		li	a3,0
 279 01d0 93050000 		li	a1,0
 280 01d4 17050000 		lla	a0,_Z12user_wrapperPv
 280      13050500 
 281 01dc 97000000 		call	_ZN3TCB12createThreadEPFvPvES0_Pmb@plt
 281      E7800000 
 282              	.LVL24:
 283 01e4 13090500 		mv	s2,a0
 284              	.LVL25:
  75:src/main.cpp  **** 
  76:src/main.cpp  ****     //Cekanje da se zavrsi nit koja izvrsava userMain()
  77:src/main.cpp  **** 
  78:src/main.cpp  ****     kernel->join(nit);
 285              		.loc 1 78 5 is_stmt 1
 286              		.loc 1 78 17 is_stmt 0
 287 01e8 93050500 		mv	a1,a0
 288 01ec 13850400 		mv	a0,s1
 289              	.LVL26:
GAS LISTING /tmp/ccIPYeEL.s 			page 11


 290 01f0 97000000 		call	_ZN3TCB4joinEPS_@plt
 290      E7800000 
 291              	.LVL27:
 292              	.L12:
  79:src/main.cpp  **** 
  80:src/main.cpp  **** 
  81:src/main.cpp  **** 
  82:src/main.cpp  **** //Sluzi za ispis ako je jos nesto ostalo u baferu a mi nismo stigli da ga ispisemo
  83:src/main.cpp  ****  while (Riscv::output_buffer->count() > 0) {  TCB::dispatch();}
 293              		.loc 1 83 2 is_stmt 1 discriminator 2
 294              		.loc 1 83 39 discriminator 2
 295              		.loc 1 83 36 is_stmt 0 discriminator 2
 296 01f8 97070000 		la	a5,_ZN5Riscv13output_bufferE
 296      83B70700 
 297 0200 03B50700 		ld	a0,0(a5)
 298 0204 97000000 		call	_ZN7_Buffer5countEv@plt
 298      E7800000 
 299              	.LVL28:
 300              		.loc 1 83 39 discriminator 2
 301 020c 6354A004 		blez	a0,.L11
 302              		.loc 1 83 47 is_stmt 1 discriminator 1
 303              		.loc 1 83 60 is_stmt 0 discriminator 1
 304 0210 97000000 		call	_ZN3TCB8dispatchEv@plt
 304      E7800000 
 305              	.LVL29:
 306              	.LEHE4:
 307              		.loc 1 83 2 discriminator 1
 308 0218 6FF01FFE 		j	.L12
 309              	.LVL30:
 310              	.L15:
 311 021c 13090500 		mv	s2,a0
  50:src/main.cpp  ****   Riscv::output_buffer=new _Buffer();
 312              		.loc 1 50 35
 313 0220 13850400 		mv	a0,s1
 314 0224 97000000 		call	_ZN7_BufferdlEPv@plt
 314      E7800000 
 315              	.LVL31:
 316 022c 13050900 		mv	a0,s2
 317              	.LEHB5:
 318 0230 97000000 		call	_Unwind_Resume@plt
 318      E7800000 
 319              	.LVL32:
 320              	.LEHE5:
 321              	.L16:
 322 0238 13090500 		mv	s2,a0
  51:src/main.cpp  **** 
 323              		.loc 1 51 36
 324 023c 13850400 		mv	a0,s1
 325 0240 97000000 		call	_ZN7_BufferdlEPv@plt
 325      E7800000 
 326              	.LVL33:
 327 0248 13050900 		mv	a0,s2
 328              	.LEHB6:
 329 024c 97000000 		call	_Unwind_Resume@plt
 329      E7800000 
 330              	.LVL34:
 331              	.L11:
GAS LISTING /tmp/ccIPYeEL.s 			page 12


  84:src/main.cpp  **** 
  85:src/main.cpp  ****  //Onemogucavanje prekida
  86:src/main.cpp  ****  Riscv::mc_sstatus(Riscv::SSTATUS_SIE);
 332              		.loc 1 86 2 is_stmt 1
 333              	.LBB14:
 334              	.LBB15:
 183:src/../h/riscv.hpp **** 
 184:src/../h/riscv.hpp **** inline void Riscv::mc_sstatus(uint64 mask)
 185:src/../h/riscv.hpp **** {
 186:src/../h/riscv.hpp ****     __asm__ volatile ("csrc sstatus, %[mask]" : : [mask] "r"(mask));
 335              		.loc 2 186 5
 336              		.loc 2 186 68 is_stmt 0
 337 0254 93072000 		li	a5,2
 338              	#APP
 339              	# 186 "src/../h/riscv.hpp" 1
 187              	}
 340              		csrc sstatus, a5
 341              	# 0 "" 2
 342              	.LVL35:
 343              	#NO_APP
 344              	.LBE15:
 345              	.LBE14:
  87:src/main.cpp  ****  //Oslobadjanje memorije
  88:src/main.cpp  ****  MemoryAllocator::mem_free(TCB::idle);
 346              		.loc 1 88 2 is_stmt 1
 347              		.loc 1 88 27 is_stmt 0
 348 025c 97070000 		la	a5,_ZN3TCB4idleE
 348      83B70700 
 349 0264 03B50700 		ld	a0,0(a5)
 350 0268 97000000 		call	_ZN15MemoryAllocator8mem_freeEPv@plt
 350      E7800000 
 351              	.LVL36:
  89:src/main.cpp  ****  MemoryAllocator::mem_free(TCB::out);
 352              		.loc 1 89 2 is_stmt 1
 353              		.loc 1 89 27 is_stmt 0
 354 0270 97070000 		la	a5,_ZN3TCB3outE
 354      83B70700 
 355 0278 03B50700 		ld	a0,0(a5)
 356 027c 97000000 		call	_ZN15MemoryAllocator8mem_freeEPv@plt
 356      E7800000 
 357              	.LVL37:
  90:src/main.cpp  ****  MemoryAllocator::mem_free(Riscv::output_buffer);
 358              		.loc 1 90 2 is_stmt 1
 359              		.loc 1 90 27 is_stmt 0
 360 0284 97070000 		la	a5,_ZN5Riscv13output_bufferE
 360      83B70700 
 361 028c 03B50700 		ld	a0,0(a5)
 362 0290 97000000 		call	_ZN15MemoryAllocator8mem_freeEPv@plt
 362      E7800000 
 363              	.LVL38:
  91:src/main.cpp  ****  MemoryAllocator::mem_free(Riscv::input_buffer);
 364              		.loc 1 91 2 is_stmt 1
 365              		.loc 1 91 27 is_stmt 0
 366 0298 97070000 		la	a5,_ZN5Riscv12input_bufferE
 366      83B70700 
 367 02a0 03B50700 		ld	a0,0(a5)
 368 02a4 97000000 		call	_ZN15MemoryAllocator8mem_freeEPv@plt
GAS LISTING /tmp/ccIPYeEL.s 			page 13


 368      E7800000 
 369              	.LVL39:
  92:src/main.cpp  ****  MemoryAllocator::mem_free(nit);
 370              		.loc 1 92 2 is_stmt 1
 371              		.loc 1 92 27 is_stmt 0
 372 02ac 13050900 		mv	a0,s2
 373 02b0 97000000 		call	_ZN15MemoryAllocator8mem_freeEPv@plt
 373      E7800000 
 374              	.LVL40:
  93:src/main.cpp  ****  MemoryAllocator::mem_free(kernel);
 375              		.loc 1 93 2 is_stmt 1
 376              		.loc 1 93 27 is_stmt 0
 377 02b8 13850400 		mv	a0,s1
 378 02bc 97000000 		call	_ZN15MemoryAllocator8mem_freeEPv@plt
 378      E7800000 
 379              	.LVL41:
 380              	.LEHE6:
  94:src/main.cpp  ****  return 0;
 381              		.loc 1 94 2 is_stmt 1
  95:src/main.cpp  **** 
  96:src/main.cpp  **** }...
 382              		.loc 1 96 1 is_stmt 0
 383 02c4 13050000 		li	a0,0
 384 02c8 83308101 		ld	ra,24(sp)
 385              		.cfi_restore 1
 386 02cc 03340101 		ld	s0,16(sp)
 387              		.cfi_restore 8
 388              		.cfi_def_cfa 2, 32
 389 02d0 83348100 		ld	s1,8(sp)
 390              		.cfi_restore 9
 391              	.LVL42:
 392 02d4 03390100 		ld	s2,0(sp)
 393              		.cfi_restore 18
 394              	.LVL43:
 395 02d8 13010102 		addi	sp,sp,32
 396              		.cfi_def_cfa_offset 0
 397 02dc 67800000 		jr	ra
 398              		.cfi_endproc
 399              	.LFE42:
 400              		.globl	__gxx_personality_v0
 401              		.section	.gcc_except_table,"a",@progbits
 402              	.LLSDA42:
 403 0000 FF       		.byte	0xff
 404 0001 FF       		.byte	0xff
 405 0002 03       		.byte	0x3
 406 0003 5B       		.byte	0x5b
 407 0004 00000000 		.4byte	.LEHB0-.LFB42
 408 0008 00000000 		.4byte	.LEHE0-.LEHB0
 409 000c 00000000 		.4byte	0
 410 0010 00       		.byte	0
 411 0011 00000000 		.4byte	.LEHB1-.LFB42
 412 0015 00000000 		.4byte	.LEHE1-.LEHB1
 413 0019 00000000 		.4byte	.L15-.LFB42
 414 001d 00       		.byte	0
 415 001e 00000000 		.4byte	.LEHB2-.LFB42
 416 0022 00000000 		.4byte	.LEHE2-.LEHB2
 417 0026 00000000 		.4byte	0
GAS LISTING /tmp/ccIPYeEL.s 			page 14


 418 002a 00       		.byte	0
 419 002b 00000000 		.4byte	.LEHB3-.LFB42
 420 002f 00000000 		.4byte	.LEHE3-.LEHB3
 421 0033 00000000 		.4byte	.L16-.LFB42
 422 0037 00       		.byte	0
 423 0038 00000000 		.4byte	.LEHB4-.LFB42
 424 003c 00000000 		.4byte	.LEHE4-.LEHB4
 425 0040 00000000 		.4byte	0
 426 0044 00       		.byte	0
 427 0045 00000000 		.4byte	.LEHB5-.LFB42
 428 0049 00000000 		.4byte	.LEHE5-.LEHB5
 429 004d 00000000 		.4byte	0
 430 0051 00       		.byte	0
 431 0052 00000000 		.4byte	.LEHB6-.LFB42
 432 0056 00000000 		.4byte	.LEHE6-.LEHB6
 433 005a 00000000 		.4byte	0
 434 005e 00       		.byte	0
 435              		.text
 437              	.Letext0:
 438              		.file 3 "src/../lib/hw.h"
 439              		.file 4 "src/../h/../h/MemoryAllocator.hpp"
 440              		.file 5 "src/../h/../h/../h/syscall_c.h"
 441              		.file 6 "src/../h/../h/TCB.hpp"
 442              		.file 7 "src/../h/../h/_sem.hpp"
 443              		.file 8 "src/../h/../h/sleeping_list.hpp"
 444              		.file 9 "src/../h/../h/_Buffer.hpp"
 4266              		.align	3
 4269              	DW.ref.__gxx_personality_v0:
 4270 0000 00000000 		.dword	__gxx_personality_v0
 4270      00000000 
 4271              		.ident	"GCC: (Ubuntu 9.4.0-1ubuntu1~20.04) 9.4.0"
 4272              		.section	.note.GNU-stack,"",@progbits
GAS LISTING /tmp/ccIPYeEL.s 			page 15


DEFINED SYMBOLS
                            *ABS*:0000000000000000 main.cpp
     /tmp/ccIPYeEL.s:9      .text:0000000000000000 _Z13idle_functionPv
     /tmp/ccIPYeEL.s:13     .text:0000000000000000 .L0 
     /tmp/ccIPYeEL.s:15     .text:0000000000000000 .L0 
     /tmp/ccIPYeEL.s:16     .text:0000000000000004 .L0 
     /tmp/ccIPYeEL.s:19     .text:000000000000000c .L0 
     /tmp/ccIPYeEL.s:20     .text:000000000000000c .L0 
     /tmp/ccIPYeEL.s:22     .text:0000000000000010 .L0 
     /tmp/ccIPYeEL.s:26     .text:0000000000000010 .L0 
     /tmp/ccIPYeEL.s:27     .text:0000000000000010 .L0 
     /tmp/ccIPYeEL.s:28     .text:0000000000000010 .L0 
     /tmp/ccIPYeEL.s:31     .text:0000000000000018 .L0 
     /tmp/ccIPYeEL.s:32     .text:000000000000001c .L0 
     /tmp/ccIPYeEL.s:38     .text:000000000000001c _Z12user_wrapperPv
     /tmp/ccIPYeEL.s:41     .text:000000000000001c .L0 
     /tmp/ccIPYeEL.s:43     .text:000000000000001c .L0 
     /tmp/ccIPYeEL.s:44     .text:0000000000000020 .L0 
     /tmp/ccIPYeEL.s:47     .text:0000000000000028 .L0 
     /tmp/ccIPYeEL.s:48     .text:0000000000000028 .L0 
     /tmp/ccIPYeEL.s:50     .text:000000000000002c .L0 
     /tmp/ccIPYeEL.s:52     .text:000000000000002c .L0 
     /tmp/ccIPYeEL.s:53     .text:000000000000002c .L0 
     /tmp/ccIPYeEL.s:56     .text:0000000000000034 .L0 
     /tmp/ccIPYeEL.s:57     .text:0000000000000038 .L0 
     /tmp/ccIPYeEL.s:59     .text:000000000000003c .L0 
     /tmp/ccIPYeEL.s:60     .text:000000000000003c .L0 
     /tmp/ccIPYeEL.s:62     .text:0000000000000040 .L0 
     /tmp/ccIPYeEL.s:64     .text:0000000000000044 .L0 
     /tmp/ccIPYeEL.s:70     .text:0000000000000044 _Z5ispisPv
     /tmp/ccIPYeEL.s:73     .text:0000000000000044 .L0 
     /tmp/ccIPYeEL.s:75     .text:0000000000000044 .L0 
     /tmp/ccIPYeEL.s:76     .text:0000000000000048 .L0 
     /tmp/ccIPYeEL.s:80     .text:0000000000000054 .L0 
     /tmp/ccIPYeEL.s:81     .text:0000000000000054 .L0 
     /tmp/ccIPYeEL.s:82     .text:0000000000000054 .L0 
     /tmp/ccIPYeEL.s:84     .text:0000000000000058 .L0 
     /tmp/ccIPYeEL.s:89     .text:0000000000000058 .L0 
     /tmp/ccIPYeEL.s:90     .text:0000000000000058 .L0 
     /tmp/ccIPYeEL.s:91     .text:0000000000000058 .L0 
     /tmp/ccIPYeEL.s:95     .text:0000000000000068 .L0 
     /tmp/ccIPYeEL.s:98     .text:000000000000006c .L0 
     /tmp/ccIPYeEL.s:99     .text:000000000000006c .L0 
     /tmp/ccIPYeEL.s:100    .text:000000000000006c .L0 
     /tmp/ccIPYeEL.s:103    .text:0000000000000074 .L0 
     /tmp/ccIPYeEL.s:107    .text:000000000000007c .L0 
     /tmp/ccIPYeEL.s:108    .text:000000000000007c .L0 
     /tmp/ccIPYeEL.s:113    .text:0000000000000090 .L0 
     /tmp/ccIPYeEL.s:115    .text:0000000000000094 .L0 
     /tmp/ccIPYeEL.s:118    .text:00000000000000a0 .L0 
     /tmp/ccIPYeEL.s:121    .text:00000000000000a8 .L0 
     /tmp/ccIPYeEL.s:122    .text:00000000000000a8 .L0 
     /tmp/ccIPYeEL.s:124    .text:00000000000000ac .L0 
     /tmp/ccIPYeEL.s:127    .text:00000000000000b0 .L0 
     /tmp/ccIPYeEL.s:129    .text:00000000000000b4 .L0 
     /tmp/ccIPYeEL.s:135    .text:00000000000000b4 main
     /tmp/ccIPYeEL.s:138    .text:00000000000000b4 .L0 
GAS LISTING /tmp/ccIPYeEL.s 			page 16


     /tmp/ccIPYeEL.s:4269   .data.rel.local.DW.ref.__gxx_personality_v0:0000000000000000 DW.ref.__gxx_personality_v0
     /tmp/ccIPYeEL.s:141    .text:00000000000000b4 .L0 
     /tmp/ccIPYeEL.s:142    .text:00000000000000b8 .L0 
     /tmp/ccIPYeEL.s:147    .text:00000000000000c8 .L0 
     /tmp/ccIPYeEL.s:148    .text:00000000000000c8 .L0 
     /tmp/ccIPYeEL.s:149    .text:00000000000000c8 .L0 
     /tmp/ccIPYeEL.s:150    .text:00000000000000c8 .L0 
     /tmp/ccIPYeEL.s:152    .text:00000000000000cc .L0 
     /tmp/ccIPYeEL.s:154    .text:00000000000000cc .L0 
     /tmp/ccIPYeEL.s:155    .text:00000000000000cc .L0 
     /tmp/ccIPYeEL.s:166    .text:00000000000000e4 .L0 
     /tmp/ccIPYeEL.s:169    .text:00000000000000f0 .L0 
     /tmp/ccIPYeEL.s:170    .text:00000000000000f0 .L0 
     /tmp/ccIPYeEL.s:181    .text:0000000000000108 .L0 
     /tmp/ccIPYeEL.s:184    .text:0000000000000114 .L0 
     /tmp/ccIPYeEL.s:185    .text:0000000000000114 .L0 
     /tmp/ccIPYeEL.s:191    .text:000000000000011c .L0 
  src/../h/riscv.hpp:142    .text:000000000000011c .L0 
     /tmp/ccIPYeEL.s:201    .text:0000000000000120 .L0 
        src/main.cpp:54     .text:0000000000000120 .L0 
     /tmp/ccIPYeEL.s:207    .text:0000000000000124 .L0 
     /tmp/ccIPYeEL.s:209    .text:0000000000000124 .L0 
     /tmp/ccIPYeEL.s:219    .text:0000000000000140 .L0 
     /tmp/ccIPYeEL.s:220    .text:0000000000000140 .L0 
     /tmp/ccIPYeEL.s:224    .text:000000000000014c .L0 
     /tmp/ccIPYeEL.s:225    .text:000000000000014c .L0 
     /tmp/ccIPYeEL.s:226    .text:000000000000014c .L0 
     /tmp/ccIPYeEL.s:227    .text:000000000000014c .L0 
     /tmp/ccIPYeEL.s:228    .text:000000000000014c .L0 
     /tmp/ccIPYeEL.s:233    .text:000000000000015c .L0 
     /tmp/ccIPYeEL.s:239    .text:0000000000000174 .L0 
     /tmp/ccIPYeEL.s:242    .text:0000000000000180 .L0 
     /tmp/ccIPYeEL.s:243    .text:0000000000000180 .L0 
     /tmp/ccIPYeEL.s:248    .text:0000000000000190 .L0 
     /tmp/ccIPYeEL.s:254    .text:00000000000001a8 .L0 
     /tmp/ccIPYeEL.s:260    .text:00000000000001b4 .L0 
     /tmp/ccIPYeEL.s:261    .text:00000000000001b4 .L0 
     /tmp/ccIPYeEL.s:262    .text:00000000000001b4 .L0 
     /tmp/ccIPYeEL.s:272    .text:00000000000001bc .L0 
     /tmp/ccIPYeEL.s:273    .text:00000000000001bc .L0 
     /tmp/ccIPYeEL.s:278    .text:00000000000001cc .L0 
     /tmp/ccIPYeEL.s:286    .text:00000000000001e8 .L0 
     /tmp/ccIPYeEL.s:287    .text:00000000000001e8 .L0 
     /tmp/ccIPYeEL.s:294    .text:00000000000001f8 .L0 
     /tmp/ccIPYeEL.s:295    .text:00000000000001f8 .L0 
     /tmp/ccIPYeEL.s:296    .text:00000000000001f8 .L0 
     /tmp/ccIPYeEL.s:301    .text:000000000000020c .L0 
     /tmp/ccIPYeEL.s:303    .text:0000000000000210 .L0 
     /tmp/ccIPYeEL.s:304    .text:0000000000000210 .L0 
     /tmp/ccIPYeEL.s:308    .text:0000000000000218 .L0 
     /tmp/ccIPYeEL.s:313    .text:0000000000000220 .L0 
     /tmp/ccIPYeEL.s:324    .text:000000000000023c .L0 
     /tmp/ccIPYeEL.s:335    .text:0000000000000254 .L0 
     /tmp/ccIPYeEL.s:336    .text:0000000000000254 .L0 
     /tmp/ccIPYeEL.s:337    .text:0000000000000254 .L0 
     /tmp/ccIPYeEL.s:347    .text:000000000000025c .L0 
     /tmp/ccIPYeEL.s:348    .text:000000000000025c .L0 
GAS LISTING /tmp/ccIPYeEL.s 			page 17


     /tmp/ccIPYeEL.s:353    .text:0000000000000270 .L0 
     /tmp/ccIPYeEL.s:354    .text:0000000000000270 .L0 
     /tmp/ccIPYeEL.s:359    .text:0000000000000284 .L0 
     /tmp/ccIPYeEL.s:360    .text:0000000000000284 .L0 
     /tmp/ccIPYeEL.s:365    .text:0000000000000298 .L0 
     /tmp/ccIPYeEL.s:366    .text:0000000000000298 .L0 
     /tmp/ccIPYeEL.s:371    .text:00000000000002ac .L0 
     /tmp/ccIPYeEL.s:372    .text:00000000000002ac .L0 
     /tmp/ccIPYeEL.s:376    .text:00000000000002b8 .L0 
     /tmp/ccIPYeEL.s:377    .text:00000000000002b8 .L0 
     /tmp/ccIPYeEL.s:382    .text:00000000000002c4 .L0 
     /tmp/ccIPYeEL.s:383    .text:00000000000002c4 .L0 
     /tmp/ccIPYeEL.s:385    .text:00000000000002cc .L0 
     /tmp/ccIPYeEL.s:387    .text:00000000000002d0 .L0 
     /tmp/ccIPYeEL.s:388    .text:00000000000002d0 .L0 
     /tmp/ccIPYeEL.s:390    .text:00000000000002d4 .L0 
     /tmp/ccIPYeEL.s:393    .text:00000000000002d8 .L0 
     /tmp/ccIPYeEL.s:396    .text:00000000000002dc .L0 
     /tmp/ccIPYeEL.s:398    .text:00000000000002e0 .L0 
     /tmp/ccIPYeEL.s:445    .text:00000000000002e0 .L0 
     /tmp/ccIPYeEL.s:91     .text:0000000000000058 .L0 
     /tmp/ccIPYeEL.s:108    .text:000000000000007c .L0 
     /tmp/ccIPYeEL.s:115    .text:0000000000000094 .L0 
     /tmp/ccIPYeEL.s:166    .text:00000000000000e4 .L0 
     /tmp/ccIPYeEL.s:181    .text:0000000000000108 .L0 
     /tmp/ccIPYeEL.s:185    .text:0000000000000114 .L0 
     /tmp/ccIPYeEL.s:220    .text:0000000000000140 .L0 
     /tmp/ccIPYeEL.s:235    .text:0000000000000164 .L0 
     /tmp/ccIPYeEL.s:239    .text:0000000000000174 .L0 
     /tmp/ccIPYeEL.s:250    .text:0000000000000198 .L0 
     /tmp/ccIPYeEL.s:254    .text:00000000000001a8 .L0 
     /tmp/ccIPYeEL.s:280    .text:00000000000001d4 .L0 
     /tmp/ccIPYeEL.s:296    .text:00000000000001f8 .L0 
     /tmp/ccIPYeEL.s:348    .text:000000000000025c .L0 
     /tmp/ccIPYeEL.s:354    .text:0000000000000270 .L0 
     /tmp/ccIPYeEL.s:360    .text:0000000000000284 .L0 
     /tmp/ccIPYeEL.s:366    .text:0000000000000298 .L0 
     /tmp/ccIPYeEL.s:24     .text:0000000000000010 .L2
     /tmp/ccIPYeEL.s:86     .text:0000000000000058 .L7
     /tmp/ccIPYeEL.s:96     .text:000000000000006c .L8
     /tmp/ccIPYeEL.s:331    .text:0000000000000254 .L11
     /tmp/ccIPYeEL.s:292    .text:00000000000001f8 .L12
     /tmp/ccIPYeEL.s:156    .text:00000000000000d0 .LEHB0
     /tmp/ccIPYeEL.s:136    .text:00000000000000b4 .LFB42
     /tmp/ccIPYeEL.s:159    .text:00000000000000d8 .LEHE0
     /tmp/ccIPYeEL.s:161    .text:00000000000000dc .LEHB1
     /tmp/ccIPYeEL.s:164    .text:00000000000000e4 .LEHE1
     /tmp/ccIPYeEL.s:310    .text:000000000000021c .L15
     /tmp/ccIPYeEL.s:171    .text:00000000000000f4 .LEHB2
     /tmp/ccIPYeEL.s:174    .text:00000000000000fc .LEHE2
     /tmp/ccIPYeEL.s:176    .text:0000000000000100 .LEHB3
     /tmp/ccIPYeEL.s:179    .text:0000000000000108 .LEHE3
     /tmp/ccIPYeEL.s:321    .text:0000000000000238 .L16
     /tmp/ccIPYeEL.s:213    .text:0000000000000134 .LEHB4
     /tmp/ccIPYeEL.s:306    .text:0000000000000218 .LEHE4
     /tmp/ccIPYeEL.s:317    .text:0000000000000230 .LEHB5
     /tmp/ccIPYeEL.s:320    .text:0000000000000238 .LEHE5
GAS LISTING /tmp/ccIPYeEL.s 			page 18


     /tmp/ccIPYeEL.s:328    .text:000000000000024c .LEHB6
     /tmp/ccIPYeEL.s:380    .text:00000000000002c4 .LEHE6
     /tmp/ccIPYeEL.s:2506   .debug_abbrev:0000000000000000 .Ldebug_abbrev0
     /tmp/ccIPYeEL.s:4177   .debug_str:0000000000000b2b .LASF224
     /tmp/ccIPYeEL.s:3911   .debug_str:0000000000000356 .LASF225
     /tmp/ccIPYeEL.s:4187   .debug_str:0000000000000c29 .LASF226
     /tmp/ccIPYeEL.s:5      .text:0000000000000000 .Ltext0
     /tmp/ccIPYeEL.s:437    .text:00000000000002e0 .Letext0
     /tmp/ccIPYeEL.s:3795   .debug_line:0000000000000000 .Ldebug_line0
     /tmp/ccIPYeEL.s:3947   .debug_str:000000000000047f .LASF0
     /tmp/ccIPYeEL.s:3977   .debug_str:0000000000000569 .LASF1
     /tmp/ccIPYeEL.s:4099   .debug_str:0000000000000902 .LASF2
     /tmp/ccIPYeEL.s:4107   .debug_str:000000000000093e .LASF4
     /tmp/ccIPYeEL.s:3957   .debug_str:00000000000004c5 .LASF3
     /tmp/ccIPYeEL.s:3813   .debug_str:000000000000008a .LASF5
     /tmp/ccIPYeEL.s:4069   .debug_str:0000000000000812 .LASF6
     /tmp/ccIPYeEL.s:4057   .debug_str:00000000000007b1 .LASF7
     /tmp/ccIPYeEL.s:3969   .debug_str:0000000000000531 .LASF8
     /tmp/ccIPYeEL.s:3919   .debug_str:000000000000037d .LASF9
     /tmp/ccIPYeEL.s:3927   .debug_str:00000000000003c0 .LASF10
     /tmp/ccIPYeEL.s:3849   .debug_str:0000000000000190 .LASF11
     /tmp/ccIPYeEL.s:3909   .debug_str:0000000000000347 .LASF12
     /tmp/ccIPYeEL.s:3871   .debug_str:0000000000000234 .LASF13
     /tmp/ccIPYeEL.s:3847   .debug_str:0000000000000180 .LASF14
     /tmp/ccIPYeEL.s:4145   .debug_str:0000000000000a4e .LASF15
     /tmp/ccIPYeEL.s:3897   .debug_str:00000000000002ee .LASF16
     /tmp/ccIPYeEL.s:4133   .debug_str:00000000000009f9 .LASF17
     /tmp/ccIPYeEL.s:4055   .debug_str:00000000000007a1 .LASF31
     /tmp/ccIPYeEL.s:3917   .debug_str:0000000000000371 .LASF21
     /tmp/ccIPYeEL.s:3851   .debug_str:000000000000019f .LASF18
     /tmp/ccIPYeEL.s:3827   .debug_str:00000000000000f4 .LASF19
     /tmp/ccIPYeEL.s:3975   .debug_str:0000000000000564 .LASF20
     /tmp/ccIPYeEL.s:4021   .debug_str:00000000000006c5 .LASF22
     /tmp/ccIPYeEL.s:3943   .debug_str:000000000000044f .LASF23
     /tmp/ccIPYeEL.s:4083   .debug_str:000000000000086d .LASF24
     /tmp/ccIPYeEL.s:3989   .debug_str:00000000000005c6 .LASF25
     /tmp/ccIPYeEL.s:3865   .debug_str:0000000000000207 .LASF26
     /tmp/ccIPYeEL.s:3835   .debug_str:0000000000000117 .LASF27
     /tmp/ccIPYeEL.s:4153   .debug_str:0000000000000a8b .LASF33
     /tmp/ccIPYeEL.s:4005   .debug_str:000000000000062c .LASF35
     /tmp/ccIPYeEL.s:4003   .debug_str:0000000000000622 .LASF67
     /tmp/ccIPYeEL.s:3817   .debug_str:000000000000009c .LASF69
     /tmp/ccIPYeEL.s:3991   .debug_str:00000000000005d0 .LASF28
     /tmp/ccIPYeEL.s:4259   .debug_str:0000000000000e38 .LASF29
     /tmp/ccIPYeEL.s:3915   .debug_str:0000000000000368 .LASF30
     /tmp/ccIPYeEL.s:3859   .debug_str:00000000000001e2 .LASF32
     /tmp/ccIPYeEL.s:4109   .debug_str:0000000000000945 .LASF34
     /tmp/ccIPYeEL.s:3811   .debug_str:000000000000007e .LASF36
     /tmp/ccIPYeEL.s:4155   .debug_str:0000000000000a94 .LASF37
     /tmp/ccIPYeEL.s:4087   .debug_str:0000000000000880 .LASF39
     /tmp/ccIPYeEL.s:4101   .debug_str:0000000000000910 .LASF38
     /tmp/ccIPYeEL.s:3841   .debug_str:000000000000014e .LASF40
     /tmp/ccIPYeEL.s:4031   .debug_str:0000000000000708 .LASF41
     /tmp/ccIPYeEL.s:3801   .debug_str:000000000000001c .LASF42
     /tmp/ccIPYeEL.s:4185   .debug_str:0000000000000c1a .LASF43
     /tmp/ccIPYeEL.s:3821   .debug_str:00000000000000cd .LASF44
     /tmp/ccIPYeEL.s:4173   .debug_str:0000000000000b17 .LASF45
GAS LISTING /tmp/ccIPYeEL.s 			page 19


     /tmp/ccIPYeEL.s:4193   .debug_str:0000000000000c69 .LASF46
     /tmp/ccIPYeEL.s:4159   .debug_str:0000000000000aa4 .LASF47
     /tmp/ccIPYeEL.s:3903   .debug_str:000000000000031e .LASF48
     /tmp/ccIPYeEL.s:4081   .debug_str:0000000000000862 .LASF49
     /tmp/ccIPYeEL.s:3867   .debug_str:0000000000000217 .LASF50
     /tmp/ccIPYeEL.s:3981   .debug_str:0000000000000589 .LASF51
     /tmp/ccIPYeEL.s:4205   .debug_str:0000000000000cb8 .LASF52
     /tmp/ccIPYeEL.s:3845   .debug_str:000000000000016f .LASF53
     /tmp/ccIPYeEL.s:4095   .debug_str:00000000000008d0 .LASF54
     /tmp/ccIPYeEL.s:4049   .debug_str:000000000000077e .LASF227
     /tmp/ccIPYeEL.s:4143   .debug_str:0000000000000a41 .LASF55
     /tmp/ccIPYeEL.s:4211   .debug_str:0000000000000cf0 .LASF56
     /tmp/ccIPYeEL.s:4097   .debug_str:00000000000008f7 .LASF57
     /tmp/ccIPYeEL.s:4029   .debug_str:00000000000006e7 .LASF58
     /tmp/ccIPYeEL.s:4175   .debug_str:0000000000000b23 .LASF59
     /tmp/ccIPYeEL.s:3913   .debug_str:0000000000000363 .LASF60
     /tmp/ccIPYeEL.s:4171   .debug_str:0000000000000b12 .LASF61
     /tmp/ccIPYeEL.s:4053   .debug_str:0000000000000790 .LASF62
     /tmp/ccIPYeEL.s:3887   .debug_str:00000000000002b8 .LASF81
     /tmp/ccIPYeEL.s:3861   .debug_str:00000000000001ea .LASF83
     /tmp/ccIPYeEL.s:4235   .debug_str:0000000000000d97 .LASF63
     /tmp/ccIPYeEL.s:3959   .debug_str:00000000000004d7 .LASF64
     /tmp/ccIPYeEL.s:4249   .debug_str:0000000000000dff .LASF65
     /tmp/ccIPYeEL.s:3923   .debug_str:000000000000039c .LASF66
     /tmp/ccIPYeEL.s:3805   .debug_str:0000000000000036 .LASF68
     /tmp/ccIPYeEL.s:4039   .debug_str:0000000000000732 .LASF70
     /tmp/ccIPYeEL.s:4127   .debug_str:00000000000009d4 .LASF152
     /tmp/ccIPYeEL.s:3803   .debug_str:0000000000000031 .LASF71
     /tmp/ccIPYeEL.s:4241   .debug_str:0000000000000db4 .LASF72
     /tmp/ccIPYeEL.s:4189   .debug_str:0000000000000c4c .LASF73
     /tmp/ccIPYeEL.s:4183   .debug_str:0000000000000c10 .LASF74
     /tmp/ccIPYeEL.s:4131   .debug_str:00000000000009f0 .LASF75
     /tmp/ccIPYeEL.s:4041   .debug_str:000000000000073f .LASF76
     /tmp/ccIPYeEL.s:3833   .debug_str:000000000000010f .LASF77
     /tmp/ccIPYeEL.s:4035   .debug_str:0000000000000719 .LASF78
     /tmp/ccIPYeEL.s:3921   .debug_str:000000000000038d .LASF79
     /tmp/ccIPYeEL.s:3839   .debug_str:0000000000000140 .LASF199
     /tmp/ccIPYeEL.s:3983   .debug_str:0000000000000596 .LASF201
     /tmp/ccIPYeEL.s:3877   .debug_str:000000000000026f .LASF131
     /tmp/ccIPYeEL.s:3809   .debug_str:0000000000000056 .LASF132
     /tmp/ccIPYeEL.s:4119   .debug_str:0000000000000973 .LASF80
     /tmp/ccIPYeEL.s:4129   .debug_str:00000000000009eb .LASF82
     /tmp/ccIPYeEL.s:3965   .debug_str:00000000000004f3 .LASF84
     /tmp/ccIPYeEL.s:4261   .debug_str:0000000000000e42 .LASF85
     /tmp/ccIPYeEL.s:3873   .debug_str:0000000000000244 .LASF86
     /tmp/ccIPYeEL.s:4075   .debug_str:000000000000082c .LASF87
     /tmp/ccIPYeEL.s:3929   .debug_str:00000000000003ce .LASF88
     /tmp/ccIPYeEL.s:4139   .debug_str:0000000000000a2e .LASF89
     /tmp/ccIPYeEL.s:4071   .debug_str:0000000000000819 .LASF90
     /tmp/ccIPYeEL.s:3883   .debug_str:0000000000000296 .LASF91
     /tmp/ccIPYeEL.s:4105   .debug_str:0000000000000932 .LASF92
     /tmp/ccIPYeEL.s:4089   .debug_str:0000000000000897 .LASF93
     /tmp/ccIPYeEL.s:3843   .debug_str:0000000000000163 .LASF94
     /tmp/ccIPYeEL.s:3879   .debug_str:000000000000027d .LASF95
     /tmp/ccIPYeEL.s:4227   .debug_str:0000000000000d6a .LASF96
     /tmp/ccIPYeEL.s:4141   .debug_str:0000000000000a3c .LASF97
     /tmp/ccIPYeEL.s:4179   .debug_str:0000000000000bef .LASF98
GAS LISTING /tmp/ccIPYeEL.s 			page 20


     /tmp/ccIPYeEL.s:4027   .debug_str:00000000000006e2 .LASF99
     /tmp/ccIPYeEL.s:4051   .debug_str:0000000000000783 .LASF100
     /tmp/ccIPYeEL.s:3881   .debug_str:000000000000028b .LASF101
     /tmp/ccIPYeEL.s:3935   .debug_str:0000000000000402 .LASF102
     /tmp/ccIPYeEL.s:4017   .debug_str:0000000000000690 .LASF103
     /tmp/ccIPYeEL.s:3837   .debug_str:0000000000000125 .LASF104
     /tmp/ccIPYeEL.s:4093   .debug_str:00000000000008c0 .LASF105
     /tmp/ccIPYeEL.s:4091   .debug_str:00000000000008a4 .LASF106
     /tmp/ccIPYeEL.s:3889   .debug_str:00000000000002c1 .LASF107
     /tmp/ccIPYeEL.s:4015   .debug_str:0000000000000680 .LASF108
     /tmp/ccIPYeEL.s:4149   .debug_str:0000000000000a75 .LASF109
     /tmp/ccIPYeEL.s:4135   .debug_str:0000000000000a0f .LASF110
     /tmp/ccIPYeEL.s:3823   .debug_str:00000000000000e7 .LASF111
     /tmp/ccIPYeEL.s:3831   .debug_str:00000000000000fe .LASF112
     /tmp/ccIPYeEL.s:3895   .debug_str:00000000000002e8 .LASF113
     /tmp/ccIPYeEL.s:3995   .debug_str:00000000000005e4 .LASF114
     /tmp/ccIPYeEL.s:3905   .debug_str:0000000000000334 .LASF115
     /tmp/ccIPYeEL.s:4257   .debug_str:0000000000000e2b .LASF116
     /tmp/ccIPYeEL.s:3853   .debug_str:00000000000001a4 .LASF117
     /tmp/ccIPYeEL.s:3863   .debug_str:00000000000001fd .LASF118
     /tmp/ccIPYeEL.s:4023   .debug_str:00000000000006d1 .LASF119
     /tmp/ccIPYeEL.s:4163   .debug_str:0000000000000ad1 .LASF120
     /tmp/ccIPYeEL.s:4229   .debug_str:0000000000000d70 .LASF121
     /tmp/ccIPYeEL.s:3963   .debug_str:00000000000004ee .LASF122
     /tmp/ccIPYeEL.s:4011   .debug_str:000000000000066a .LASF123
     /tmp/ccIPYeEL.s:4137   .debug_str:0000000000000a21 .LASF124
     /tmp/ccIPYeEL.s:4203   .debug_str:0000000000000cb3 .LASF125
     /tmp/ccIPYeEL.s:4151   .debug_str:0000000000000a7c .LASF126
     /tmp/ccIPYeEL.s:4123   .debug_str:0000000000000998 .LASF127
     /tmp/ccIPYeEL.s:4147   .debug_str:0000000000000a5a .LASF128
     /tmp/ccIPYeEL.s:4223   .debug_str:0000000000000d46 .LASF228
     /tmp/ccIPYeEL.s:4059   .debug_str:00000000000007c4 .LASF129
     /tmp/ccIPYeEL.s:3907   .debug_str:0000000000000342 .LASF130
     /tmp/ccIPYeEL.s:4201   .debug_str:0000000000000c9c .LASF133
     /tmp/ccIPYeEL.s:3799   .debug_str:0000000000000006 .LASF134
     /tmp/ccIPYeEL.s:4217   .debug_str:0000000000000d2d .LASF135
     /tmp/ccIPYeEL.s:3855   .debug_str:00000000000001ad .LASF136
     /tmp/ccIPYeEL.s:4199   .debug_str:0000000000000c94 .LASF137
     /tmp/ccIPYeEL.s:3893   .debug_str:00000000000002cc .LASF138
     /tmp/ccIPYeEL.s:3953   .debug_str:00000000000004a6 .LASF139
     /tmp/ccIPYeEL.s:4047   .debug_str:0000000000000761 .LASF140
     /tmp/ccIPYeEL.s:3933   .debug_str:00000000000003fa .LASF141
     /tmp/ccIPYeEL.s:3891   .debug_str:00000000000002c6 .LASF142
     /tmp/ccIPYeEL.s:3819   .debug_str:00000000000000bd .LASF143
     /tmp/ccIPYeEL.s:3993   .debug_str:00000000000005d5 .LASF144
     /tmp/ccIPYeEL.s:3807   .debug_str:0000000000000046 .LASF145
     /tmp/ccIPYeEL.s:3797   .debug_str:0000000000000000 .LASF146
     /tmp/ccIPYeEL.s:4121   .debug_str:0000000000000984 .LASF147
     /tmp/ccIPYeEL.s:4117   .debug_str:000000000000096a .LASF148
     /tmp/ccIPYeEL.s:4169   .debug_str:0000000000000b02 .LASF149
     /tmp/ccIPYeEL.s:4013   .debug_str:000000000000066f .LASF150
     /tmp/ccIPYeEL.s:4213   .debug_str:0000000000000d13 .LASF151
     /tmp/ccIPYeEL.s:3931   .debug_str:00000000000003e8 .LASF229
     /tmp/ccIPYeEL.s:3875   .debug_str:000000000000025d .LASF153
     /tmp/ccIPYeEL.s:4157   .debug_str:0000000000000a9f .LASF154
     /tmp/ccIPYeEL.s:4219   .debug_str:0000000000000d36 .LASF155
     /tmp/ccIPYeEL.s:4207   .debug_str:0000000000000cd1 .LASF230
GAS LISTING /tmp/ccIPYeEL.s 			page 21


     /tmp/ccIPYeEL.s:3901   .debug_str:0000000000000312 .LASF156
     /tmp/ccIPYeEL.s:3973   .debug_str:0000000000000557 .LASF157
     /tmp/ccIPYeEL.s:3941   .debug_str:0000000000000443 .LASF158
     /tmp/ccIPYeEL.s:3937   .debug_str:000000000000041d .LASF159
     /tmp/ccIPYeEL.s:4125   .debug_str:00000000000009bc .LASF160
     /tmp/ccIPYeEL.s:4251   .debug_str:0000000000000e0c .LASF161
     /tmp/ccIPYeEL.s:3939   .debug_str:0000000000000428 .LASF162
     /tmp/ccIPYeEL.s:4197   .debug_str:0000000000000c8b .LASF165
     /tmp/ccIPYeEL.s:4191   .debug_str:0000000000000c54 .LASF167
     /tmp/ccIPYeEL.s:4253   .debug_str:0000000000000e1a .LASF163
     /tmp/ccIPYeEL.s:4043   .debug_str:0000000000000747 .LASF164
     /tmp/ccIPYeEL.s:4073   .debug_str:0000000000000825 .LASF166
     /tmp/ccIPYeEL.s:4077   .debug_str:000000000000083b .LASF168
     /tmp/ccIPYeEL.s:4033   .debug_str:0000000000000712 .LASF169
     /tmp/ccIPYeEL.s:3971   .debug_str:0000000000000544 .LASF170
     /tmp/ccIPYeEL.s:3961   .debug_str:00000000000004e9 .LASF171
     /tmp/ccIPYeEL.s:3985   .debug_str:00000000000005af .LASF172
     /tmp/ccIPYeEL.s:4225   .debug_str:0000000000000d62 .LASF173
     /tmp/ccIPYeEL.s:4181   .debug_str:0000000000000bfc .LASF174
     /tmp/ccIPYeEL.s:4025   .debug_str:00000000000006da .LASF175
     /tmp/ccIPYeEL.s:4243   .debug_str:0000000000000dba .LASF176
     /tmp/ccIPYeEL.s:4009   .debug_str:0000000000000662 .LASF177
     /tmp/ccIPYeEL.s:4079   .debug_str:000000000000084e .LASF178
     /tmp/ccIPYeEL.s:4255   .debug_str:0000000000000e23 .LASF179
     /tmp/ccIPYeEL.s:3951   .debug_str:0000000000000492 .LASF180
     /tmp/ccIPYeEL.s:3825   .debug_str:00000000000000ed .LASF181
     /tmp/ccIPYeEL.s:4113   .debug_str:0000000000000950 .LASF182
     /tmp/ccIPYeEL.s:4115   .debug_str:0000000000000963 .LASF183
     /tmp/ccIPYeEL.s:3857   .debug_str:00000000000001cf .LASF184
     /tmp/ccIPYeEL.s:4111   .debug_str:000000000000094a .LASF185
     /tmp/ccIPYeEL.s:4165   .debug_str:0000000000000adc .LASF186
     /tmp/ccIPYeEL.s:3949   .debug_str:000000000000048c .LASF187
     /tmp/ccIPYeEL.s:3885   .debug_str:00000000000002a6 .LASF188
     /tmp/ccIPYeEL.s:3815   .debug_str:0000000000000091 .LASF189
     /tmp/ccIPYeEL.s:4103   .debug_str:000000000000091a .LASF190
     /tmp/ccIPYeEL.s:4195   .debug_str:0000000000000c80 .LASF191
     /tmp/ccIPYeEL.s:4247   .debug_str:0000000000000de7 .LASF192
     /tmp/ccIPYeEL.s:4221   .debug_str:0000000000000d3c .LASF193
     /tmp/ccIPYeEL.s:3955   .debug_str:00000000000004af .LASF194
     /tmp/ccIPYeEL.s:4215   .debug_str:0000000000000d23 .LASF195
     /tmp/ccIPYeEL.s:3999   .debug_str:00000000000005ff .LASF196
     /tmp/ccIPYeEL.s:4231   .debug_str:0000000000000d7b .LASF197
     /tmp/ccIPYeEL.s:3899   .debug_str:0000000000000304 .LASF198
     /tmp/ccIPYeEL.s:4245   .debug_str:0000000000000dce .LASF200
     /tmp/ccIPYeEL.s:4019   .debug_str:000000000000069f .LASF202
     /tmp/ccIPYeEL.s:4063   .debug_str:00000000000007e2 .LASF203
     /tmp/ccIPYeEL.s:3945   .debug_str:000000000000045b .LASF204
     /tmp/ccIPYeEL.s:4161   .debug_str:0000000000000aaf .LASF205
     /tmp/ccIPYeEL.s:3967   .debug_str:0000000000000502 .LASF206
     /tmp/ccIPYeEL.s:4237   .debug_str:0000000000000d9d .LASF207
     /tmp/ccIPYeEL.s:4045   .debug_str:000000000000075c .LASF208
     /tmp/ccIPYeEL.s:399    .text:00000000000002e0 .LFE42
     /tmp/ccIPYeEL.s:4239   .debug_str:0000000000000dad .LASF209
     /tmp/ccIPYeEL.s:3679   .debug_loc:0000000000000000 .LLST3
     /tmp/ccIPYeEL.s:4085   .debug_str:0000000000000877 .LASF210
     /tmp/ccIPYeEL.s:3690   .debug_loc:0000000000000036 .LLST4
     /tmp/ccIPYeEL.s:3705   .debug_loc:0000000000000072 .LLST5
GAS LISTING /tmp/ccIPYeEL.s 			page 22


     /tmp/ccIPYeEL.s:187    .text:000000000000011c .LBB10
     /tmp/ccIPYeEL.s:199    .text:0000000000000120 .LBE10
     /tmp/ccIPYeEL.s:258    .text:00000000000001b4 .LBB12
     /tmp/ccIPYeEL.s:270    .text:00000000000001bc .LBE12
     /tmp/ccIPYeEL.s:3724   .debug_loc:00000000000000ce .LLST6
     /tmp/ccIPYeEL.s:333    .text:0000000000000254 .LBB14
     /tmp/ccIPYeEL.s:345    .text:000000000000025c .LBE14
     /tmp/ccIPYeEL.s:3732   .debug_loc:00000000000000f2 .LLST7
     /tmp/ccIPYeEL.s:158    .text:00000000000000d8 .LVL8
     /tmp/ccIPYeEL.s:163    .text:00000000000000e4 .LVL9
     /tmp/ccIPYeEL.s:173    .text:00000000000000fc .LVL10
     /tmp/ccIPYeEL.s:178    .text:0000000000000108 .LVL11
     /tmp/ccIPYeEL.s:215    .text:000000000000013c .LVL14
     /tmp/ccIPYeEL.s:230    .text:0000000000000158 .LVL17
     /tmp/ccIPYeEL.s:237    .text:0000000000000174 .LVL18
     /tmp/ccIPYeEL.s:245    .text:000000000000018c .LVL19
     /tmp/ccIPYeEL.s:252    .text:00000000000001a8 .LVL20
     /tmp/ccIPYeEL.s:275    .text:00000000000001c8 .LVL23
     /tmp/ccIPYeEL.s:282    .text:00000000000001e4 .LVL24
     /tmp/ccIPYeEL.s:291    .text:00000000000001f8 .LVL27
     /tmp/ccIPYeEL.s:299    .text:000000000000020c .LVL28
     /tmp/ccIPYeEL.s:305    .text:0000000000000218 .LVL29
     /tmp/ccIPYeEL.s:315    .text:000000000000022c .LVL31
     /tmp/ccIPYeEL.s:319    .text:0000000000000238 .LVL32
     /tmp/ccIPYeEL.s:326    .text:0000000000000248 .LVL33
     /tmp/ccIPYeEL.s:330    .text:0000000000000254 .LVL34
     /tmp/ccIPYeEL.s:351    .text:0000000000000270 .LVL36
     /tmp/ccIPYeEL.s:357    .text:0000000000000284 .LVL37
     /tmp/ccIPYeEL.s:363    .text:0000000000000298 .LVL38
     /tmp/ccIPYeEL.s:369    .text:00000000000002ac .LVL39
     /tmp/ccIPYeEL.s:374    .text:00000000000002b8 .LVL40
     /tmp/ccIPYeEL.s:379    .text:00000000000002c4 .LVL41
     /tmp/ccIPYeEL.s:4067   .debug_str:000000000000080c .LASF211
     /tmp/ccIPYeEL.s:4037   .debug_str:0000000000000727 .LASF212
     /tmp/ccIPYeEL.s:71     .text:0000000000000044 .LFB41
     /tmp/ccIPYeEL.s:130    .text:00000000000000b4 .LFE41
     /tmp/ccIPYeEL.s:3740   .debug_loc:0000000000000116 .LLST2
     /tmp/ccIPYeEL.s:88     .text:0000000000000058 .LBB8
     /tmp/ccIPYeEL.s:128    .text:00000000000000b4 .LBE8
     /tmp/ccIPYeEL.s:3869   .debug_str:000000000000022d .LASF213
     /tmp/ccIPYeEL.s:105    .text:000000000000007c .LBB9
     /tmp/ccIPYeEL.s:125    .text:00000000000000b0 .LBE9
     /tmp/ccIPYeEL.s:111    .text:0000000000000090 .LVL7
     /tmp/ccIPYeEL.s:3979   .debug_str:000000000000057c .LASF214
     /tmp/ccIPYeEL.s:4065   .debug_str:00000000000007f9 .LASF215
     /tmp/ccIPYeEL.s:39     .text:000000000000001c .LFB40
     /tmp/ccIPYeEL.s:65     .text:0000000000000044 .LFE40
     /tmp/ccIPYeEL.s:3754   .debug_loc:000000000000014f .LLST1
     /tmp/ccIPYeEL.s:54     .text:0000000000000034 .LVL4
     /tmp/ccIPYeEL.s:3997   .debug_str:00000000000005f1 .LASF216
     /tmp/ccIPYeEL.s:4167   .debug_str:0000000000000aee .LASF217
     /tmp/ccIPYeEL.s:10     .text:0000000000000000 .LFB39
     /tmp/ccIPYeEL.s:33     .text:000000000000001c .LFE39
     /tmp/ccIPYeEL.s:3768   .debug_loc:0000000000000188 .LLST0
     /tmp/ccIPYeEL.s:29     .text:0000000000000018 .LVL2
     /tmp/ccIPYeEL.s:3829   .debug_str:00000000000000f9 .LASF218
     /tmp/ccIPYeEL.s:3987   .debug_str:00000000000005c0 .LASF219
GAS LISTING /tmp/ccIPYeEL.s 			page 23


     /tmp/ccIPYeEL.s:4233   .debug_str:0000000000000d88 .LASF231
     /tmp/ccIPYeEL.s:3925   .debug_str:00000000000003a8 .LASF232
     /tmp/ccIPYeEL.s:4001   .debug_str:0000000000000615 .LASF220
     /tmp/ccIPYeEL.s:4061   .debug_str:00000000000007d9 .LASF222
     /tmp/ccIPYeEL.s:4007   .debug_str:000000000000064d .LASF221
     /tmp/ccIPYeEL.s:4209   .debug_str:0000000000000ce0 .LASF223
     /tmp/ccIPYeEL.s:217    .text:0000000000000140 .LVL15
     /tmp/ccIPYeEL.s:309    .text:000000000000021c .LVL30
     /tmp/ccIPYeEL.s:391    .text:00000000000002d4 .LVL42
     /tmp/ccIPYeEL.s:223    .text:000000000000014c .LVL16
     /tmp/ccIPYeEL.s:284    .text:00000000000001e8 .LVL25
     /tmp/ccIPYeEL.s:289    .text:00000000000001f0 .LVL26
     /tmp/ccIPYeEL.s:394    .text:00000000000002d8 .LVL43
     /tmp/ccIPYeEL.s:257    .text:00000000000001b4 .LVL21
     /tmp/ccIPYeEL.s:267    .text:00000000000001bc .LVL22
     /tmp/ccIPYeEL.s:342    .text:000000000000025c .LVL35
     /tmp/ccIPYeEL.s:74     .text:0000000000000044 .LVL5
     /tmp/ccIPYeEL.s:85     .text:0000000000000058 .LVL6
     /tmp/ccIPYeEL.s:42     .text:000000000000001c .LVL3
     /tmp/ccIPYeEL.s:14     .text:0000000000000000 .LVL0
     /tmp/ccIPYeEL.s:23     .text:0000000000000010 .LVL1
     /tmp/ccIPYeEL.s:446    .debug_info:0000000000000000 .Ldebug_info0
     /tmp/ccIPYeEL.s:402    .gcc_except_table:0000000000000000 .LLSDA42

UNDEFINED SYMBOLS
_Z15thread_dispatchv
_Z8userMainv
CONSOLE_STATUS
_ZN5Riscv13output_bufferE
_ZN7_Buffer3getEv
CONSOLE_TX_DATA
_ZN7_BuffernwEm
_ZN7_BufferC1Ev
_ZN5Riscv12input_bufferE
supervisorTrap
_ZN3TCB12createThreadEPFvPvES0_Pmb
_ZN3TCB7runningE
_ZN15MemoryAllocator9mem_allocEm
_ZN3TCB16createIdleThreadEPFvPvES0_Pmb
_ZN3TCB4idleE
_ZN3TCB3outE
_ZN3TCB4joinEPS_
_ZN7_Buffer5countEv
_ZN3TCB8dispatchEv
_ZN7_BufferdlEPv
_Unwind_Resume
_ZN15MemoryAllocator8mem_freeEPv
__gxx_personality_v0
