GAS LISTING /tmp/ccLp11oR.s 			page 1


   1              		.file	"probasleep.cpp"
   2              		.option pic
   3              		.option norelax
   4              		.text
   5              	.Ltext0:
   6              		.align	2
   7              		.globl	_Z6sleepAPv
   9              	_Z6sleepAPv:
  10              	.LFB0:
  11              		.file 1 "src/probasleep.cpp"
   1:src/probasleep.cpp **** //
   2:src/probasleep.cpp **** // Created by os on 9/2/23.
   3:src/probasleep.cpp **** //
   4:src/probasleep.cpp **** 
   5:src/probasleep.cpp **** #include "../h/syscall_c.h"
   6:src/probasleep.cpp **** 
   7:src/probasleep.cpp **** 
   8:src/probasleep.cpp **** void sleepA(void* arg)
   9:src/probasleep.cpp **** {
  12              		.loc 1 9 1
  13              		.cfi_startproc
  14              	.LVL0:
  15 0000 130101FF 		addi	sp,sp,-16
  16              		.cfi_def_cfa_offset 16
  17 0004 23341100 		sd	ra,8(sp)
  18 0008 23308100 		sd	s0,0(sp)
  19              		.cfi_offset 1, -8
  20              		.cfi_offset 8, -16
  21 000c 13040101 		addi	s0,sp,16
  22              		.cfi_def_cfa 8, 0
  10:src/probasleep.cpp ****     time_sleep(100);
  23              		.loc 1 10 5
  24              		.loc 1 10 15 is_stmt 0
  25 0010 13054006 		li	a0,100
  26              	.LVL1:
  27 0014 97000000 		call	_Z10time_sleepm@plt
  27      E7800000 
  28              	.LVL2:
  11:src/probasleep.cpp ****     putc('G');
  29              		.loc 1 11 5 is_stmt 1
  30              		.loc 1 11 9 is_stmt 0
  31 001c 13057004 		li	a0,71
  32 0020 97000000 		call	_Z4putcc@plt
  32      E7800000 
  33              	.LVL3:
  12:src/probasleep.cpp ****     putc('\n');
  34              		.loc 1 12 5 is_stmt 1
  35              		.loc 1 12 9 is_stmt 0
  36 0028 1305A000 		li	a0,10
  37 002c 97000000 		call	_Z4putcc@plt
  37      E7800000 
  38              	.LVL4:
  13:src/probasleep.cpp **** }
  39              		.loc 1 13 1
  40 0034 83308100 		ld	ra,8(sp)
  41              		.cfi_restore 1
  42 0038 03340100 		ld	s0,0(sp)
GAS LISTING /tmp/ccLp11oR.s 			page 2


  43              		.cfi_restore 8
  44              		.cfi_def_cfa 2, 16
  45 003c 13010101 		addi	sp,sp,16
  46              		.cfi_def_cfa_offset 0
  47 0040 67800000 		jr	ra
  48              		.cfi_endproc
  49              	.LFE0:
  51              		.align	2
  52              		.globl	_Z6sleepBPv
  54              	_Z6sleepBPv:
  55              	.LFB1:
  14:src/probasleep.cpp **** 
  15:src/probasleep.cpp **** 
  16:src/probasleep.cpp **** void sleepB(void* arg)
  17:src/probasleep.cpp **** {
  56              		.loc 1 17 1 is_stmt 1
  57              		.cfi_startproc
  58              	.LVL5:
  59 0044 130101FF 		addi	sp,sp,-16
  60              		.cfi_def_cfa_offset 16
  61 0048 23341100 		sd	ra,8(sp)
  62 004c 23308100 		sd	s0,0(sp)
  63              		.cfi_offset 1, -8
  64              		.cfi_offset 8, -16
  65 0050 13040101 		addi	s0,sp,16
  66              		.cfi_def_cfa 8, 0
  18:src/probasleep.cpp ****     time_sleep(200);
  67              		.loc 1 18 5
  68              		.loc 1 18 15 is_stmt 0
  69 0054 1305800C 		li	a0,200
  70              	.LVL6:
  71 0058 97000000 		call	_Z10time_sleepm@plt
  71      E7800000 
  72              	.LVL7:
  19:src/probasleep.cpp ****     putc('N');
  73              		.loc 1 19 5 is_stmt 1
  74              		.loc 1 19 9 is_stmt 0
  75 0060 1305E004 		li	a0,78
  76 0064 97000000 		call	_Z4putcc@plt
  76      E7800000 
  77              	.LVL8:
  20:src/probasleep.cpp ****     putc('\n');
  78              		.loc 1 20 5 is_stmt 1
  79              		.loc 1 20 9 is_stmt 0
  80 006c 1305A000 		li	a0,10
  81 0070 97000000 		call	_Z4putcc@plt
  81      E7800000 
  82              	.LVL9:
  21:src/probasleep.cpp **** }
  83              		.loc 1 21 1
  84 0078 83308100 		ld	ra,8(sp)
  85              		.cfi_restore 1
  86 007c 03340100 		ld	s0,0(sp)
  87              		.cfi_restore 8
  88              		.cfi_def_cfa 2, 16
  89 0080 13010101 		addi	sp,sp,16
  90              		.cfi_def_cfa_offset 0
GAS LISTING /tmp/ccLp11oR.s 			page 3


  91 0084 67800000 		jr	ra
  92              		.cfi_endproc
  93              	.LFE1:
  95              		.align	2
  96              		.globl	_Z10probasleepv
  98              	_Z10probasleepv:
  99              	.LFB2:
  22:src/probasleep.cpp **** 
  23:src/probasleep.cpp **** void probasleep()
  24:src/probasleep.cpp **** {
 100              		.loc 1 24 1 is_stmt 1
 101              		.cfi_startproc
 102 0088 130101FE 		addi	sp,sp,-32
 103              		.cfi_def_cfa_offset 32
 104 008c 233C1100 		sd	ra,24(sp)
 105 0090 23388100 		sd	s0,16(sp)
 106              		.cfi_offset 1, -8
 107              		.cfi_offset 8, -16
 108 0094 13040102 		addi	s0,sp,32
 109              		.cfi_def_cfa 8, 0
  25:src/probasleep.cpp **** 
  26:src/probasleep.cpp ****     thread_t a;
 110              		.loc 1 26 5
  27:src/probasleep.cpp ****     thread_t b;
 111              		.loc 1 27 5
  28:src/probasleep.cpp ****     thread_create(&a,&sleepA, nullptr);
 112              		.loc 1 28 5
 113              		.loc 1 28 18 is_stmt 0
 114 0098 13060000 		li	a2,0
 115 009c 97050000 		lla	a1,_Z6sleepAPv
 115      93850500 
 116 00a4 130584FE 		addi	a0,s0,-24
 117 00a8 97000000 		call	_Z13thread_createPP3TCBPFvPvES2_@plt
 117      E7800000 
 118              	.LVL10:
  29:src/probasleep.cpp ****     thread_create(&b,&sleepB, nullptr);
 119              		.loc 1 29 5 is_stmt 1
 120              		.loc 1 29 18 is_stmt 0
 121 00b0 13060000 		li	a2,0
 122 00b4 97050000 		lla	a1,_Z6sleepBPv
 122      93850500 
 123 00bc 130504FE 		addi	a0,s0,-32
 124 00c0 97000000 		call	_Z13thread_createPP3TCBPFvPvES2_@plt
 124      E7800000 
 125              	.LVL11:
 126              	.L6:
  30:src/probasleep.cpp ****     while (true){thread_dispatch();}
 127              		.loc 1 30 5 is_stmt 1
 128              		.loc 1 30 18
 129              		.loc 1 30 33 is_stmt 0
 130 00c8 97000000 		call	_Z15thread_dispatchv@plt
 130      E7800000 
 131              	.LVL12:
 132 00d0 6FF09FFF 		j	.L6
 133              		.cfi_endproc
 134              	.LFE2:
 136              	.Letext0:
GAS LISTING /tmp/ccLp11oR.s 			page 4


 137              		.file 2 "src/../h/../lib/hw.h"
 138              		.file 3 "src/../h/syscall_c.h"
GAS LISTING /tmp/ccLp11oR.s 			page 5

