GAS LISTING /tmp/cc3CYQTq.s 			page 1


   1              		.file	"proba.cpp"
   2              		.option pic
   3              		.option norelax
   4              		.text
   5              	.Ltext0:
   6              		.align	2
   7              		.globl	_Z3fjaPv
   9              	_Z3fjaPv:
  10              	.LFB0:
  11              		.file 1 "src/proba.cpp"
   1:src/proba.cpp **** 
   2:src/proba.cpp **** #include "../h/syscall_c.h"
   3:src/proba.cpp **** #include "../test/printing.hpp"
   4:src/proba.cpp **** 
   5:src/proba.cpp **** struct Data
   6:src/proba.cpp **** {
   7:src/proba.cpp ****     int* res;
   8:src/proba.cpp ****     int vrsta;
   9:src/proba.cpp ****     int kolone;
  10:src/proba.cpp ****     int* matrica;
  11:src/proba.cpp ****     sem_t  semafor;
  12:src/proba.cpp **** };
  13:src/proba.cpp **** 
  14:src/proba.cpp **** 
  15:src/proba.cpp **** 
  16:src/proba.cpp **** 
  17:src/proba.cpp **** void fja(void* a)
  18:src/proba.cpp **** {
  12              		.loc 1 18 1
  13              		.cfi_startproc
  14              	.LVL0:
  15 0000 130101FE 		addi	sp,sp,-32
  16              		.cfi_def_cfa_offset 32
  17 0004 233C1100 		sd	ra,24(sp)
  18 0008 23388100 		sd	s0,16(sp)
  19 000c 23349100 		sd	s1,8(sp)
  20 0010 23302101 		sd	s2,0(sp)
  21              		.cfi_offset 1, -8
  22              		.cfi_offset 8, -16
  23              		.cfi_offset 9, -24
  24              		.cfi_offset 18, -32
  25 0014 13040102 		addi	s0,sp,32
  26              		.cfi_def_cfa 8, 0
  27 0018 93040500 		mv	s1,a0
  19:src/proba.cpp ****    Data* data = (Data*) a;
  28              		.loc 1 19 4
  29              	.LVL1:
  20:src/proba.cpp ****    int sum=0;
  30              		.loc 1 20 4
  21:src/proba.cpp ****     for (int i = 0; i < data->kolone; ++i) {
  31              		.loc 1 21 5
  32              	.LBB2:
  33              		.loc 1 21 14 is_stmt 0
  34 001c 93070000 		li	a5,0
  35              	.LBE2:
  20:src/proba.cpp ****    int sum=0;
  36              		.loc 1 20 8
GAS LISTING /tmp/cc3CYQTq.s 			page 2


  37 0020 13090000 		li	s2,0
  38              	.LVL2:
  39              	.L3:
  40              	.LBB3:
  41              		.loc 1 21 23 is_stmt 1 discriminator 3
  42              		.loc 1 21 31 is_stmt 0 discriminator 3
  43 0024 03A7C400 		lw	a4,12(s1)
  44              		.loc 1 21 23 discriminator 3
  45 0028 63D0E702 		ble	a4,a5,.L2
  22:src/proba.cpp ****         sum+= data->matrica[i];
  46              		.loc 1 22 9 is_stmt 1 discriminator 2
  47              		.loc 1 22 21 is_stmt 0 discriminator 2
  48 002c 03B70401 		ld	a4,16(s1)
  49              		.loc 1 22 30 discriminator 2
  50 0030 93962700 		slli	a3,a5,2
  51 0034 3307D700 		add	a4,a4,a3
  52 0038 03270700 		lw	a4,0(a4)
  53              		.loc 1 22 12 discriminator 2
  54 003c 3B092701 		addw	s2,a4,s2
  55              	.LVL3:
  21:src/proba.cpp ****     for (int i = 0; i < data->kolone; ++i) {
  56              		.loc 1 21 5 is_stmt 1 discriminator 2
  57 0040 9B871700 		addiw	a5,a5,1
  58              	.LVL4:
  59 0044 6FF01FFE 		j	.L3
  60              	.LVL5:
  61              	.L2:
  62              	.LBE3:
  23:src/proba.cpp ****     }
  24:src/proba.cpp ****     sem_wait(data->semafor);
  63              		.loc 1 24 5
  64              		.loc 1 24 13 is_stmt 0
  65 0048 03B58401 		ld	a0,24(s1)
  66              	.LVL6:
  67 004c 97000000 		call	_Z8sem_waitP4_sem@plt
  67      E7800000 
  68              	.LVL7:
  25:src/proba.cpp ****     *(data->res) = *(data->res)+ sum;
  69              		.loc 1 25 5 is_stmt 1
  70              		.loc 1 25 28 is_stmt 0
  71 0054 03B70400 		ld	a4,0(s1)
  72              		.loc 1 25 20
  73 0058 83270700 		lw	a5,0(a4)
  74              		.loc 1 25 32
  75 005c 3B892701 		addw	s2,a5,s2
  76              	.LVL8:
  77              		.loc 1 25 18
  78 0060 23202701 		sw	s2,0(a4)
  26:src/proba.cpp ****     sem_signal(data->semafor);
  79              		.loc 1 26 5 is_stmt 1
  80              		.loc 1 26 15 is_stmt 0
  81 0064 03B58401 		ld	a0,24(s1)
  82 0068 97000000 		call	_Z10sem_signalP4_sem@plt
  82      E7800000 
  83              	.LVL9:
  27:src/proba.cpp ****     delete data;
  84              		.loc 1 27 5 is_stmt 1
GAS LISTING /tmp/cc3CYQTq.s 			page 3


  85              		.loc 1 27 16 is_stmt 0
  86 0070 63880400 		beqz	s1,.L1
  87              		.loc 1 27 12 discriminator 1
  88 0074 13850400 		mv	a0,s1
  89 0078 97000000 		call	_ZdlPv@plt
  89      E7800000 
  90              	.LVL10:
  91              	.L1:
  28:src/proba.cpp **** }
  92              		.loc 1 28 1
  93 0080 83308101 		ld	ra,24(sp)
  94              		.cfi_restore 1
  95 0084 03340101 		ld	s0,16(sp)
  96              		.cfi_restore 8
  97              		.cfi_def_cfa 2, 32
  98 0088 83348100 		ld	s1,8(sp)
  99              		.cfi_restore 9
 100              	.LVL11:
 101 008c 03390100 		ld	s2,0(sp)
 102              		.cfi_restore 18
 103 0090 13010102 		addi	sp,sp,32
 104              		.cfi_def_cfa_offset 0
 105 0094 67800000 		jr	ra
 106              		.cfi_endproc
 107              	.LFE0:
 109              		.section	.rodata.str1.8,"aMS",@progbits,1
 110              		.align	3
 111              	.LC0:
 112 0000 556E6573 		.string	"Unesite broj vrsta matrice:"
 112      69746520 
 112      62726F6A 
 112      20767273 
 112      7461206D 
 113 001c 00000000 		.align	3
 114              	.LC1:
 115 0020 556E6573 		.string	"Unesite broj kolona matrice:"
 115      69746520 
 115      62726F6A 
 115      206B6F6C 
 115      6F6E6120 
 116 003d 000000   		.align	3
 117              	.LC2:
 118 0040 556E6573 		.string	"Unesite elemente matrice:\n"
 118      69746520 
 118      656C656D 
 118      656E7465 
 118      206D6174 
 119              		.text
 120              		.align	2
 121              		.globl	_Z5probav
 123              	_Z5probav:
 124              	.LFB1:
  29:src/proba.cpp **** 
  30:src/proba.cpp **** void proba()
  31:src/proba.cpp **** {
 125              		.loc 1 31 1 is_stmt 1
 126              		.cfi_startproc
GAS LISTING /tmp/cc3CYQTq.s 			page 4


 127 0098 130101F8 		addi	sp,sp,-128
 128              		.cfi_def_cfa_offset 128
 129 009c 233C1106 		sd	ra,120(sp)
 130 00a0 23388106 		sd	s0,112(sp)
 131 00a4 23349106 		sd	s1,104(sp)
 132 00a8 23302107 		sd	s2,96(sp)
 133 00ac 233C3105 		sd	s3,88(sp)
 134 00b0 23384105 		sd	s4,80(sp)
 135 00b4 23345105 		sd	s5,72(sp)
 136 00b8 23306105 		sd	s6,64(sp)
 137 00bc 233C7103 		sd	s7,56(sp)
 138              		.cfi_offset 1, -8
 139              		.cfi_offset 8, -16
 140              		.cfi_offset 9, -24
 141              		.cfi_offset 18, -32
 142              		.cfi_offset 19, -40
 143              		.cfi_offset 20, -48
 144              		.cfi_offset 21, -56
 145              		.cfi_offset 22, -64
 146              		.cfi_offset 23, -72
 147 00c0 13040108 		addi	s0,sp,128
 148              		.cfi_def_cfa 8, 0
  32:src/proba.cpp ****    int n;
 149              		.loc 1 32 4
  33:src/proba.cpp ****    int m;
 150              		.loc 1 33 4
  34:src/proba.cpp ****    char string[30];
 151              		.loc 1 34 4
  35:src/proba.cpp **** 
  36:src/proba.cpp ****     printString("Unesite broj vrsta matrice:");
 152              		.loc 1 36 5
 153              		.loc 1 36 16 is_stmt 0
 154 00c4 17050000 		lla	a0,.LC0
 154      13050500 
 155 00cc 97000000 		call	_Z11printStringPKc@plt
 155      E7800000 
 156              	.LVL12:
  37:src/proba.cpp ****     getString(string,30);
 157              		.loc 1 37 5 is_stmt 1
 158              		.loc 1 37 14 is_stmt 0
 159 00d4 9305E001 		li	a1,30
 160 00d8 930404F9 		addi	s1,s0,-112
 161 00dc 13850400 		mv	a0,s1
 162 00e0 97000000 		call	_Z9getStringPci@plt
 162      E7800000 
 163              	.LVL13:
  38:src/proba.cpp ****     n = stringToInt(string);
 164              		.loc 1 38 5 is_stmt 1
 165              		.loc 1 38 20 is_stmt 0
 166 00e8 13850400 		mv	a0,s1
 167 00ec 97000000 		call	_Z11stringToIntPKc@plt
 167      E7800000 
 168              	.LVL14:
 169 00f4 130A0500 		mv	s4,a0
 170              	.LVL15:
  39:src/proba.cpp **** 
  40:src/proba.cpp ****     printString("Unesite broj kolona matrice:");
GAS LISTING /tmp/cc3CYQTq.s 			page 5


 171              		.loc 1 40 5 is_stmt 1
 172              		.loc 1 40 16 is_stmt 0
 173 00f8 17050000 		lla	a0,.LC1
 173      13050500 
 174 0100 97000000 		call	_Z11printStringPKc@plt
 174      E7800000 
 175              	.LVL16:
  41:src/proba.cpp ****     getString(string,30);
 176              		.loc 1 41 5 is_stmt 1
 177              		.loc 1 41 14 is_stmt 0
 178 0108 9305E001 		li	a1,30
 179 010c 13850400 		mv	a0,s1
 180 0110 97000000 		call	_Z9getStringPci@plt
 180      E7800000 
 181              	.LVL17:
  42:src/proba.cpp ****     m = stringToInt(string);
 182              		.loc 1 42 5 is_stmt 1
 183              		.loc 1 42 20 is_stmt 0
 184 0118 13850400 		mv	a0,s1
 185 011c 97000000 		call	_Z11stringToIntPKc@plt
 185      E7800000 
 186              	.LVL18:
 187 0124 93090500 		mv	s3,a0
 188              	.LVL19:
  43:src/proba.cpp **** 
  44:src/proba.cpp ****     int** matrica;
 189              		.loc 1 44 5 is_stmt 1
  45:src/proba.cpp ****    // matrica = new int*[n];
  46:src/proba.cpp ****     matrica = (int**) mem_alloc(sizeof(int*) * n);
 190              		.loc 1 46 5
 191              		.loc 1 46 32 is_stmt 0
 192 0128 931B3A00 		slli	s7,s4,3
 193 012c 13850B00 		mv	a0,s7
 194 0130 97000000 		call	_Z9mem_allocm@plt
 194      E7800000 
 195              	.LVL20:
 196 0138 930A0500 		mv	s5,a0
 197              	.LVL21:
  47:src/proba.cpp **** 
  48:src/proba.cpp **** 
  49:src/proba.cpp ****     printString("Unesite elemente matrice:\n");
 198              		.loc 1 49 5 is_stmt 1
 199              		.loc 1 49 16 is_stmt 0
 200 013c 17050000 		lla	a0,.LC2
 200      13050500 
 201              	.LVL22:
 202 0144 97000000 		call	_Z11printStringPKc@plt
 202      E7800000 
 203              	.LVL23:
 204              	.LBB4:
  50:src/proba.cpp ****     int broj=1;
  51:src/proba.cpp **** 
  52:src/proba.cpp ****     for (int i = 0; i <n ; ++i) {
 205              		.loc 1 52 14
 206 014c 130B0000 		li	s6,0
 207              	.LBE4:
  50:src/proba.cpp ****     int broj=1;
GAS LISTING /tmp/cc3CYQTq.s 			page 6


 208              		.loc 1 50 9
 209 0150 93041000 		li	s1,1
 210 0154 6F008000 		j	.L10
 211              	.LVL24:
 212              	.L8:
 213              	.LBB7:
 214              		.loc 1 52 5 is_stmt 1 discriminator 2
 215 0158 1B0B1B00 		addiw	s6,s6,1
 216              	.LVL25:
 217              	.L10:
 218              		.loc 1 52 23 discriminator 1
 219 015c 63504B05 		bge	s6,s4,.L7
 220              	.LBB5:
  53:src/proba.cpp ****         matrica[i] = (int*) mem_alloc(sizeof(int) * m);
 221              		.loc 1 53 9
 222              		.loc 1 53 18 is_stmt 0
 223 0160 13193B00 		slli	s2,s6,3
 224 0164 33892A01 		add	s2,s5,s2
 225              		.loc 1 53 38
 226 0168 13952900 		slli	a0,s3,2
 227 016c 97000000 		call	_Z9mem_allocm@plt
 227      E7800000 
 228              	.LVL26:
 229              		.loc 1 53 20
 230 0174 2330A900 		sd	a0,0(s2)
  54:src/proba.cpp ****         for (int j = 0; j < m; ++j) {
 231              		.loc 1 54 9 is_stmt 1
 232              	.LVL27:
 233              	.LBB6:
 234              		.loc 1 54 18 is_stmt 0
 235 0178 93070000 		li	a5,0
 236              	.LVL28:
 237              	.L9:
 238              		.loc 1 54 27 is_stmt 1 discriminator 3
 239 017c E3DE37FD 		bge	a5,s3,.L8
  55:src/proba.cpp ****      //       getString(string,30);
  56:src/proba.cpp ****       //      matrica[i][j] = stringToInt(string);
  57:src/proba.cpp ****       matrica[i][j] = broj++;
 240              		.loc 1 57 7 discriminator 2
 241              	.LVL29:
 242              		.loc 1 57 16 is_stmt 0 discriminator 2
 243 0180 03370900 		ld	a4,0(s2)
 244              		.loc 1 57 19 discriminator 2
 245 0184 93962700 		slli	a3,a5,2
 246 0188 3307D700 		add	a4,a4,a3
 247              		.loc 1 57 21 discriminator 2
 248 018c 23209700 		sw	s1,0(a4)
  54:src/proba.cpp ****         for (int j = 0; j < m; ++j) {
 249              		.loc 1 54 9 is_stmt 1 discriminator 2
 250 0190 9B871700 		addiw	a5,a5,1
 251              	.LVL30:
 252              		.loc 1 57 27 is_stmt 0 discriminator 2
 253 0194 9B841400 		addiw	s1,s1,1
 254              	.LVL31:
  54:src/proba.cpp ****         for (int j = 0; j < m; ++j) {
 255              		.loc 1 54 9 discriminator 2
 256 0198 6FF05FFE 		j	.L9
GAS LISTING /tmp/cc3CYQTq.s 			page 7


 257              	.LVL32:
 258              	.L7:
 259              	.LBE6:
 260              	.LBE5:
 261              	.LBE7:
  58:src/proba.cpp ****         }
  59:src/proba.cpp ****     }
  60:src/proba.cpp **** 
  61:src/proba.cpp ****     int res=0;
 262              		.loc 1 61 5 is_stmt 1
 263              		.loc 1 61 9 is_stmt 0
 264 019c 232604F8 		sw	zero,-116(s0)
  62:src/proba.cpp ****     thread_t*  niti = (thread_t*)mem_alloc(sizeof(thread_t) * n);
 265              		.loc 1 62 5 is_stmt 1
 266              		.loc 1 62 43 is_stmt 0
 267 01a0 13850B00 		mv	a0,s7
 268 01a4 97000000 		call	_Z9mem_allocm@plt
 268      E7800000 
 269              	.LVL33:
 270 01ac 13090500 		mv	s2,a0
 271              	.LVL34:
  63:src/proba.cpp ****     sem_t  semafor;
 272              		.loc 1 63 5 is_stmt 1
  64:src/proba.cpp ****     sem_open(&semafor,1);
 273              		.loc 1 64 5
 274              		.loc 1 64 13 is_stmt 0
 275 01b0 93051000 		li	a1,1
 276 01b4 130504F8 		addi	a0,s0,-128
 277              	.LVL35:
 278 01b8 97000000 		call	_Z8sem_openPP4_semj@plt
 278      E7800000 
 279              	.LVL36:
 280              	.LBB8:
  65:src/proba.cpp **** 
  66:src/proba.cpp **** 
  67:src/proba.cpp **** 
  68:src/proba.cpp ****     for (int i = 0; i < n; ++i) {
 281              		.loc 1 68 14
 282 01c0 93040000 		li	s1,0
 283              	.LVL37:
 284              	.L12:
 285              		.loc 1 68 23 is_stmt 1 discriminator 1
 286 01c4 63D44407 		bge	s1,s4,.L16
 287              	.LBB9:
  69:src/proba.cpp ****         Data* a = new Data();
 288              		.loc 1 69 9
 289              		.loc 1 69 28 is_stmt 0
 290 01c8 13050002 		li	a0,32
 291 01cc 97000000 		call	_Znwm@plt
 291      E7800000 
 292              	.LVL38:
 293 01d4 13060500 		mv	a2,a0
 294 01d8 23300500 		sd	zero,0(a0)
 295 01dc 23240500 		sw	zero,8(a0)
 296 01e0 23260500 		sw	zero,12(a0)
 297 01e4 23380500 		sd	zero,16(a0)
 298              	.LVL39:
GAS LISTING /tmp/cc3CYQTq.s 			page 8


  70:src/proba.cpp ****         a->semafor=semafor;
 299              		.loc 1 70 9 is_stmt 1
 300              		.loc 1 70 19 is_stmt 0
 301 01e8 833704F8 		ld	a5,-128(s0)
 302 01ec 233CF500 		sd	a5,24(a0)
  71:src/proba.cpp ****         a->matrica=matrica[i];
 303              		.loc 1 71 9 is_stmt 1
 304              		.loc 1 71 29 is_stmt 0
 305 01f0 13953400 		slli	a0,s1,3
 306              	.LVL40:
 307 01f4 B387AA00 		add	a5,s5,a0
 308 01f8 83B70700 		ld	a5,0(a5)
 309              		.loc 1 71 19
 310 01fc 2338F600 		sd	a5,16(a2)
  72:src/proba.cpp ****         a->res=&res;
 311              		.loc 1 72 9 is_stmt 1
 312              		.loc 1 72 15 is_stmt 0
 313 0200 9307C4F8 		addi	a5,s0,-116
 314 0204 2330F600 		sd	a5,0(a2)
  73:src/proba.cpp ****         a->vrsta=i;
 315              		.loc 1 73 9 is_stmt 1
 316              		.loc 1 73 17 is_stmt 0
 317 0208 23249600 		sw	s1,8(a2)
  74:src/proba.cpp ****         a->kolone=m;
 318              		.loc 1 74 9 is_stmt 1
 319              		.loc 1 74 18 is_stmt 0
 320 020c 23263601 		sw	s3,12(a2)
  75:src/proba.cpp ****         thread_create(&niti[i], fja,a);
 321              		.loc 1 75 9 is_stmt 1
 322              		.loc 1 75 22 is_stmt 0
 323 0210 97050000 		lla	a1,_Z3fjaPv
 323      93850500 
 324 0218 3305A900 		add	a0,s2,a0
 325 021c 97000000 		call	_Z13thread_createPP3TCBPFvPvES2_@plt
 325      E7800000 
 326              	.LVL41:
 327              	.LBE9:
  68:src/proba.cpp ****         Data* a = new Data();
 328              		.loc 1 68 5 is_stmt 1
 329 0224 9B841400 		addiw	s1,s1,1
 330              	.LVL42:
 331 0228 6FF0DFF9 		j	.L12
 332              	.LVL43:
 333              	.L16:
 334              	.LBE8:
 335              	.LBB10:
  76:src/proba.cpp ****     }
  77:src/proba.cpp **** 
  78:src/proba.cpp **** 
  79:src/proba.cpp ****     for (int i = 0; i < n; ++i) {
 336              		.loc 1 79 14 is_stmt 0
 337 022c 93040000 		li	s1,0
 338              	.LVL44:
 339              	.L11:
 340              		.loc 1 79 23 is_stmt 1 discriminator 1
 341 0230 63D04403 		bge	s1,s4,.L13
  80:src/proba.cpp ****         thread_join(niti[i]);
GAS LISTING /tmp/cc3CYQTq.s 			page 9


 342              		.loc 1 80 9
 343              		.loc 1 80 27 is_stmt 0
 344 0234 93973400 		slli	a5,s1,3
 345 0238 B307F900 		add	a5,s2,a5
 346              		.loc 1 80 20
 347 023c 03B50700 		ld	a0,0(a5)
 348 0240 97000000 		call	_Z11thread_joinP3TCB@plt
 348      E7800000 
 349              	.LVL45:
  79:src/proba.cpp ****         thread_join(niti[i]);
 350              		.loc 1 79 5 is_stmt 1
 351 0248 9B841400 		addiw	s1,s1,1
 352              	.LVL46:
 353 024c 6FF05FFE 		j	.L11
 354              	.LVL47:
 355              	.L13:
 356              	.LBE10:
  81:src/proba.cpp ****     }
  82:src/proba.cpp **** 
  83:src/proba.cpp ****     printInt(res);
 357              		.loc 1 83 5
 358              		.loc 1 83 13 is_stmt 0
 359 0250 13060000 		li	a2,0
 360 0254 9305A000 		li	a1,10
 361 0258 0325C4F8 		lw	a0,-116(s0)
 362 025c 97000000 		call	_Z8printIntiii@plt
 362      E7800000 
 363              	.LVL48:
  84:src/proba.cpp ****     putc('\n');
 364              		.loc 1 84 5 is_stmt 1
 365              		.loc 1 84 9 is_stmt 0
 366 0264 1305A000 		li	a0,10
 367 0268 97000000 		call	_Z4putcc@plt
 367      E7800000 
 368              	.LVL49:
 369              	.LBB11:
  85:src/proba.cpp **** 
  86:src/proba.cpp ****     for (int i = 0; i <n ; ++i) {
 370              		.loc 1 86 14
 371 0270 93040000 		li	s1,0
 372              	.LVL50:
 373              	.L15:
 374              		.loc 1 86 23 is_stmt 1 discriminator 1
 375 0274 63D04403 		bge	s1,s4,.L14
  87:src/proba.cpp ****         mem_free(matrica[i]);
 376              		.loc 1 87 9
 377              		.loc 1 87 27 is_stmt 0
 378 0278 93973400 		slli	a5,s1,3
 379 027c B387FA00 		add	a5,s5,a5
 380              		.loc 1 87 17
 381 0280 03B50700 		ld	a0,0(a5)
 382 0284 97000000 		call	_Z8mem_freePv@plt
 382      E7800000 
 383              	.LVL51:
  86:src/proba.cpp ****         mem_free(matrica[i]);
 384              		.loc 1 86 5 is_stmt 1
 385 028c 9B841400 		addiw	s1,s1,1
GAS LISTING /tmp/cc3CYQTq.s 			page 10


 386              	.LVL52:
 387 0290 6FF05FFE 		j	.L15
 388              	.LVL53:
 389              	.L14:
 390              	.LBE11:
  88:src/proba.cpp ****     }
  89:src/proba.cpp ****     mem_free(matrica);
 391              		.loc 1 89 5
 392              		.loc 1 89 13 is_stmt 0
 393 0294 13850A00 		mv	a0,s5
 394 0298 97000000 		call	_Z8mem_freePv@plt
 394      E7800000 
 395              	.LVL54:
  90:src/proba.cpp ****     mem_free(niti);
 396              		.loc 1 90 5 is_stmt 1
 397              		.loc 1 90 13 is_stmt 0
 398 02a0 13050900 		mv	a0,s2
 399 02a4 97000000 		call	_Z8mem_freePv@plt
 399      E7800000 
 400              	.LVL55:
  91:src/proba.cpp **** 
  92:src/proba.cpp **** }...
 401              		.loc 1 92 1
 402 02ac 83308107 		ld	ra,120(sp)
 403              		.cfi_restore 1
 404 02b0 03340107 		ld	s0,112(sp)
 405              		.cfi_restore 8
 406              		.cfi_def_cfa 2, 128
 407 02b4 83348106 		ld	s1,104(sp)
 408              		.cfi_restore 9
 409              	.LVL56:
 410 02b8 03390106 		ld	s2,96(sp)
 411              		.cfi_restore 18
 412              	.LVL57:
 413 02bc 83398105 		ld	s3,88(sp)
 414              		.cfi_restore 19
 415              	.LVL58:
 416 02c0 033A0105 		ld	s4,80(sp)
 417              		.cfi_restore 20
 418              	.LVL59:
 419 02c4 833A8104 		ld	s5,72(sp)
 420              		.cfi_restore 21
 421              	.LVL60:
 422 02c8 033B0104 		ld	s6,64(sp)
 423              		.cfi_restore 22
 424              	.LVL61:
 425 02cc 833B8103 		ld	s7,56(sp)
 426              		.cfi_restore 23
 427 02d0 13010108 		addi	sp,sp,128
 428              		.cfi_def_cfa_offset 0
 429 02d4 67800000 		jr	ra
 430              		.cfi_endproc
 431              	.LFE1:
 433              	.Letext0:
 434              		.file 2 "src/../h/../lib/hw.h"
 435              		.file 3 "src/../h/syscall_c.h"
 436              		.file 4 "src/../test/printing.hpp"
GAS LISTING /tmp/cc3CYQTq.s 			page 11


GAS LISTING /tmp/cc3CYQTq.s 			page 12

