GAS LISTING /tmp/ccoFpYJG.s 			page 1


   1              		.file	"riscv.cpp"
   2              		.option pic
   3              		.option norelax
   4              		.text
   5              	.Ltext0:
   6              		.align	2
   7              		.globl	_ZN5Riscv10popSppSpieEv
   9              	_ZN5Riscv10popSppSpieEv:
  10              	.LFB42:
  11              		.file 1 "src/riscv.cpp"
   1:src/riscv.cpp **** //
   2:src/riscv.cpp **** // Created by os on 4/17/23.
   3:src/riscv.cpp **** //
   4:src/riscv.cpp **** 
   5:src/riscv.cpp **** #include "../h/riscv.hpp"
   6:src/riscv.cpp **** 
   7:src/riscv.cpp **** 
   8:src/riscv.cpp **** #include "../test/printing.hpp"
   9:src/riscv.cpp **** #include "../lib/hw.h"
  10:src/riscv.cpp **** #include "../lib/console.h"
  11:src/riscv.cpp **** SleepingList Riscv::SleepingThreads;
  12:src/riscv.cpp **** _Buffer* Riscv::input_buffer = nullptr;
  13:src/riscv.cpp **** _Buffer* Riscv::output_buffer= nullptr;
  14:src/riscv.cpp **** 
  15:src/riscv.cpp **** void Riscv::popSppSpie()
  16:src/riscv.cpp **** {
  12              		.loc 1 16 1
  13              		.cfi_startproc
  14 0000 130101FF 		addi	sp,sp,-16
  15              		.cfi_def_cfa_offset 16
  16 0004 23348100 		sd	s0,8(sp)
  17              		.cfi_offset 8, -8
  18 0008 13040101 		addi	s0,sp,16
  19              		.cfi_def_cfa 8, 0
  17:src/riscv.cpp ****     __asm__ volatile("csrw sepc, ra");
  20              		.loc 1 17 5
  21              		.loc 1 17 38 is_stmt 0
  22              	#APP
  23              	# 17 "src/riscv.cpp" 1
  18              	    __asm__ volatile("sret");
  24              		csrw sepc, ra
  25              	# 0 "" 2
  26              		.loc 1 18 5 is_stmt 1
  27              		.loc 1 18 29 is_stmt 0
  28              	# 18 "src/riscv.cpp" 1
  19              	}
  29              		sret
  30              	# 0 "" 2
  31              		.loc 1 19 1
  32              	#NO_APP
  33 0014 03348100 		ld	s0,8(sp)
  34              		.cfi_restore 8
  35              		.cfi_def_cfa 2, 16
  36 0018 13010101 		addi	sp,sp,16
  37              		.cfi_def_cfa_offset 0
  38 001c 67800000 		jr	ra
  39              		.cfi_endproc
GAS LISTING /tmp/ccoFpYJG.s 			page 2


  40              	.LFE42:
  42              		.align	2
  43              		.globl	_ZN5Riscv13setThreadModeEv
  45              	_ZN5Riscv13setThreadModeEv:
  46              	.LFB43:
  20:src/riscv.cpp **** 
  21:src/riscv.cpp **** void Riscv::setThreadMode()
  22:src/riscv.cpp **** {
  47              		.loc 1 22 1 is_stmt 1
  48              		.cfi_startproc
  49 0020 130101FF 		addi	sp,sp,-16
  50              		.cfi_def_cfa_offset 16
  51 0024 23348100 		sd	s0,8(sp)
  52              		.cfi_offset 8, -8
  53 0028 13040101 		addi	s0,sp,16
  54              		.cfi_def_cfa 8, 0
  23:src/riscv.cpp **** 
  24:src/riscv.cpp ****     // Vracamo nit u odgovarajuci mode rada
  25:src/riscv.cpp ****     if (TCB::running->isSystemThread())
  55              		.loc 1 25 5
  56              		.loc 1 25 37 is_stmt 0
  57 002c 97070000 		la	a5,_ZN3TCB7runningE
  57      83B70700 
  58 0034 83B70700 		ld	a5,0(a5)
  59              	.LVL0:
  60              	.LBB74:
  61              	.LBB75:
  62              		.file 2 "src/../h/../h/TCB.hpp"
   1:src/../h/../h/TCB.hpp **** //
   2:src/../h/../h/TCB.hpp **** // Created by os on 4/28/23.
   3:src/../h/../h/TCB.hpp **** //
   4:src/../h/../h/TCB.hpp **** 
   5:src/../h/../h/TCB.hpp **** 
   6:src/../h/../h/TCB.hpp **** #ifndef OS1_VEZBE07_RISCV_CONTEXT_SWITCH_2_INTERRUPT_TCB_HPP
   7:src/../h/../h/TCB.hpp **** #define OS1_VEZBE07_RISCV_CONTEXT_SWITCH_2_INTERRUPT_TCB_HPP
   8:src/../h/../h/TCB.hpp **** 
   9:src/../h/../h/TCB.hpp **** #include "../lib/hw.h"
  10:src/../h/../h/TCB.hpp **** 
  11:src/../h/../h/TCB.hpp **** #include "../h/MemoryAllocator.hpp"
  12:src/../h/../h/TCB.hpp **** #include "../h/syscall_c.h"
  13:src/../h/../h/TCB.hpp **** 
  14:src/../h/../h/TCB.hpp **** 
  15:src/../h/../h/TCB.hpp **** 
  16:src/../h/../h/TCB.hpp **** // Thread Control Block
  17:src/../h/../h/TCB.hpp **** class TCB
  18:src/../h/../h/TCB.hpp **** {
  19:src/../h/../h/TCB.hpp **** public:
  20:src/../h/../h/TCB.hpp **** 
  21:src/../h/../h/TCB.hpp **** 
  22:src/../h/../h/TCB.hpp ****     ~TCB() {
  23:src/../h/../h/TCB.hpp ****         delete[] stack;
  24:src/../h/../h/TCB.hpp ****         }
  25:src/../h/../h/TCB.hpp **** 
  26:src/../h/../h/TCB.hpp ****     bool isFinished() const { return finished; }
  27:src/../h/../h/TCB.hpp **** 
  28:src/../h/../h/TCB.hpp ****     bool isBlocked() const { return blocked; }
  29:src/../h/../h/TCB.hpp **** 
GAS LISTING /tmp/ccoFpYJG.s 			page 3


  30:src/../h/../h/TCB.hpp ****     bool isStarted() const { return started; }
  31:src/../h/../h/TCB.hpp **** 
  32:src/../h/../h/TCB.hpp ****     bool isSystemThread() { return system_thread;}
  63              		.loc 2 32 29 is_stmt 1
  64              		.loc 2 32 36 is_stmt 0
  65 0038 83C73703 		lbu	a5,51(a5)
  66              	.LVL1:
  67              	.LBE75:
  68              	.LBE74:
  69              		.loc 1 25 5
  70 003c 638C0700 		beqz	a5,.L4
  26:src/riscv.cpp ****     {
  27:src/riscv.cpp ****         ms_sstatus(SSTATUS_SPP);
  71              		.loc 1 27 9 is_stmt 1
  72              	.LVL2:
  73              	.LBB76:
  74              	.LBB77:
  75              		.file 3 "src/../h/riscv.hpp"
   1:src/../h/riscv.hpp **** //
   2:src/../h/riscv.hpp **** // Created by os on 4/17/23.
   3:src/../h/riscv.hpp **** //
   4:src/../h/riscv.hpp **** 
   5:src/../h/riscv.hpp **** #ifndef PROJECT_BASE_V1_1_RISCV_HPP
   6:src/../h/riscv.hpp **** #define PROJECT_BASE_V1_1_RISCV_HPP
   7:src/../h/riscv.hpp **** 
   8:src/../h/riscv.hpp **** #include "../lib/hw.h"
   9:src/../h/riscv.hpp **** #include "../h/MemoryAllocator.hpp"
  10:src/../h/riscv.hpp **** #include "../h/TCB.hpp"
  11:src/../h/riscv.hpp **** #include "../h/_sem.hpp"
  12:src/../h/riscv.hpp **** #include "../h/sleeping_list.hpp"
  13:src/../h/riscv.hpp **** #include "../h/_Buffer.hpp"
  14:src/../h/riscv.hpp **** 
  15:src/../h/riscv.hpp **** class Riscv
  16:src/../h/riscv.hpp **** {
  17:src/../h/riscv.hpp **** public:
  18:src/../h/riscv.hpp **** 
  19:src/../h/riscv.hpp **** 
  20:src/../h/riscv.hpp ****      //pop sstatus.spp and sstatus.spie bits (has to be a non-inline function)
  21:src/../h/riscv.hpp ****    static void popSppSpie();
  22:src/../h/riscv.hpp **** 
  23:src/../h/riscv.hpp ****     static void setThreadMode();
  24:src/../h/riscv.hpp **** 
  25:src/../h/riscv.hpp **** 
  26:src/../h/riscv.hpp ****     // read register scause
  27:src/../h/riscv.hpp ****     static uint64 r_scause();
  28:src/../h/riscv.hpp **** 
  29:src/../h/riscv.hpp ****     // write register scause
  30:src/../h/riscv.hpp ****     static void w_scause(uint64 scause);
  31:src/../h/riscv.hpp **** 
  32:src/../h/riscv.hpp ****     // read register sepc
  33:src/../h/riscv.hpp ****     static uint64 r_sepc();
  34:src/../h/riscv.hpp **** 
  35:src/../h/riscv.hpp ****     // write register sepc
  36:src/../h/riscv.hpp ****     static void w_sepc(uint64 sepc);
  37:src/../h/riscv.hpp **** 
  38:src/../h/riscv.hpp ****     // write register a0
  39:src/../h/riscv.hpp ****     static void w_a0(uint64 sepc);
GAS LISTING /tmp/ccoFpYJG.s 			page 4


  40:src/../h/riscv.hpp **** 
  41:src/../h/riscv.hpp ****     // read register stvec
  42:src/../h/riscv.hpp ****     static uint64 r_stvec();
  43:src/../h/riscv.hpp **** 
  44:src/../h/riscv.hpp ****     // write register stvec
  45:src/../h/riscv.hpp ****     static void w_stvec(uint64 stvec);
  46:src/../h/riscv.hpp **** 
  47:src/../h/riscv.hpp ****     // read register stval
  48:src/../h/riscv.hpp ****     static uint64 r_stval();
  49:src/../h/riscv.hpp **** 
  50:src/../h/riscv.hpp ****     // write register stval
  51:src/../h/riscv.hpp ****     static void w_stval(uint64 stval);
  52:src/../h/riscv.hpp **** 
  53:src/../h/riscv.hpp ****     enum BitMaskSip
  54:src/../h/riscv.hpp ****     {
  55:src/../h/riscv.hpp ****         SIP_SSIP = (1 << 1),
  56:src/../h/riscv.hpp ****         SIP_STIP = (1 << 5),
  57:src/../h/riscv.hpp ****         SIP_SEIP = (1 << 9),
  58:src/../h/riscv.hpp ****     };
  59:src/../h/riscv.hpp **** 
  60:src/../h/riscv.hpp ****     // mask set register sip
  61:src/../h/riscv.hpp ****     static void ms_sip(uint64 mask);
  62:src/../h/riscv.hpp **** 
  63:src/../h/riscv.hpp ****     // mask clear register sip
  64:src/../h/riscv.hpp ****     static void mc_sip(uint64 mask);
  65:src/../h/riscv.hpp **** 
  66:src/../h/riscv.hpp ****     // read register sip
  67:src/../h/riscv.hpp ****     static uint64 r_sip();
  68:src/../h/riscv.hpp **** 
  69:src/../h/riscv.hpp ****     // write register sip
  70:src/../h/riscv.hpp ****     static void w_sip(uint64 sip);
  71:src/../h/riscv.hpp **** 
  72:src/../h/riscv.hpp ****     enum BitMaskSstatus
  73:src/../h/riscv.hpp ****     {
  74:src/../h/riscv.hpp ****         SSTATUS_SIE = (1 << 1),
  75:src/../h/riscv.hpp ****         SSTATUS_SPIE = (1 << 5),
  76:src/../h/riscv.hpp ****         SSTATUS_SPP = (1 << 8),
  77:src/../h/riscv.hpp ****     };
  78:src/../h/riscv.hpp **** 
  79:src/../h/riscv.hpp ****     // mask set register sstatus
  80:src/../h/riscv.hpp ****     static void ms_sstatus(uint64 mask);
  81:src/../h/riscv.hpp **** 
  82:src/../h/riscv.hpp ****     // mask clear register sstatus
  83:src/../h/riscv.hpp ****     static void mc_sstatus(uint64 mask);
  84:src/../h/riscv.hpp **** 
  85:src/../h/riscv.hpp ****     // read register sstatus
  86:src/../h/riscv.hpp ****     static uint64 r_sstatus();
  87:src/../h/riscv.hpp **** 
  88:src/../h/riscv.hpp ****     // write register sstatus
  89:src/../h/riscv.hpp ****     static void w_sstatus(uint64 sstatus);
  90:src/../h/riscv.hpp **** 
  91:src/../h/riscv.hpp ****     static _Buffer* input_buffer;
  92:src/../h/riscv.hpp **** 
  93:src/../h/riscv.hpp ****     static _Buffer* output_buffer;
  94:src/../h/riscv.hpp **** 
  95:src/../h/riscv.hpp **** private:
  96:src/../h/riscv.hpp ****     static void supervisorsyscallHandler();
GAS LISTING /tmp/ccoFpYJG.s 			page 5


  97:src/../h/riscv.hpp **** 
  98:src/../h/riscv.hpp ****     static void supervisorTimerHandler();
  99:src/../h/riscv.hpp **** 
 100:src/../h/riscv.hpp ****     static void supervisorOutsideInterruptHandler();
 101:src/../h/riscv.hpp **** 
 102:src/../h/riscv.hpp ****     static SleepingList SleepingThreads;
 103:src/../h/riscv.hpp **** 
 104:src/../h/riscv.hpp **** 
 105:src/../h/riscv.hpp **** 
 106:src/../h/riscv.hpp **** 
 107:src/../h/riscv.hpp **** };
 108:src/../h/riscv.hpp **** 
 109:src/../h/riscv.hpp **** inline uint64 Riscv::r_scause()
 110:src/../h/riscv.hpp **** {
 111:src/../h/riscv.hpp ****     uint64 volatile scause;
 112:src/../h/riscv.hpp ****     __asm__ volatile ("csrr %[scause], scause" : [scause] "=r"(scause));
 113:src/../h/riscv.hpp ****     return scause;
 114:src/../h/riscv.hpp **** }
 115:src/../h/riscv.hpp **** 
 116:src/../h/riscv.hpp **** inline void Riscv::w_scause(uint64 scause)
 117:src/../h/riscv.hpp **** {
 118:src/../h/riscv.hpp ****     __asm__ volatile ("csrw scause, %[scause]" : : [scause] "r"(scause));
 119:src/../h/riscv.hpp **** }
 120:src/../h/riscv.hpp **** 
 121:src/../h/riscv.hpp **** inline uint64 Riscv::r_sepc()
 122:src/../h/riscv.hpp **** {
 123:src/../h/riscv.hpp ****     uint64 volatile sepc;
 124:src/../h/riscv.hpp ****     __asm__ volatile ("csrr %[sepc], sepc" : [sepc] "=r"(sepc));
 125:src/../h/riscv.hpp ****     return sepc;
 126:src/../h/riscv.hpp **** }
 127:src/../h/riscv.hpp **** 
 128:src/../h/riscv.hpp **** inline void Riscv::w_sepc(uint64 sepc)
 129:src/../h/riscv.hpp **** {
 130:src/../h/riscv.hpp ****     __asm__ volatile ("csrw sepc, %[sepc]" : : [sepc] "r"(sepc));
 131:src/../h/riscv.hpp **** }
 132:src/../h/riscv.hpp **** 
 133:src/../h/riscv.hpp **** inline uint64 Riscv::r_stvec()
 134:src/../h/riscv.hpp **** {
 135:src/../h/riscv.hpp ****     uint64 volatile stvec;
 136:src/../h/riscv.hpp ****     __asm__ volatile ("csrr %[stvec], stvec" : [stvec] "=r"(stvec));
 137:src/../h/riscv.hpp ****     return stvec;
 138:src/../h/riscv.hpp **** }
 139:src/../h/riscv.hpp **** 
 140:src/../h/riscv.hpp **** inline void Riscv::w_stvec(uint64 stvec)
 141:src/../h/riscv.hpp **** {
 142:src/../h/riscv.hpp ****     __asm__ volatile ("csrw stvec, %[stvec]" : : [stvec] "r"(stvec));
 143:src/../h/riscv.hpp **** }
 144:src/../h/riscv.hpp **** 
 145:src/../h/riscv.hpp **** inline uint64 Riscv::r_stval()
 146:src/../h/riscv.hpp **** {
 147:src/../h/riscv.hpp ****     uint64 volatile stval;
 148:src/../h/riscv.hpp ****     __asm__ volatile ("csrr %[stval], stval" : [stval] "=r"(stval));
 149:src/../h/riscv.hpp ****     return stval;
 150:src/../h/riscv.hpp **** }
 151:src/../h/riscv.hpp **** 
 152:src/../h/riscv.hpp **** inline void Riscv::w_stval(uint64 stval)
 153:src/../h/riscv.hpp **** {
GAS LISTING /tmp/ccoFpYJG.s 			page 6


 154:src/../h/riscv.hpp ****     __asm__ volatile ("csrw stval, %[stval]" : : [stval] "r"(stval));
 155:src/../h/riscv.hpp **** }
 156:src/../h/riscv.hpp **** 
 157:src/../h/riscv.hpp **** inline void Riscv::ms_sip(uint64 mask)
 158:src/../h/riscv.hpp **** {
 159:src/../h/riscv.hpp ****     __asm__ volatile ("csrs sip, %[mask]" : : [mask] "r"(mask));
 160:src/../h/riscv.hpp **** }
 161:src/../h/riscv.hpp **** 
 162:src/../h/riscv.hpp **** inline void Riscv::mc_sip(uint64 mask)
 163:src/../h/riscv.hpp **** {
 164:src/../h/riscv.hpp ****     __asm__ volatile ("csrc sip, %[mask]" : : [mask] "r"(mask));
 165:src/../h/riscv.hpp **** }
 166:src/../h/riscv.hpp **** 
 167:src/../h/riscv.hpp **** inline uint64 Riscv::r_sip()
 168:src/../h/riscv.hpp **** {
 169:src/../h/riscv.hpp ****     uint64 volatile sip;
 170:src/../h/riscv.hpp ****     __asm__ volatile ("csrr %[sip], sip" : [sip] "=r"(sip));
 171:src/../h/riscv.hpp ****     return sip;
 172:src/../h/riscv.hpp **** }
 173:src/../h/riscv.hpp **** 
 174:src/../h/riscv.hpp **** inline void Riscv::w_sip(uint64 sip)
 175:src/../h/riscv.hpp **** {
 176:src/../h/riscv.hpp ****     __asm__ volatile ("csrw sip, %[sip]" : : [sip] "r"(sip));
 177:src/../h/riscv.hpp **** }
 178:src/../h/riscv.hpp **** 
 179:src/../h/riscv.hpp **** inline void Riscv::ms_sstatus(uint64 mask)
 180:src/../h/riscv.hpp **** {
 181:src/../h/riscv.hpp ****     __asm__ volatile ("csrs sstatus, %[mask]" : : [mask] "r"(mask));
  76              		.loc 3 181 5
  77              		.loc 3 181 68 is_stmt 0
  78 0040 93070010 		li	a5,256
  79              	#APP
  80              	# 181 "src/../h/riscv.hpp" 1
 182              	}
  81              		csrs sstatus, a5
  82              	# 0 "" 2
  83              	.LVL3:
  84              	#NO_APP
  85              	.L3:
  86              	.LBE77:
  87              	.LBE76:
  28:src/riscv.cpp ****     }
  29:src/riscv.cpp ****     else
  30:src/riscv.cpp ****     {
  31:src/riscv.cpp ****         mc_sstatus(SSTATUS_SPP);
  32:src/riscv.cpp ****     }
  33:src/riscv.cpp **** }
  88              		.loc 1 33 1
  89 0048 03348100 		ld	s0,8(sp)
  90              		.cfi_remember_state
  91              		.cfi_restore 8
  92              		.cfi_def_cfa 2, 16
  93 004c 13010101 		addi	sp,sp,16
  94              		.cfi_def_cfa_offset 0
  95 0050 67800000 		jr	ra
  96              	.L4:
  97              		.cfi_restore_state
GAS LISTING /tmp/ccoFpYJG.s 			page 7


  31:src/riscv.cpp ****     }
  98              		.loc 1 31 9 is_stmt 1
  99              	.LVL4:
 100              	.LBB78:
 101              	.LBB79:
 183:src/../h/riscv.hpp **** 
 184:src/../h/riscv.hpp **** inline void Riscv::mc_sstatus(uint64 mask)
 185:src/../h/riscv.hpp **** {
 186:src/../h/riscv.hpp ****     __asm__ volatile ("csrc sstatus, %[mask]" : : [mask] "r"(mask));
 102              		.loc 3 186 5
 103              		.loc 3 186 68 is_stmt 0
 104 0054 93070010 		li	a5,256
 105              	#APP
 106              	# 186 "src/../h/riscv.hpp" 1
 187              	}
 107              		csrc sstatus, a5
 108              	# 0 "" 2
 109              	.LVL5:
 110              	#NO_APP
 111              	.LBE79:
 112              	.LBE78:
 113              		.loc 1 33 1
 114 005c 6FF0DFFE 		j	.L3
 115              		.cfi_endproc
 116              	.LFE43:
 118              		.section	.rodata.str1.8,"aMS",@progbits,1
 119              		.align	3
 120              	.LC0:
 121 0000 73636175 		.string	"scause: "
 121      73653A20 
 121      00
 122 0009 00000000 		.align	3
 122      000000
 123              	.LC1:
 124 0010 0A00     		.string	"\n"
 125 0012 00000000 		.align	3
 125      0000
 126              	.LC2:
 127 0018 73747661 		.string	"stval: "
 127      6C3A2000 
 128              		.align	3
 129              	.LC3:
 130 0020 73747665 		.string	"stvec: "
 130      633A2000 
 131              		.align	3
 132              	.LC4:
 133 0028 73657063 		.string	"sepc: "
 133      3A2000
 134              		.text
 135              		.align	2
 136              		.globl	_ZN5Riscv24supervisorsyscallHandlerEv
 138              	_ZN5Riscv24supervisorsyscallHandlerEv:
 139              	.LFB44:
  34:src/riscv.cpp **** 
  35:src/riscv.cpp **** void Riscv::supervisorsyscallHandler()
  36:src/riscv.cpp **** {
 140              		.loc 1 36 1 is_stmt 1
GAS LISTING /tmp/ccoFpYJG.s 			page 8


 141              		.cfi_startproc
 142 0060 130101F4 		addi	sp,sp,-192
 143              		.cfi_def_cfa_offset 192
 144 0064 233C110A 		sd	ra,184(sp)
 145 0068 2338810A 		sd	s0,176(sp)
 146 006c 2334910A 		sd	s1,168(sp)
 147              		.cfi_offset 1, -8
 148              		.cfi_offset 8, -16
 149              		.cfi_offset 9, -24
 150 0070 1304010C 		addi	s0,sp,192
 151              		.cfi_def_cfa 8, 0
  37:src/riscv.cpp **** 
  38:src/riscv.cpp **** 
  39:src/riscv.cpp ****     uint64  volatile scause;
 152              		.loc 1 39 5
  40:src/riscv.cpp ****     __asm__ volatile ("csrr %[scause], scause" : [scause] "=r"(scause));
 153              		.loc 1 40 5
 154              		.loc 1 40 72 is_stmt 0
 155              	#APP
 156              	# 40 "src/riscv.cpp" 1
  41              	
 157              		csrr a5, scause
 158              	# 0 "" 2
 159              	#NO_APP
 160 0078 233CF4FC 		sd	a5,-40(s0)
  42:src/riscv.cpp ****     uint64 volatile a0;
 161              		.loc 1 42 5 is_stmt 1
  43:src/riscv.cpp ****     uint64 volatile a1;
 162              		.loc 1 43 5
  44:src/riscv.cpp ****     uint64 volatile a2;
 163              		.loc 1 44 5
  45:src/riscv.cpp ****     uint64 volatile a3;
 164              		.loc 1 45 5
  46:src/riscv.cpp ****     uint64 volatile a4;
 165              		.loc 1 46 5
  47:src/riscv.cpp ****     uint64 volatile return_value = 0;
 166              		.loc 1 47 5
 167              		.loc 1 47 21 is_stmt 0
 168 007c 233404FA 		sd	zero,-88(s0)
  48:src/riscv.cpp **** 
  49:src/riscv.cpp ****     __asm__ volatile ("mv %[a0], a0" : [a0] "=r"(a0));
 169              		.loc 1 49 5 is_stmt 1
 170              		.loc 1 49 54 is_stmt 0
 171              	#APP
 172              	# 49 "src/riscv.cpp" 1
  50              	    __asm__ volatile ("mv %[a1], a1" : [a1] "=r"(a1));
 173              		mv a5, a0
 174              	# 0 "" 2
 175              	#NO_APP
 176 0084 2338F4FC 		sd	a5,-48(s0)
 177              		.loc 1 50 5 is_stmt 1
 178              		.loc 1 50 54 is_stmt 0
 179              	#APP
 180              	# 50 "src/riscv.cpp" 1
  51              	    __asm__ volatile ("mv %[a2], a2" : [a2] "=r"(a2));
 181              		mv a5, a1
 182              	# 0 "" 2
GAS LISTING /tmp/ccoFpYJG.s 			page 9


 183              	#NO_APP
 184 008c 2334F4FC 		sd	a5,-56(s0)
 185              		.loc 1 51 5 is_stmt 1
 186              		.loc 1 51 54 is_stmt 0
 187              	#APP
 188              	# 51 "src/riscv.cpp" 1
  52              	    __asm__ volatile ("mv %[a3], a3" : [a3] "=r"(a3));
 189              		mv a5, a2
 190              	# 0 "" 2
 191              	#NO_APP
 192 0094 2330F4FC 		sd	a5,-64(s0)
 193              		.loc 1 52 5 is_stmt 1
 194              		.loc 1 52 54 is_stmt 0
 195              	#APP
 196              	# 52 "src/riscv.cpp" 1
  53              	    __asm__ volatile ("mv %[a4], a4" : [a4] "=r"(a4));
 197              		mv a5, a3
 198              	# 0 "" 2
 199              	#NO_APP
 200 009c 233CF4FA 		sd	a5,-72(s0)
 201              		.loc 1 53 5 is_stmt 1
 202              		.loc 1 53 54 is_stmt 0
 203              	#APP
 204              	# 53 "src/riscv.cpp" 1
  54              	
 205              		mv a5, a4
 206              	# 0 "" 2
 207              	#NO_APP
 208 00a4 2338F4FA 		sd	a5,-80(s0)
  55:src/riscv.cpp ****     uint64  volatile sstatus = Riscv::r_sstatus();
 209              		.loc 1 55 5 is_stmt 1
 210              	.LBB80:
 211              	.LBB81:
 188:src/../h/riscv.hpp **** 
 189:src/../h/riscv.hpp **** inline uint64 Riscv::r_sstatus()
 190:src/../h/riscv.hpp **** {
 191:src/../h/riscv.hpp ****     uint64 volatile sstatus;
 212              		.loc 3 191 5
 192:src/../h/riscv.hpp ****     __asm__ volatile ("csrr %[sstatus], sstatus" : [sstatus] "=r"(sstatus));
 213              		.loc 3 192 5
 214              		.loc 3 192 76 is_stmt 0
 215              	#APP
 216              	# 192 "src/../h/riscv.hpp" 1
 193              	    return sstatus;
 217              		csrr a5, sstatus
 218              	# 0 "" 2
 219              	#NO_APP
 220 00ac 2338F4F6 		sd	a5,-144(s0)
 221              		.loc 3 193 5 is_stmt 1
 222              		.loc 3 193 12 is_stmt 0
 223 00b0 833704F7 		ld	a5,-144(s0)
 224              	.LBE81:
 225              	.LBE80:
 226              		.loc 1 55 49
 227 00b4 2330F4FA 		sd	a5,-96(s0)
  56:src/riscv.cpp ****     uint64 volatile sepc = Riscv::r_sepc();
 228              		.loc 1 56 5 is_stmt 1
GAS LISTING /tmp/ccoFpYJG.s 			page 10


 229              	.LBB82:
 230              	.LBB83:
 123:src/../h/riscv.hpp ****     __asm__ volatile ("csrr %[sepc], sepc" : [sepc] "=r"(sepc));
 231              		.loc 3 123 5
 124:src/../h/riscv.hpp ****     return sepc;
 232              		.loc 3 124 5
 124:src/../h/riscv.hpp ****     return sepc;
 233              		.loc 3 124 64 is_stmt 0
 234              	#APP
 235              	# 124 "src/../h/riscv.hpp" 1
 236              		csrr a5, sepc
 237              	# 0 "" 2
 238              	#NO_APP
 239 00bc 2334F4F6 		sd	a5,-152(s0)
 125:src/../h/riscv.hpp **** }
 240              		.loc 3 125 5 is_stmt 1
 125:src/../h/riscv.hpp **** }
 241              		.loc 3 125 12 is_stmt 0
 242 00c0 833784F6 		ld	a5,-152(s0)
 243              	.LBE83:
 244              	.LBE82:
 245              		.loc 1 56 42
 246 00c4 233CF4F8 		sd	a5,-104(s0)
  57:src/riscv.cpp **** 
  58:src/riscv.cpp ****     if (scause== 0x0000000000000008 || scause== 0x0000000000000009 )
 247              		.loc 1 58 5 is_stmt 1
 248              	.LBB84:
 249              		.loc 1 58 15 is_stmt 0
 250 00c8 033784FD 		ld	a4,-40(s0)
 251              		.loc 1 58 37
 252 00cc 93078000 		li	a5,8
 253 00d0 6308F700 		beq	a4,a5,.L8
 254              		.loc 1 58 46 discriminator 2
 255 00d4 033784FD 		ld	a4,-40(s0)
 256              		.loc 1 58 37 discriminator 2
 257 00d8 93079000 		li	a5,9
 258 00dc 6316F702 		bne	a4,a5,.L30
 259              	.L8:
 260              	.LBB85:
  59:src/riscv.cpp ****     {
  60:src/riscv.cpp ****         switch (a0) {
 261              		.loc 1 60 9 is_stmt 1
 262              	.LBB86:
 263              		.loc 1 60 17 is_stmt 0
 264 00e0 833704FD 		ld	a5,-48(s0)
 265 00e4 13072004 		li	a4,66
 266 00e8 636EF714 		bgtu	a5,a4,.L10
 267 00ec 93972700 		slli	a5,a5,2
 268 00f0 17070000 		lla	a4,.L12
 268      13070700 
 269 00f8 B387E700 		add	a5,a5,a4
 270 00fc 83A70700 		lw	a5,0(a5)
 271 0100 B387E700 		add	a5,a5,a4
 272 0104 67800700 		jr	a5
 273              		.section	.rodata
 274              		.align	2
 275              		.align	2
GAS LISTING /tmp/ccoFpYJG.s 			page 11


 276              	.L12:
 277 0000 00000000 		.word	.L10-.L12
 278 0004 00000000 		.word	.L27-.L12
 279 0008 00000000 		.word	.L26-.L12
 280 000c 00000000 		.word	.L10-.L12
 281 0010 00000000 		.word	.L10-.L12
 282 0014 00000000 		.word	.L10-.L12
 283 0018 00000000 		.word	.L10-.L12
 284 001c 00000000 		.word	.L10-.L12
 285 0020 00000000 		.word	.L10-.L12
 286 0024 00000000 		.word	.L10-.L12
 287 0028 00000000 		.word	.L10-.L12
 288 002c 00000000 		.word	.L10-.L12
 289 0030 00000000 		.word	.L10-.L12
 290 0034 00000000 		.word	.L10-.L12
 291 0038 00000000 		.word	.L10-.L12
 292 003c 00000000 		.word	.L10-.L12
 293 0040 00000000 		.word	.L10-.L12
 294 0044 00000000 		.word	.L25-.L12
 295 0048 00000000 		.word	.L24-.L12
 296 004c 00000000 		.word	.L23-.L12
 297 0050 00000000 		.word	.L22-.L12
 298 0054 00000000 		.word	.L21-.L12
 299 0058 00000000 		.word	.L20-.L12
 300 005c 00000000 		.word	.L19-.L12
 301 0060 00000000 		.word	.L10-.L12
 302 0064 00000000 		.word	.L10-.L12
 303 0068 00000000 		.word	.L10-.L12
 304 006c 00000000 		.word	.L10-.L12
 305 0070 00000000 		.word	.L10-.L12
 306 0074 00000000 		.word	.L10-.L12
 307 0078 00000000 		.word	.L10-.L12
 308 007c 00000000 		.word	.L10-.L12
 309 0080 00000000 		.word	.L10-.L12
 310 0084 00000000 		.word	.L18-.L12
 311 0088 00000000 		.word	.L17-.L12
 312 008c 00000000 		.word	.L16-.L12
 313 0090 00000000 		.word	.L15-.L12
 314 0094 00000000 		.word	.L10-.L12
 315 0098 00000000 		.word	.L10-.L12
 316 009c 00000000 		.word	.L10-.L12
 317 00a0 00000000 		.word	.L10-.L12
 318 00a4 00000000 		.word	.L10-.L12
 319 00a8 00000000 		.word	.L10-.L12
 320 00ac 00000000 		.word	.L10-.L12
 321 00b0 00000000 		.word	.L10-.L12
 322 00b4 00000000 		.word	.L10-.L12
 323 00b8 00000000 		.word	.L10-.L12
 324 00bc 00000000 		.word	.L10-.L12
 325 00c0 00000000 		.word	.L10-.L12
 326 00c4 00000000 		.word	.L14-.L12
 327 00c8 00000000 		.word	.L10-.L12
 328 00cc 00000000 		.word	.L10-.L12
 329 00d0 00000000 		.word	.L10-.L12
 330 00d4 00000000 		.word	.L10-.L12
 331 00d8 00000000 		.word	.L10-.L12
 332 00dc 00000000 		.word	.L10-.L12
GAS LISTING /tmp/ccoFpYJG.s 			page 12


 333 00e0 00000000 		.word	.L10-.L12
 334 00e4 00000000 		.word	.L10-.L12
 335 00e8 00000000 		.word	.L10-.L12
 336 00ec 00000000 		.word	.L10-.L12
 337 00f0 00000000 		.word	.L10-.L12
 338 00f4 00000000 		.word	.L10-.L12
 339 00f8 00000000 		.word	.L10-.L12
 340 00fc 00000000 		.word	.L10-.L12
 341 0100 00000000 		.word	.L10-.L12
 342 0104 00000000 		.word	.L13-.L12
 343 0108 00000000 		.word	.L11-.L12
 344              		.text
 345              	.L30:
 346              	.LBE86:
 347              	.LBE85:
 348              	.LBB125:
  61:src/riscv.cpp ****             case 0x01: {
  62:src/riscv.cpp ****                 // mem_alloc
  63:src/riscv.cpp ****                 size_t size;
  64:src/riscv.cpp ****                 size = (size_t) a1;
  65:src/riscv.cpp **** 
  66:src/riscv.cpp ****                return_value = (uint64) MemoryAllocator::mem_alloc(size);
  67:src/riscv.cpp **** 
  68:src/riscv.cpp ****                Riscv::w_a0(return_value);
  69:src/riscv.cpp ****             }
  70:src/riscv.cpp ****                 break;
  71:src/riscv.cpp **** 
  72:src/riscv.cpp **** 
  73:src/riscv.cpp ****             case 0x02: {
  74:src/riscv.cpp ****                 // mem_free
  75:src/riscv.cpp ****                 void *pointer;
  76:src/riscv.cpp ****                 pointer = (void*) a1;
  77:src/riscv.cpp **** 
  78:src/riscv.cpp ****                 return_value = (uint64)MemoryAllocator::mem_free(pointer);
  79:src/riscv.cpp ****                 Riscv::w_a0(return_value);
  80:src/riscv.cpp ****             }
  81:src/riscv.cpp ****                 break;
  82:src/riscv.cpp **** 
  83:src/riscv.cpp **** 
  84:src/riscv.cpp **** 
  85:src/riscv.cpp **** 
  86:src/riscv.cpp ****             case 0x11:
  87:src/riscv.cpp ****             {
  88:src/riscv.cpp ****                 //thread_create
  89:src/riscv.cpp ****                 thread_t* handle;
  90:src/riscv.cpp ****                 void(*start_routine)(void*);
  91:src/riscv.cpp ****                 void* arg;
  92:src/riscv.cpp ****                 void* stack;
  93:src/riscv.cpp **** 
  94:src/riscv.cpp ****                 handle = (thread_t*) a1;
  95:src/riscv.cpp ****                 start_routine = (TCB::Body) a2;
  96:src/riscv.cpp ****                  arg = (void*) a3;
  97:src/riscv.cpp ****                 stack = (void*) a4;
  98:src/riscv.cpp ****                 uint64* stack_space = (uint64*) stack;
  99:src/riscv.cpp **** 
 100:src/riscv.cpp ****                 *handle = TCB::createThread(start_routine,arg,stack_space,false);
 101:src/riscv.cpp **** 
GAS LISTING /tmp/ccoFpYJG.s 			page 13


 102:src/riscv.cpp **** 
 103:src/riscv.cpp ****             }
 104:src/riscv.cpp ****                 break;
 105:src/riscv.cpp **** 
 106:src/riscv.cpp ****             case 0x12: {
 107:src/riscv.cpp ****                 // thread_exit
 108:src/riscv.cpp ****                 return_value = TCB::exit();
 109:src/riscv.cpp ****                 Riscv::w_a0(return_value);
 110:src/riscv.cpp ****             }
 111:src/riscv.cpp ****                 break;
 112:src/riscv.cpp **** 
 113:src/riscv.cpp ****             case 0x13: {
 114:src/riscv.cpp ****                 // thread_dispatch
 115:src/riscv.cpp ****                 TCB::dispatch();
 116:src/riscv.cpp ****             }
 117:src/riscv.cpp ****                 break;
 118:src/riscv.cpp **** 
 119:src/riscv.cpp ****             case 0x14: {
 120:src/riscv.cpp ****                 // thread_join
 121:src/riscv.cpp ****                 TCB* nit;
 122:src/riscv.cpp ****                 __asm__ volatile("mv %0, a1" : "=r" (nit));
 123:src/riscv.cpp ****                 TCB::running->join(nit);
 124:src/riscv.cpp ****             }
 125:src/riscv.cpp ****                 break;
 126:src/riscv.cpp **** 
 127:src/riscv.cpp ****             case 0x15: {
 128:src/riscv.cpp ****                 // thread_start
 129:src/riscv.cpp ****                 TCB* nit;
 130:src/riscv.cpp ****                 __asm__ volatile("mv %0, a1" : "=r" (nit));
 131:src/riscv.cpp ****                return_value =  TCB::running->start(nit);
 132:src/riscv.cpp ****                 Riscv::w_a0(return_value);
 133:src/riscv.cpp ****             }
 134:src/riscv.cpp ****                 break;
 135:src/riscv.cpp **** 
 136:src/riscv.cpp ****             case 0x16: {
 137:src/riscv.cpp ****                 // thread_make
 138:src/riscv.cpp ****                 thread_t* handle;
 139:src/riscv.cpp ****                 void(*start_routine)(void*);
 140:src/riscv.cpp ****                 void* arg;
 141:src/riscv.cpp ****                 void* stack;
 142:src/riscv.cpp **** 
 143:src/riscv.cpp ****                 handle = (thread_t*) a1;
 144:src/riscv.cpp ****                 start_routine = (TCB::Body) a2;
 145:src/riscv.cpp ****                 arg = (void*) a3;
 146:src/riscv.cpp ****                 stack = (void*) a4;
 147:src/riscv.cpp ****                 uint64* stack_space = (uint64*) stack;
 148:src/riscv.cpp **** 
 149:src/riscv.cpp ****                 *handle = TCB::makeThread(start_routine,arg,stack_space,false);
 150:src/riscv.cpp ****             }
 151:src/riscv.cpp ****                 break;
 152:src/riscv.cpp **** 
 153:src/riscv.cpp ****             case 0x17: {
 154:src/riscv.cpp ****                 // thread_delete
 155:src/riscv.cpp ****                 // Poziva se delete kako bi se pozvao destruktor i time obrisao i prostor za stack
 156:src/riscv.cpp ****                 thread_t nit = (thread_t) a1;
 157:src/riscv.cpp ****                 delete nit;
 158:src/riscv.cpp **** 
GAS LISTING /tmp/ccoFpYJG.s 			page 14


 159:src/riscv.cpp ****             }
 160:src/riscv.cpp ****                 break;
 161:src/riscv.cpp **** 
 162:src/riscv.cpp ****             case 0x21: {
 163:src/riscv.cpp ****                 // sem_open
 164:src/riscv.cpp ****                 sem_t* handle;
 165:src/riscv.cpp ****                 unsigned init;
 166:src/riscv.cpp ****                 handle = (sem_t*) a1;
 167:src/riscv.cpp ****                 init = (unsigned) a2;
 168:src/riscv.cpp **** 
 169:src/riscv.cpp **** 
 170:src/riscv.cpp ****                 *handle = _sem::createSemaphore(init);
 171:src/riscv.cpp **** 
 172:src/riscv.cpp **** 
 173:src/riscv.cpp ****             }
 174:src/riscv.cpp ****                 break;
 175:src/riscv.cpp **** 
 176:src/riscv.cpp ****             case 0x22: {
 177:src/riscv.cpp ****                 // sem_close
 178:src/riscv.cpp ****                 sem_t handle;
 179:src/riscv.cpp **** 
 180:src/riscv.cpp ****                 __asm__ volatile("mv %0, a1" : "=r" (handle));
 181:src/riscv.cpp ****                 return_value = handle->close();
 182:src/riscv.cpp **** 
 183:src/riscv.cpp ****                 // Oslobodjamo memoriju semafora!
 184:src/riscv.cpp ****                 MemoryAllocator::mem_free(handle);
 185:src/riscv.cpp ****                 Riscv::w_a0(return_value);
 186:src/riscv.cpp **** 
 187:src/riscv.cpp **** 
 188:src/riscv.cpp ****             }
 189:src/riscv.cpp ****                 break;
 190:src/riscv.cpp **** 
 191:src/riscv.cpp ****             case 0x23: {
 192:src/riscv.cpp ****                 // sem_wait
 193:src/riscv.cpp ****                 sem_t handle;
 194:src/riscv.cpp ****                 handle = (sem_t)a1;
 195:src/riscv.cpp **** 
 196:src/riscv.cpp ****                 return_value = handle->wait();
 197:src/riscv.cpp **** 
 198:src/riscv.cpp ****                 Riscv::w_a0(return_value);
 199:src/riscv.cpp ****             }
 200:src/riscv.cpp ****                 break;
 201:src/riscv.cpp **** 
 202:src/riscv.cpp ****             case 0x24: {
 203:src/riscv.cpp ****                 // sem_signal
 204:src/riscv.cpp ****                 sem_t handle;
 205:src/riscv.cpp ****                 handle = (sem_t)a1;
 206:src/riscv.cpp **** 
 207:src/riscv.cpp ****                 return_value = handle->signal();
 208:src/riscv.cpp **** 
 209:src/riscv.cpp ****                 Riscv::w_a0(return_value);
 210:src/riscv.cpp ****             }
 211:src/riscv.cpp ****                 break;
 212:src/riscv.cpp **** 
 213:src/riscv.cpp ****             case 0x31: {
 214:src/riscv.cpp ****                 // time_sleep
 215:src/riscv.cpp ****                 time_t vreme;
GAS LISTING /tmp/ccoFpYJG.s 			page 15


 216:src/riscv.cpp ****                 vreme = (time_t) a1;
 217:src/riscv.cpp **** 
 218:src/riscv.cpp ****                 SleepingThreads.add_node(TCB::running,vreme);
 219:src/riscv.cpp ****                 TCB::dispatch();
 220:src/riscv.cpp ****             }
 221:src/riscv.cpp ****                 break;
 222:src/riscv.cpp **** 
 223:src/riscv.cpp ****             case 0x41: {
 224:src/riscv.cpp ****                 // getc
 225:src/riscv.cpp ****                 // Ucitava se jedan znak od znakova ucitanih sa konzole sto znaci da se uzima iz ul
 226:src/riscv.cpp **** 
 227:src/riscv.cpp ****                 char karakter = input_buffer->get();
 228:src/riscv.cpp **** 
 229:src/riscv.cpp ****                 __asm__ volatile ("mv a0,%0" : :"r" (karakter));
 230:src/riscv.cpp **** 
 231:src/riscv.cpp ****             }
 232:src/riscv.cpp ****                 break;
 233:src/riscv.cpp **** 
 234:src/riscv.cpp ****             case 0x42: {
 235:src/riscv.cpp ****                 // putc
 236:src/riscv.cpp ****                 char karakter;
 237:src/riscv.cpp ****                 karakter = (char)a1;
 238:src/riscv.cpp **** 
 239:src/riscv.cpp ****                 // Karakter se stavlja u izlazni bafer!
 240:src/riscv.cpp ****                 output_buffer->put(karakter);
 241:src/riscv.cpp **** 
 242:src/riscv.cpp **** 
 243:src/riscv.cpp **** 
 244:src/riscv.cpp **** 
 245:src/riscv.cpp **** 
 246:src/riscv.cpp **** 
 247:src/riscv.cpp ****             }
 248:src/riscv.cpp ****                 break;
 249:src/riscv.cpp **** 
 250:src/riscv.cpp **** 
 251:src/riscv.cpp ****         }
 252:src/riscv.cpp **** 
 253:src/riscv.cpp ****         sepc+=4;
 254:src/riscv.cpp ****         Riscv::w_sepc(sepc);
 255:src/riscv.cpp ****        // mc_sip(SIP_SSIP);
 256:src/riscv.cpp ****         Riscv::w_sstatus(sstatus);
 257:src/riscv.cpp **** 
 258:src/riscv.cpp **** 
 259:src/riscv.cpp ****     }
 260:src/riscv.cpp ****     else
 261:src/riscv.cpp ****     {
 262:src/riscv.cpp ****         uint64 volatile scause = r_scause();
 349              		.loc 1 262 9 is_stmt 1
 350              	.LBB126:
 351              	.LBB127:
 111:src/../h/riscv.hpp ****     __asm__ volatile ("csrr %[scause], scause" : [scause] "=r"(scause));
 352              		.loc 3 111 5
 112:src/../h/riscv.hpp ****     return scause;
 353              		.loc 3 112 5
 112:src/../h/riscv.hpp ****     return scause;
 354              		.loc 3 112 72 is_stmt 0
 355              	#APP
GAS LISTING /tmp/ccoFpYJG.s 			page 16


 356              	# 112 "src/../h/riscv.hpp" 1
 357              		csrr a5, scause
 358              	# 0 "" 2
 359              	#NO_APP
 360 010c 2338F4F8 		sd	a5,-112(s0)
 113:src/../h/riscv.hpp **** }
 361              		.loc 3 113 5 is_stmt 1
 113:src/../h/riscv.hpp **** }
 362              		.loc 3 113 12 is_stmt 0
 363 0110 833704F9 		ld	a5,-112(s0)
 364              	.LBE127:
 365              	.LBE126:
 366              		.loc 1 262 43
 367 0114 2334F4F4 		sd	a5,-184(s0)
 263:src/riscv.cpp ****         uint64 volatile stval = r_stval();
 368              		.loc 1 263 9 is_stmt 1
 369              	.LBB128:
 370              	.LBB129:
 147:src/../h/riscv.hpp ****     __asm__ volatile ("csrr %[stval], stval" : [stval] "=r"(stval));
 371              		.loc 3 147 5
 148:src/../h/riscv.hpp ****     return stval;
 372              		.loc 3 148 5
 148:src/../h/riscv.hpp ****     return stval;
 373              		.loc 3 148 68 is_stmt 0
 374              	#APP
 375              	# 148 "src/../h/riscv.hpp" 1
 376              		csrr a5, stval
 377              	# 0 "" 2
 378              	#NO_APP
 379 011c 2334F4F8 		sd	a5,-120(s0)
 149:src/../h/riscv.hpp **** }
 380              		.loc 3 149 5 is_stmt 1
 149:src/../h/riscv.hpp **** }
 381              		.loc 3 149 12 is_stmt 0
 382 0120 833784F8 		ld	a5,-120(s0)
 383              	.LBE129:
 384              	.LBE128:
 385              		.loc 1 263 41
 386 0124 2338F4F4 		sd	a5,-176(s0)
 264:src/riscv.cpp ****         uint64 volatile stvec = r_stvec();
 387              		.loc 1 264 9 is_stmt 1
 388              	.LBB130:
 389              	.LBB131:
 135:src/../h/riscv.hpp ****     __asm__ volatile ("csrr %[stvec], stvec" : [stvec] "=r"(stvec));
 390              		.loc 3 135 5
 136:src/../h/riscv.hpp ****     return stvec;
 391              		.loc 3 136 5
 136:src/../h/riscv.hpp ****     return stvec;
 392              		.loc 3 136 68 is_stmt 0
 393              	#APP
 394              	# 136 "src/../h/riscv.hpp" 1
 395              		csrr a5, stvec
 396              	# 0 "" 2
 397              	#NO_APP
 398 012c 2330F4F8 		sd	a5,-128(s0)
 137:src/../h/riscv.hpp **** }
 399              		.loc 3 137 5 is_stmt 1
GAS LISTING /tmp/ccoFpYJG.s 			page 17


 137:src/../h/riscv.hpp **** }
 400              		.loc 3 137 12 is_stmt 0
 401 0130 833704F8 		ld	a5,-128(s0)
 402              	.LBE131:
 403              	.LBE130:
 404              		.loc 1 264 41
 405 0134 233CF4F4 		sd	a5,-168(s0)
 265:src/riscv.cpp ****         uint64 volatile sepc = r_sepc();
 406              		.loc 1 265 9 is_stmt 1
 407              	.LBB132:
 408              	.LBB133:
 123:src/../h/riscv.hpp ****     __asm__ volatile ("csrr %[sepc], sepc" : [sepc] "=r"(sepc));
 409              		.loc 3 123 5
 124:src/../h/riscv.hpp ****     return sepc;
 410              		.loc 3 124 5
 124:src/../h/riscv.hpp ****     return sepc;
 411              		.loc 3 124 64 is_stmt 0
 412              	#APP
 413              	# 124 "src/../h/riscv.hpp" 1
 414              		csrr a5, sepc
 415              	# 0 "" 2
 416              	#NO_APP
 417 013c 233CF4F6 		sd	a5,-136(s0)
 125:src/../h/riscv.hpp **** }
 418              		.loc 3 125 5 is_stmt 1
 125:src/../h/riscv.hpp **** }
 419              		.loc 3 125 12 is_stmt 0
 420 0140 833784F7 		ld	a5,-136(s0)
 421              	.LBE133:
 422              	.LBE132:
 423              		.loc 1 265 39
 424 0144 2330F4F6 		sd	a5,-160(s0)
 266:src/riscv.cpp **** 
 267:src/riscv.cpp ****         printString("scause: ");
 425              		.loc 1 267 9 is_stmt 1
 426              		.loc 1 267 20 is_stmt 0
 427 0148 17050000 		lla	a0,.LC0
 427      13050500 
 428 0150 97000000 		call	_Z11printStringPKc@plt
 428      E7800000 
 429              	.LVL6:
 268:src/riscv.cpp ****         printInt(scause);
 430              		.loc 1 268 9 is_stmt 1
 431              		.loc 1 268 17 is_stmt 0
 432 0158 033584F4 		ld	a0,-184(s0)
 433 015c 13060000 		li	a2,0
 434 0160 9305A000 		li	a1,10
 435 0164 1B050500 		sext.w	a0,a0
 436 0168 97000000 		call	_Z8printIntiii@plt
 436      E7800000 
 437              	.LVL7:
 269:src/riscv.cpp ****         printString("\n");
 438              		.loc 1 269 9 is_stmt 1
 439              		.loc 1 269 20 is_stmt 0
 440 0170 17050000 		lla	a0,.LC1
 440      13050500 
 441 0178 97000000 		call	_Z11printStringPKc@plt
GAS LISTING /tmp/ccoFpYJG.s 			page 18


 441      E7800000 
 442              	.LVL8:
 270:src/riscv.cpp **** 
 271:src/riscv.cpp ****         printString("stval: ");
 443              		.loc 1 271 9 is_stmt 1
 444              		.loc 1 271 20 is_stmt 0
 445 0180 17050000 		lla	a0,.LC2
 445      13050500 
 446 0188 97000000 		call	_Z11printStringPKc@plt
 446      E7800000 
 447              	.LVL9:
 272:src/riscv.cpp ****         printInt(stval);
 448              		.loc 1 272 9 is_stmt 1
 449              		.loc 1 272 17 is_stmt 0
 450 0190 033504F5 		ld	a0,-176(s0)
 451 0194 13060000 		li	a2,0
 452 0198 9305A000 		li	a1,10
 453 019c 1B050500 		sext.w	a0,a0
 454 01a0 97000000 		call	_Z8printIntiii@plt
 454      E7800000 
 455              	.LVL10:
 273:src/riscv.cpp ****         printString("\n");
 456              		.loc 1 273 9 is_stmt 1
 457              		.loc 1 273 20 is_stmt 0
 458 01a8 17050000 		lla	a0,.LC1
 458      13050500 
 459 01b0 97000000 		call	_Z11printStringPKc@plt
 459      E7800000 
 460              	.LVL11:
 274:src/riscv.cpp **** 
 275:src/riscv.cpp ****         printString("stvec: ");
 461              		.loc 1 275 9 is_stmt 1
 462              		.loc 1 275 20 is_stmt 0
 463 01b8 17050000 		lla	a0,.LC3
 463      13050500 
 464 01c0 97000000 		call	_Z11printStringPKc@plt
 464      E7800000 
 465              	.LVL12:
 276:src/riscv.cpp ****         printInt(stvec);
 466              		.loc 1 276 9 is_stmt 1
 467              		.loc 1 276 17 is_stmt 0
 468 01c8 033584F5 		ld	a0,-168(s0)
 469 01cc 13060000 		li	a2,0
 470 01d0 9305A000 		li	a1,10
 471 01d4 1B050500 		sext.w	a0,a0
 472 01d8 97000000 		call	_Z8printIntiii@plt
 472      E7800000 
 473              	.LVL13:
 277:src/riscv.cpp ****         printString("\n");
 474              		.loc 1 277 9 is_stmt 1
 475              		.loc 1 277 20 is_stmt 0
 476 01e0 17050000 		lla	a0,.LC1
 476      13050500 
 477 01e8 97000000 		call	_Z11printStringPKc@plt
 477      E7800000 
 478              	.LVL14:
 278:src/riscv.cpp **** 
GAS LISTING /tmp/ccoFpYJG.s 			page 19


 279:src/riscv.cpp ****         printString("sepc: ");
 479              		.loc 1 279 9 is_stmt 1
 480              		.loc 1 279 20 is_stmt 0
 481 01f0 17050000 		lla	a0,.LC4
 481      13050500 
 482 01f8 97000000 		call	_Z11printStringPKc@plt
 482      E7800000 
 483              	.LVL15:
 280:src/riscv.cpp ****         printInt(sepc);
 484              		.loc 1 280 9 is_stmt 1
 485              		.loc 1 280 17 is_stmt 0
 486 0200 033504F6 		ld	a0,-160(s0)
 487 0204 13060000 		li	a2,0
 488 0208 9305A000 		li	a1,10
 489 020c 1B050500 		sext.w	a0,a0
 490 0210 97000000 		call	_Z8printIntiii@plt
 490      E7800000 
 491              	.LVL16:
 281:src/riscv.cpp ****         printString("\n");
 492              		.loc 1 281 9 is_stmt 1
 493              		.loc 1 281 20 is_stmt 0
 494 0218 17050000 		lla	a0,.LC1
 494      13050500 
 495 0220 97000000 		call	_Z11printStringPKc@plt
 495      E7800000 
 496              	.LVL17:
 497 0228 6F008003 		j	.L7
 498              	.L27:
 499              	.LBE125:
 500              	.LBB134:
 501              	.LBB119:
 502              	.LBB87:
  61:src/riscv.cpp ****                 // mem_alloc
 503              		.loc 1 61 13 is_stmt 1
  61:src/riscv.cpp ****                 // mem_alloc
 504              		.loc 1 61 24
 505              	.LBB88:
  63:src/riscv.cpp ****                 size = (size_t) a1;
 506              		.loc 1 63 17
  64:src/riscv.cpp **** 
 507              		.loc 1 64 17
  64:src/riscv.cpp **** 
 508              		.loc 1 64 22 is_stmt 0
 509 022c 033584FC 		ld	a0,-56(s0)
 510              	.LVL18:
  66:src/riscv.cpp **** 
 511              		.loc 1 66 16 is_stmt 1
  66:src/riscv.cpp **** 
 512              		.loc 1 66 66 is_stmt 0
 513 0230 97000000 		call	_ZN15MemoryAllocator9mem_allocEm@plt
 513      E7800000 
 514              	.LVL19:
  66:src/riscv.cpp **** 
 515              		.loc 1 66 29
 516 0238 2334A4FA 		sd	a0,-88(s0)
  68:src/riscv.cpp ****             }
 517              		.loc 1 68 16 is_stmt 1
GAS LISTING /tmp/ccoFpYJG.s 			page 20


  68:src/riscv.cpp ****             }
 518              		.loc 1 68 27 is_stmt 0
 519 023c 833784FA 		ld	a5,-88(s0)
 520              	.LVL20:
 521              	.LBB89:
 522              	.LBB90:
 194:src/../h/riscv.hpp **** }
 195:src/../h/riscv.hpp **** 
 196:src/../h/riscv.hpp **** inline void Riscv::w_sstatus(uint64 sstatus)
 197:src/../h/riscv.hpp **** {
 198:src/../h/riscv.hpp ****     __asm__ volatile ("csrw sstatus, %[sstatus]" : : [sstatus] "r"(sstatus));
 199:src/../h/riscv.hpp **** }
 200:src/../h/riscv.hpp **** 
 201:src/../h/riscv.hpp **** inline void Riscv::w_a0(uint64 a0) {
 202:src/../h/riscv.hpp ****     __asm__ volatile ("mv a0,%0" : :"r" (a0));
 523              		.loc 3 202 5 is_stmt 1
 524              		.loc 3 202 46 is_stmt 0
 525              	#APP
 526              	# 202 "src/../h/riscv.hpp" 1
 203              	}
 527              		mv a0,a5
 528              	# 0 "" 2
 529              	.LVL21:
 530              	#NO_APP
 531              	.L10:
 532              	.LBE90:
 533              	.LBE89:
 534              	.LBE88:
 535              	.LBE87:
 536              	.LBE119:
 253:src/riscv.cpp ****         Riscv::w_sepc(sepc);
 537              		.loc 1 253 9 is_stmt 1
 253:src/riscv.cpp ****         Riscv::w_sepc(sepc);
 538              		.loc 1 253 13 is_stmt 0
 539 0244 833784F9 		ld	a5,-104(s0)
 540 0248 93874700 		addi	a5,a5,4
 541 024c 233CF4F8 		sd	a5,-104(s0)
 254:src/riscv.cpp ****        // mc_sip(SIP_SSIP);
 542              		.loc 1 254 9 is_stmt 1
 254:src/riscv.cpp ****        // mc_sip(SIP_SSIP);
 543              		.loc 1 254 22 is_stmt 0
 544 0250 833784F9 		ld	a5,-104(s0)
 545              	.LVL22:
 546              	.LBB120:
 547              	.LBB121:
 130:src/../h/riscv.hpp **** }
 548              		.loc 3 130 5 is_stmt 1
 130:src/../h/riscv.hpp **** }
 549              		.loc 3 130 65 is_stmt 0
 550              	#APP
 551              	# 130 "src/../h/riscv.hpp" 1
 552              		csrw sepc, a5
 553              	# 0 "" 2
 554              	.LVL23:
 555              	#NO_APP
 556              	.LBE121:
 557              	.LBE120:
GAS LISTING /tmp/ccoFpYJG.s 			page 21


 256:src/riscv.cpp **** 
 558              		.loc 1 256 9 is_stmt 1
 256:src/riscv.cpp **** 
 559              		.loc 1 256 25 is_stmt 0
 560 0258 833704FA 		ld	a5,-96(s0)
 561              	.LVL24:
 562              	.LBB122:
 563              	.LBB123:
 198:src/../h/riscv.hpp **** }
 564              		.loc 3 198 5 is_stmt 1
 198:src/../h/riscv.hpp **** }
 565              		.loc 3 198 77 is_stmt 0
 566              	#APP
 567              	# 198 "src/../h/riscv.hpp" 1
 568              		csrw sstatus, a5
 569              	# 0 "" 2
 570              	.LVL25:
 571              	#NO_APP
 572              	.L7:
 573              	.LBE123:
 574              	.LBE122:
 575              	.LBE134:
 576              	.LBE84:
 282:src/riscv.cpp ****     }
 283:src/riscv.cpp **** 
 284:src/riscv.cpp **** 
 285:src/riscv.cpp **** }
 577              		.loc 1 285 1
 578 0260 8330810B 		ld	ra,184(sp)
 579              		.cfi_remember_state
 580              		.cfi_restore 1
 581 0264 0334010B 		ld	s0,176(sp)
 582              		.cfi_restore 8
 583              		.cfi_def_cfa 2, 192
 584 0268 8334810A 		ld	s1,168(sp)
 585              		.cfi_restore 9
 586 026c 1301010C 		addi	sp,sp,192
 587              		.cfi_def_cfa_offset 0
 588 0270 67800000 		jr	ra
 589              	.L26:
 590              		.cfi_restore_state
 591              	.LBB136:
 592              	.LBB135:
 593              	.LBB124:
 594              	.LBB118:
  73:src/riscv.cpp ****                 // mem_free
 595              		.loc 1 73 13 is_stmt 1
  73:src/riscv.cpp ****                 // mem_free
 596              		.loc 1 73 24
 597              	.LBB91:
  75:src/riscv.cpp ****                 pointer = (void*) a1;
 598              		.loc 1 75 17
  76:src/riscv.cpp **** 
 599              		.loc 1 76 17
  76:src/riscv.cpp **** 
 600              		.loc 1 76 25 is_stmt 0
 601 0274 033584FC 		ld	a0,-56(s0)
GAS LISTING /tmp/ccoFpYJG.s 			page 22


 602              	.LVL26:
  78:src/riscv.cpp ****                 Riscv::w_a0(return_value);
 603              		.loc 1 78 17 is_stmt 1
  78:src/riscv.cpp ****                 Riscv::w_a0(return_value);
 604              		.loc 1 78 65 is_stmt 0
 605 0278 97000000 		call	_ZN15MemoryAllocator8mem_freeEPv@plt
 605      E7800000 
 606              	.LVL27:
  78:src/riscv.cpp ****                 Riscv::w_a0(return_value);
 607              		.loc 1 78 30
 608 0280 2334A4FA 		sd	a0,-88(s0)
  79:src/riscv.cpp ****             }
 609              		.loc 1 79 17 is_stmt 1
  79:src/riscv.cpp ****             }
 610              		.loc 1 79 28 is_stmt 0
 611 0284 833784FA 		ld	a5,-88(s0)
 612              	.LVL28:
 613              	.LBB92:
 614              	.LBB93:
 202:src/../h/riscv.hpp **** }
 615              		.loc 3 202 5 is_stmt 1
 202:src/../h/riscv.hpp **** }
 616              		.loc 3 202 46 is_stmt 0
 617              	#APP
 618              	# 202 "src/../h/riscv.hpp" 1
 619              		mv a0,a5
 620              	# 0 "" 2
 621              		.loc 3 203 1
 622              	#NO_APP
 623 028c 6FF09FFB 		j	.L10
 624              	.LVL29:
 625              	.L25:
 626              	.LBE93:
 627              	.LBE92:
 628              	.LBE91:
  86:src/riscv.cpp ****             {
 629              		.loc 1 86 13 is_stmt 1
  87:src/riscv.cpp ****                 //thread_create
 630              		.loc 1 87 13
 631              	.LBB94:
  89:src/riscv.cpp ****                 void(*start_routine)(void*);
 632              		.loc 1 89 17
  90:src/riscv.cpp ****                 void* arg;
 633              		.loc 1 90 17
  91:src/riscv.cpp ****                 void* stack;
 634              		.loc 1 91 17
  92:src/riscv.cpp **** 
 635              		.loc 1 92 17
  94:src/riscv.cpp ****                 start_routine = (TCB::Body) a2;
 636              		.loc 1 94 17
  94:src/riscv.cpp ****                 start_routine = (TCB::Body) a2;
 637              		.loc 1 94 24 is_stmt 0
 638 0290 833484FC 		ld	s1,-56(s0)
 639              	.LVL30:
  95:src/riscv.cpp ****                  arg = (void*) a3;
 640              		.loc 1 95 17 is_stmt 1
  95:src/riscv.cpp ****                  arg = (void*) a3;
GAS LISTING /tmp/ccoFpYJG.s 			page 23


 641              		.loc 1 95 31 is_stmt 0
 642 0294 033504FC 		ld	a0,-64(s0)
 643              	.LVL31:
  96:src/riscv.cpp ****                 stack = (void*) a4;
 644              		.loc 1 96 18 is_stmt 1
  96:src/riscv.cpp ****                 stack = (void*) a4;
 645              		.loc 1 96 22 is_stmt 0
 646 0298 833584FB 		ld	a1,-72(s0)
 647              	.LVL32:
  97:src/riscv.cpp ****                 uint64* stack_space = (uint64*) stack;
 648              		.loc 1 97 17 is_stmt 1
  97:src/riscv.cpp ****                 uint64* stack_space = (uint64*) stack;
 649              		.loc 1 97 23 is_stmt 0
 650 029c 033604FB 		ld	a2,-80(s0)
 651              	.LVL33:
  98:src/riscv.cpp **** 
 652              		.loc 1 98 17 is_stmt 1
 100:src/riscv.cpp **** 
 653              		.loc 1 100 17
 100:src/riscv.cpp **** 
 654              		.loc 1 100 44 is_stmt 0
 655 02a0 93060000 		li	a3,0
 656 02a4 97000000 		call	_ZN3TCB12createThreadEPFvPvES0_Pmb@plt
 656      E7800000 
 657              	.LVL34:
 100:src/riscv.cpp **** 
 658              		.loc 1 100 25
 659 02ac 23B0A400 		sd	a0,0(s1)
 660              	.LBE94:
 104:src/riscv.cpp **** 
 661              		.loc 1 104 17 is_stmt 1
 662 02b0 6FF05FF9 		j	.L10
 663              	.LVL35:
 664              	.L24:
 106:src/riscv.cpp ****                 // thread_exit
 665              		.loc 1 106 13
 106:src/riscv.cpp ****                 // thread_exit
 666              		.loc 1 106 24
 108:src/riscv.cpp ****                 Riscv::w_a0(return_value);
 667              		.loc 1 108 17
 108:src/riscv.cpp ****                 Riscv::w_a0(return_value);
 668              		.loc 1 108 41 is_stmt 0
 669 02b4 97000000 		call	_ZN3TCB4exitEv@plt
 669      E7800000 
 670              	.LVL36:
 108:src/riscv.cpp ****                 Riscv::w_a0(return_value);
 671              		.loc 1 108 30
 672 02bc 2334A4FA 		sd	a0,-88(s0)
 109:src/riscv.cpp ****             }
 673              		.loc 1 109 17 is_stmt 1
 109:src/riscv.cpp ****             }
 674              		.loc 1 109 28 is_stmt 0
 675 02c0 833784FA 		ld	a5,-88(s0)
 676              	.LVL37:
 677              	.LBB95:
 678              	.LBB96:
 202:src/../h/riscv.hpp **** }
GAS LISTING /tmp/ccoFpYJG.s 			page 24


 679              		.loc 3 202 5 is_stmt 1
 202:src/../h/riscv.hpp **** }
 680              		.loc 3 202 46 is_stmt 0
 681              	#APP
 682              	# 202 "src/../h/riscv.hpp" 1
 683              		mv a0,a5
 684              	# 0 "" 2
 685              		.loc 3 203 1
 686              	#NO_APP
 687 02c8 6FF0DFF7 		j	.L10
 688              	.LVL38:
 689              	.L23:
 690              	.LBE96:
 691              	.LBE95:
 113:src/riscv.cpp ****                 // thread_dispatch
 692              		.loc 1 113 13 is_stmt 1
 113:src/riscv.cpp ****                 // thread_dispatch
 693              		.loc 1 113 24
 115:src/riscv.cpp ****             }
 694              		.loc 1 115 17
 115:src/riscv.cpp ****             }
 695              		.loc 1 115 30 is_stmt 0
 696 02cc 97000000 		call	_ZN3TCB8dispatchEv@plt
 696      E7800000 
 697              	.LVL39:
 117:src/riscv.cpp **** 
 698              		.loc 1 117 17 is_stmt 1
 699 02d4 6FF01FF7 		j	.L10
 700              	.L22:
 119:src/riscv.cpp ****                 // thread_join
 701              		.loc 1 119 13
 119:src/riscv.cpp ****                 // thread_join
 702              		.loc 1 119 24
 703              	.LBB97:
 121:src/riscv.cpp ****                 __asm__ volatile("mv %0, a1" : "=r" (nit));
 704              		.loc 1 121 17
 122:src/riscv.cpp ****                 TCB::running->join(nit);
 705              		.loc 1 122 17
 122:src/riscv.cpp ****                 TCB::running->join(nit);
 706              		.loc 1 122 59 is_stmt 0
 707              	#APP
 708              	# 122 "src/riscv.cpp" 1
 709              		mv a1, a1
 710              	# 0 "" 2
 711              	.LVL40:
 123:src/riscv.cpp ****             }
 712              		.loc 1 123 17 is_stmt 1
 123:src/riscv.cpp ****             }
 713              		.loc 1 123 35 is_stmt 0
 714              	#NO_APP
 715 02dc 97070000 		la	a5,_ZN3TCB7runningE
 715      83B70700 
 716 02e4 03B50700 		ld	a0,0(a5)
 717 02e8 97000000 		call	_ZN3TCB4joinEPS_@plt
 717      E7800000 
 718              	.LVL41:
 719              	.LBE97:
GAS LISTING /tmp/ccoFpYJG.s 			page 25


 125:src/riscv.cpp **** 
 720              		.loc 1 125 17 is_stmt 1
 721 02f0 6FF05FF5 		j	.L10
 722              	.L21:
 127:src/riscv.cpp ****                 // thread_start
 723              		.loc 1 127 13
 127:src/riscv.cpp ****                 // thread_start
 724              		.loc 1 127 24
 725              	.LBB98:
 129:src/riscv.cpp ****                 __asm__ volatile("mv %0, a1" : "=r" (nit));
 726              		.loc 1 129 17
 130:src/riscv.cpp ****                return_value =  TCB::running->start(nit);
 727              		.loc 1 130 17
 130:src/riscv.cpp ****                return_value =  TCB::running->start(nit);
 728              		.loc 1 130 59 is_stmt 0
 729              	#APP
 730              	# 130 "src/riscv.cpp" 1
 731              		mv a1, a1
 732              	# 0 "" 2
 733              	.LVL42:
 131:src/riscv.cpp ****                 Riscv::w_a0(return_value);
 734              		.loc 1 131 16 is_stmt 1
 131:src/riscv.cpp ****                 Riscv::w_a0(return_value);
 735              		.loc 1 131 51 is_stmt 0
 736              	#NO_APP
 737 02f8 97070000 		la	a5,_ZN3TCB7runningE
 737      83B70700 
 738 0300 03B50700 		ld	a0,0(a5)
 739 0304 97000000 		call	_ZN3TCB5startEPS_@plt
 739      E7800000 
 740              	.LVL43:
 131:src/riscv.cpp ****                 Riscv::w_a0(return_value);
 741              		.loc 1 131 29
 742 030c 2334A4FA 		sd	a0,-88(s0)
 132:src/riscv.cpp ****             }
 743              		.loc 1 132 17 is_stmt 1
 132:src/riscv.cpp ****             }
 744              		.loc 1 132 28 is_stmt 0
 745 0310 833784FA 		ld	a5,-88(s0)
 746              	.LVL44:
 747              	.LBB99:
 748              	.LBB100:
 202:src/../h/riscv.hpp **** }
 749              		.loc 3 202 5 is_stmt 1
 202:src/../h/riscv.hpp **** }
 750              		.loc 3 202 46 is_stmt 0
 751              	#APP
 752              	# 202 "src/../h/riscv.hpp" 1
 753              		mv a0,a5
 754              	# 0 "" 2
 755              		.loc 3 203 1
 756              	#NO_APP
 757 0318 6FF0DFF2 		j	.L10
 758              	.LVL45:
 759              	.L20:
 760              	.LBE100:
 761              	.LBE99:
GAS LISTING /tmp/ccoFpYJG.s 			page 26


 762              	.LBE98:
 136:src/riscv.cpp ****                 // thread_make
 763              		.loc 1 136 13 is_stmt 1
 136:src/riscv.cpp ****                 // thread_make
 764              		.loc 1 136 24
 765              	.LBB101:
 138:src/riscv.cpp ****                 void(*start_routine)(void*);
 766              		.loc 1 138 17
 139:src/riscv.cpp ****                 void* arg;
 767              		.loc 1 139 17
 140:src/riscv.cpp ****                 void* stack;
 768              		.loc 1 140 17
 141:src/riscv.cpp **** 
 769              		.loc 1 141 17
 143:src/riscv.cpp ****                 start_routine = (TCB::Body) a2;
 770              		.loc 1 143 17
 143:src/riscv.cpp ****                 start_routine = (TCB::Body) a2;
 771              		.loc 1 143 24 is_stmt 0
 772 031c 833484FC 		ld	s1,-56(s0)
 773              	.LVL46:
 144:src/riscv.cpp ****                 arg = (void*) a3;
 774              		.loc 1 144 17 is_stmt 1
 144:src/riscv.cpp ****                 arg = (void*) a3;
 775              		.loc 1 144 31 is_stmt 0
 776 0320 033504FC 		ld	a0,-64(s0)
 777              	.LVL47:
 145:src/riscv.cpp ****                 stack = (void*) a4;
 778              		.loc 1 145 17 is_stmt 1
 145:src/riscv.cpp ****                 stack = (void*) a4;
 779              		.loc 1 145 21 is_stmt 0
 780 0324 833584FB 		ld	a1,-72(s0)
 781              	.LVL48:
 146:src/riscv.cpp ****                 uint64* stack_space = (uint64*) stack;
 782              		.loc 1 146 17 is_stmt 1
 146:src/riscv.cpp ****                 uint64* stack_space = (uint64*) stack;
 783              		.loc 1 146 23 is_stmt 0
 784 0328 033604FB 		ld	a2,-80(s0)
 785              	.LVL49:
 147:src/riscv.cpp **** 
 786              		.loc 1 147 17 is_stmt 1
 149:src/riscv.cpp ****             }
 787              		.loc 1 149 17
 149:src/riscv.cpp ****             }
 788              		.loc 1 149 42 is_stmt 0
 789 032c 93060000 		li	a3,0
 790 0330 97000000 		call	_ZN3TCB10makeThreadEPFvPvES0_Pmb@plt
 790      E7800000 
 791              	.LVL50:
 149:src/riscv.cpp ****             }
 792              		.loc 1 149 25
 793 0338 23B0A400 		sd	a0,0(s1)
 794              	.LBE101:
 151:src/riscv.cpp **** 
 795              		.loc 1 151 17 is_stmt 1
 796 033c 6FF09FF0 		j	.L10
 797              	.LVL51:
 798              	.L19:
GAS LISTING /tmp/ccoFpYJG.s 			page 27


 153:src/riscv.cpp ****                 // thread_delete
 799              		.loc 1 153 13
 153:src/riscv.cpp ****                 // thread_delete
 800              		.loc 1 153 24
 801              	.LBB102:
 156:src/riscv.cpp ****                 delete nit;
 802              		.loc 1 156 17
 156:src/riscv.cpp ****                 delete nit;
 803              		.loc 1 156 43 is_stmt 0
 804 0340 833484FC 		ld	s1,-56(s0)
 805              	.LVL52:
 157:src/riscv.cpp **** 
 806              		.loc 1 157 17 is_stmt 1
 157:src/riscv.cpp **** 
 807              		.loc 1 157 27 is_stmt 0
 808 0344 E38004F0 		beqz	s1,.L10
 809              	.LVL53:
 810              	.LBB103:
 811              	.LBB104:
  23:src/../h/../h/TCB.hpp ****         }
 812              		.loc 2 23 9 is_stmt 1
  23:src/../h/../h/TCB.hpp ****         }
 813              		.loc 2 23 18 is_stmt 0
 814 0348 03B50401 		ld	a0,16(s1)
  23:src/../h/../h/TCB.hpp ****         }
 815              		.loc 2 23 23
 816 034c 63060500 		beqz	a0,.L28
  23:src/../h/../h/TCB.hpp ****         }
 817              		.loc 2 23 18
 818 0350 97000000 		call	_ZdaPv@plt
 818      E7800000 
 819              	.LVL54:
 820              	.L28:
 821              	.LBE104:
 822              	.LBE103:
 157:src/riscv.cpp **** 
 823              		.loc 1 157 24
 824 0358 13850400 		mv	a0,s1
 825 035c 97000000 		call	_ZN3TCBdlEPv@plt
 825      E7800000 
 826              	.LVL55:
 827 0364 6FF01FEE 		j	.L10
 828              	.LVL56:
 829              	.L18:
 830              	.LBE102:
 162:src/riscv.cpp ****                 // sem_open
 831              		.loc 1 162 13 is_stmt 1
 162:src/riscv.cpp ****                 // sem_open
 832              		.loc 1 162 24
 833              	.LBB105:
 164:src/riscv.cpp ****                 unsigned init;
 834              		.loc 1 164 17
 165:src/riscv.cpp ****                 handle = (sem_t*) a1;
 835              		.loc 1 165 17
 166:src/riscv.cpp ****                 init = (unsigned) a2;
 836              		.loc 1 166 17
 166:src/riscv.cpp ****                 init = (unsigned) a2;
GAS LISTING /tmp/ccoFpYJG.s 			page 28


 837              		.loc 1 166 24 is_stmt 0
 838 0368 833484FC 		ld	s1,-56(s0)
 839              	.LVL57:
 167:src/riscv.cpp **** 
 840              		.loc 1 167 17 is_stmt 1
 167:src/riscv.cpp **** 
 841              		.loc 1 167 22 is_stmt 0
 842 036c 033504FC 		ld	a0,-64(s0)
 843              	.LVL58:
 170:src/riscv.cpp **** 
 844              		.loc 1 170 17 is_stmt 1
 170:src/riscv.cpp **** 
 845              		.loc 1 170 48 is_stmt 0
 846 0370 1B050500 		sext.w	a0,a0
 847 0374 97000000 		call	_ZN4_sem15createSemaphoreEj@plt
 847      E7800000 
 848              	.LVL59:
 170:src/riscv.cpp **** 
 849              		.loc 1 170 25
 850 037c 23B0A400 		sd	a0,0(s1)
 851              	.LBE105:
 174:src/riscv.cpp **** 
 852              		.loc 1 174 17 is_stmt 1
 853 0380 6FF05FEC 		j	.L10
 854              	.LVL60:
 855              	.L17:
 176:src/riscv.cpp ****                 // sem_close
 856              		.loc 1 176 13
 176:src/riscv.cpp ****                 // sem_close
 857              		.loc 1 176 24
 858              	.LBB106:
 178:src/riscv.cpp **** 
 859              		.loc 1 178 17
 180:src/riscv.cpp ****                 return_value = handle->close();
 860              		.loc 1 180 17
 180:src/riscv.cpp ****                 return_value = handle->close();
 861              		.loc 1 180 62 is_stmt 0
 862              	#APP
 863              	# 180 "src/riscv.cpp" 1
 864              		mv s1, a1
 865              	# 0 "" 2
 866              	.LVL61:
 181:src/riscv.cpp **** 
 867              		.loc 1 181 17 is_stmt 1
 181:src/riscv.cpp **** 
 868              		.loc 1 181 45 is_stmt 0
 869              	#NO_APP
 870 0388 13850400 		mv	a0,s1
 871 038c 97000000 		call	_ZN4_sem5closeEv@plt
 871      E7800000 
 872              	.LVL62:
 181:src/riscv.cpp **** 
 873              		.loc 1 181 30
 874 0394 2334A4FA 		sd	a0,-88(s0)
 184:src/riscv.cpp ****                 Riscv::w_a0(return_value);
 875              		.loc 1 184 17 is_stmt 1
 184:src/riscv.cpp ****                 Riscv::w_a0(return_value);
GAS LISTING /tmp/ccoFpYJG.s 			page 29


 876              		.loc 1 184 42 is_stmt 0
 877 0398 13850400 		mv	a0,s1
 878 039c 97000000 		call	_ZN15MemoryAllocator8mem_freeEPv@plt
 878      E7800000 
 879              	.LVL63:
 185:src/riscv.cpp **** 
 880              		.loc 1 185 17 is_stmt 1
 185:src/riscv.cpp **** 
 881              		.loc 1 185 28 is_stmt 0
 882 03a4 833784FA 		ld	a5,-88(s0)
 883              	.LVL64:
 884              	.LBB107:
 885              	.LBB108:
 202:src/../h/riscv.hpp **** }
 886              		.loc 3 202 5 is_stmt 1
 202:src/../h/riscv.hpp **** }
 887              		.loc 3 202 46 is_stmt 0
 888              	#APP
 889              	# 202 "src/../h/riscv.hpp" 1
 890              		mv a0,a5
 891              	# 0 "" 2
 892              		.loc 3 203 1
 893              	#NO_APP
 894 03ac 6FF09FE9 		j	.L10
 895              	.LVL65:
 896              	.L16:
 897              	.LBE108:
 898              	.LBE107:
 899              	.LBE106:
 191:src/riscv.cpp ****                 // sem_wait
 900              		.loc 1 191 13 is_stmt 1
 191:src/riscv.cpp ****                 // sem_wait
 901              		.loc 1 191 24
 902              	.LBB109:
 193:src/riscv.cpp ****                 handle = (sem_t)a1;
 903              		.loc 1 193 17
 194:src/riscv.cpp **** 
 904              		.loc 1 194 17
 194:src/riscv.cpp **** 
 905              		.loc 1 194 24 is_stmt 0
 906 03b0 033584FC 		ld	a0,-56(s0)
 907              	.LVL66:
 196:src/riscv.cpp **** 
 908              		.loc 1 196 17 is_stmt 1
 196:src/riscv.cpp **** 
 909              		.loc 1 196 44 is_stmt 0
 910 03b4 97000000 		call	_ZN4_sem4waitEv@plt
 910      E7800000 
 911              	.LVL67:
 196:src/riscv.cpp **** 
 912              		.loc 1 196 30
 913 03bc 2334A4FA 		sd	a0,-88(s0)
 198:src/riscv.cpp ****             }
 914              		.loc 1 198 17 is_stmt 1
 198:src/riscv.cpp ****             }
 915              		.loc 1 198 28 is_stmt 0
 916 03c0 833784FA 		ld	a5,-88(s0)
GAS LISTING /tmp/ccoFpYJG.s 			page 30


 917              	.LVL68:
 918              	.LBB110:
 919              	.LBB111:
 202:src/../h/riscv.hpp **** }
 920              		.loc 3 202 5 is_stmt 1
 202:src/../h/riscv.hpp **** }
 921              		.loc 3 202 46 is_stmt 0
 922              	#APP
 923              	# 202 "src/../h/riscv.hpp" 1
 924              		mv a0,a5
 925              	# 0 "" 2
 926              		.loc 3 203 1
 927              	#NO_APP
 928 03c8 6FF0DFE7 		j	.L10
 929              	.LVL69:
 930              	.L15:
 931              	.LBE111:
 932              	.LBE110:
 933              	.LBE109:
 202:src/riscv.cpp ****                 // sem_signal
 934              		.loc 1 202 13 is_stmt 1
 202:src/riscv.cpp ****                 // sem_signal
 935              		.loc 1 202 24
 936              	.LBB112:
 204:src/riscv.cpp ****                 handle = (sem_t)a1;
 937              		.loc 1 204 17
 205:src/riscv.cpp **** 
 938              		.loc 1 205 17
 205:src/riscv.cpp **** 
 939              		.loc 1 205 24 is_stmt 0
 940 03cc 033584FC 		ld	a0,-56(s0)
 941              	.LVL70:
 207:src/riscv.cpp **** 
 942              		.loc 1 207 17 is_stmt 1
 207:src/riscv.cpp **** 
 943              		.loc 1 207 46 is_stmt 0
 944 03d0 97000000 		call	_ZN4_sem6signalEv@plt
 944      E7800000 
 945              	.LVL71:
 207:src/riscv.cpp **** 
 946              		.loc 1 207 30
 947 03d8 2334A4FA 		sd	a0,-88(s0)
 209:src/riscv.cpp ****             }
 948              		.loc 1 209 17 is_stmt 1
 209:src/riscv.cpp ****             }
 949              		.loc 1 209 28 is_stmt 0
 950 03dc 833784FA 		ld	a5,-88(s0)
 951              	.LVL72:
 952              	.LBB113:
 953              	.LBB114:
 202:src/../h/riscv.hpp **** }
 954              		.loc 3 202 5 is_stmt 1
 202:src/../h/riscv.hpp **** }
 955              		.loc 3 202 46 is_stmt 0
 956              	#APP
 957              	# 202 "src/../h/riscv.hpp" 1
 958              		mv a0,a5
GAS LISTING /tmp/ccoFpYJG.s 			page 31


 959              	# 0 "" 2
 960              		.loc 3 203 1
 961              	#NO_APP
 962 03e4 6FF01FE6 		j	.L10
 963              	.LVL73:
 964              	.L14:
 965              	.LBE114:
 966              	.LBE113:
 967              	.LBE112:
 213:src/riscv.cpp ****                 // time_sleep
 968              		.loc 1 213 13 is_stmt 1
 213:src/riscv.cpp ****                 // time_sleep
 969              		.loc 1 213 24
 970              	.LBB115:
 215:src/riscv.cpp ****                 vreme = (time_t) a1;
 971              		.loc 1 215 17
 216:src/riscv.cpp **** 
 972              		.loc 1 216 17
 216:src/riscv.cpp **** 
 973              		.loc 1 216 23 is_stmt 0
 974 03e8 033684FC 		ld	a2,-56(s0)
 975              	.LVL74:
 218:src/riscv.cpp ****                 TCB::dispatch();
 976              		.loc 1 218 17 is_stmt 1
 218:src/riscv.cpp ****                 TCB::dispatch();
 977              		.loc 1 218 41 is_stmt 0
 978 03ec 97070000 		la	a5,_ZN3TCB7runningE
 978      83B70700 
 979 03f4 83B50700 		ld	a1,0(a5)
 980 03f8 17050000 		lla	a0,.LANCHOR0
 980      13050500 
 981 0400 97000000 		call	_ZN12SleepingList8add_nodeEP3TCBm@plt
 981      E7800000 
 982              	.LVL75:
 219:src/riscv.cpp ****             }
 983              		.loc 1 219 17 is_stmt 1
 219:src/riscv.cpp ****             }
 984              		.loc 1 219 30 is_stmt 0
 985 0408 97000000 		call	_ZN3TCB8dispatchEv@plt
 985      E7800000 
 986              	.LVL76:
 987              	.LBE115:
 221:src/riscv.cpp **** 
 988              		.loc 1 221 17 is_stmt 1
 989 0410 6FF05FE3 		j	.L10
 990              	.L13:
 223:src/riscv.cpp ****                 // getc
 991              		.loc 1 223 13
 223:src/riscv.cpp ****                 // getc
 992              		.loc 1 223 24
 993              	.LBB116:
 227:src/riscv.cpp **** 
 994              		.loc 1 227 17
 227:src/riscv.cpp **** 
 995              		.loc 1 227 50 is_stmt 0
 996 0414 17050000 		ld	a0,.LANCHOR0+8
 996      03350500 
GAS LISTING /tmp/ccoFpYJG.s 			page 32


 997 041c 97000000 		call	_ZN7_Buffer3getEv@plt
 997      E7800000 
 998              	.LVL77:
 229:src/riscv.cpp **** 
 999              		.loc 1 229 17 is_stmt 1
 229:src/riscv.cpp **** 
 1000              		.loc 1 229 64 is_stmt 0
 1001              	#APP
 1002              	# 229 "src/riscv.cpp" 1
 1003              		mv a0,a0
 1004              	# 0 "" 2
 1005              	#NO_APP
 1006              	.LBE116:
 232:src/riscv.cpp **** 
 1007              		.loc 1 232 17 is_stmt 1
 1008 0428 6FF0DFE1 		j	.L10
 1009              	.LVL78:
 1010              	.L11:
 234:src/riscv.cpp ****                 // putc
 1011              		.loc 1 234 13
 234:src/riscv.cpp ****                 // putc
 1012              		.loc 1 234 24
 1013              	.LBB117:
 236:src/riscv.cpp ****                 karakter = (char)a1;
 1014              		.loc 1 236 17
 237:src/riscv.cpp **** 
 1015              		.loc 1 237 17
 237:src/riscv.cpp **** 
 1016              		.loc 1 237 26 is_stmt 0
 1017 042c 833584FC 		ld	a1,-56(s0)
 1018              	.LVL79:
 240:src/riscv.cpp **** 
 1019              		.loc 1 240 17 is_stmt 1
 240:src/riscv.cpp **** 
 1020              		.loc 1 240 35 is_stmt 0
 1021 0430 93F5F50F 		andi	a1,a1,0xff
 1022 0434 17050000 		ld	a0,.LANCHOR0+16
 1022      03350500 
 1023 043c 97000000 		call	_ZN7_Buffer3putEc@plt
 1023      E7800000 
 1024              	.LVL80:
 1025              	.LBE117:
 248:src/riscv.cpp **** 
 1026              		.loc 1 248 17 is_stmt 1
 1027 0444 6FF01FE0 		j	.L10
 1028              	.LBE118:
 1029              	.LBE124:
 1030              	.LBE135:
 1031              	.LBE136:
 1032              		.cfi_endproc
 1033              	.LFE44:
 1035              		.align	2
 1036              		.globl	_ZN5Riscv22supervisorTimerHandlerEv
 1038              	_ZN5Riscv22supervisorTimerHandlerEv:
 1039              	.LFB45:
 286:src/riscv.cpp **** 
 287:src/riscv.cpp **** void Riscv::supervisorTimerHandler()
GAS LISTING /tmp/ccoFpYJG.s 			page 33


 288:src/riscv.cpp **** {
 1040              		.loc 1 288 1
 1041              		.cfi_startproc
 1042 0448 130101FC 		addi	sp,sp,-64
 1043              		.cfi_def_cfa_offset 64
 1044 044c 233C1102 		sd	ra,56(sp)
 1045 0450 23388102 		sd	s0,48(sp)
 1046 0454 23349102 		sd	s1,40(sp)
 1047              		.cfi_offset 1, -8
 1048              		.cfi_offset 8, -16
 1049              		.cfi_offset 9, -24
 1050 0458 13040104 		addi	s0,sp,64
 1051              		.cfi_def_cfa 8, 0
 289:src/riscv.cpp **** 
 290:src/riscv.cpp **** 
 291:src/riscv.cpp **** 
 292:src/riscv.cpp ****     TCB::timeSliceCounter++;
 1052              		.loc 1 292 5
 1053              		.loc 1 292 26 is_stmt 0
 1054 045c 97040000 		la	s1,_ZN3TCB16timeSliceCounterE
 1054      83B40400 
 1055 0464 83B70400 		ld	a5,0(s1)
 1056 0468 93871700 		addi	a5,a5,1
 1057 046c 23B0F400 		sd	a5,0(s1)
 293:src/riscv.cpp ****     mc_sip(SIP_SSIP);
 1058              		.loc 1 293 5 is_stmt 1
 1059              	.LVL81:
 1060              	.LBB137:
 1061              	.LBB138:
 164:src/../h/riscv.hpp **** }
 1062              		.loc 3 164 5
 164:src/../h/riscv.hpp **** }
 1063              		.loc 3 164 64 is_stmt 0
 1064 0470 93072000 		li	a5,2
 1065              	#APP
 1066              	# 164 "src/../h/riscv.hpp" 1
 1067              		csrc sip, a5
 1068              	# 0 "" 2
 1069              	.LVL82:
 1070              	#NO_APP
 1071              	.LBE138:
 1072              	.LBE137:
 294:src/riscv.cpp **** 
 295:src/riscv.cpp ****     SleepingThreads.otkucaj();
 1073              		.loc 1 295 5 is_stmt 1
 1074              		.loc 1 295 28 is_stmt 0
 1075 0478 17050000 		lla	a0,.LANCHOR0
 1075      13050500 
 1076 0480 97000000 		call	_ZN12SleepingList7otkucajEv@plt
 1076      E7800000 
 1077              	.LVL83:
 296:src/riscv.cpp **** 
 297:src/riscv.cpp **** 
 298:src/riscv.cpp ****     if (TCB::timeSliceCounter>=TCB::running->getTimeSlice())
 1078              		.loc 1 298 5 is_stmt 1
 1079              	.LBB139:
 1080              		.loc 1 298 58 is_stmt 0
GAS LISTING /tmp/ccoFpYJG.s 			page 34


 1081 0488 97070000 		la	a5,_ZN3TCB7runningE
 1081      83B70700 
 1082 0490 83B70700 		ld	a5,0(a5)
 1083              	.LVL84:
 1084              	.LBB140:
 1085              	.LBB141:
  33:src/../h/../h/TCB.hpp **** 
  34:src/../h/../h/TCB.hpp ****     void setFinished(bool value) { finished = value; }
  35:src/../h/../h/TCB.hpp **** 
  36:src/../h/../h/TCB.hpp ****     void setBlocked (bool value) { blocked=value; }
  37:src/../h/../h/TCB.hpp **** 
  38:src/../h/../h/TCB.hpp ****     void setStarted(bool value) { started = value; }
  39:src/../h/../h/TCB.hpp **** 
  40:src/../h/../h/TCB.hpp **** 
  41:src/../h/../h/TCB.hpp **** 
  42:src/../h/../h/TCB.hpp ****     uint64 getTimeSlice() const { return timeSlice; }
 1086              		.loc 2 42 35 is_stmt 1
 1087              		.loc 2 42 42 is_stmt 0
 1088 0494 83B78702 		ld	a5,40(a5)
 1089              	.LVL85:
 1090              	.LBE141:
 1091              	.LBE140:
 1092              		.loc 1 298 30
 1093 0498 03B70400 		ld	a4,0(s1)
 1094              		.loc 1 298 5
 1095 049c 637CF700 		bgeu	a4,a5,.L34
 1096              	.L31:
 1097              	.LBE139:
 299:src/riscv.cpp ****     {
 300:src/riscv.cpp ****         uint64 volatile sepc = Riscv::r_sepc();
 301:src/riscv.cpp ****         uint64 volatile sstatus = Riscv::r_sstatus();
 302:src/riscv.cpp ****         TCB::dispatch();
 303:src/riscv.cpp **** 
 304:src/riscv.cpp ****         Riscv::w_sepc(sepc);
 305:src/riscv.cpp ****         Riscv::w_sstatus(sstatus);
 306:src/riscv.cpp ****     }
 307:src/riscv.cpp **** 
 308:src/riscv.cpp **** 
 309:src/riscv.cpp **** 
 310:src/riscv.cpp **** }
 1098              		.loc 1 310 1
 1099 04a0 83308103 		ld	ra,56(sp)
 1100              		.cfi_remember_state
 1101              		.cfi_restore 1
 1102 04a4 03340103 		ld	s0,48(sp)
 1103              		.cfi_restore 8
 1104              		.cfi_def_cfa 2, 64
 1105 04a8 83348102 		ld	s1,40(sp)
 1106              		.cfi_restore 9
 1107 04ac 13010104 		addi	sp,sp,64
 1108              		.cfi_def_cfa_offset 0
 1109 04b0 67800000 		jr	ra
 1110              	.L34:
 1111              		.cfi_restore_state
 1112              	.LBB151:
 1113              	.LBB142:
 300:src/riscv.cpp ****         uint64 volatile sstatus = Riscv::r_sstatus();
GAS LISTING /tmp/ccoFpYJG.s 			page 35


 1114              		.loc 1 300 9 is_stmt 1
 1115              	.LBB143:
 1116              	.LBB144:
 123:src/../h/riscv.hpp ****     __asm__ volatile ("csrr %[sepc], sepc" : [sepc] "=r"(sepc));
 1117              		.loc 3 123 5
 124:src/../h/riscv.hpp ****     return sepc;
 1118              		.loc 3 124 5
 124:src/../h/riscv.hpp ****     return sepc;
 1119              		.loc 3 124 64 is_stmt 0
 1120              	#APP
 1121              	# 124 "src/../h/riscv.hpp" 1
 1122              		csrr a5, sepc
 1123              	# 0 "" 2
 1124              	#NO_APP
 1125 04b8 233CF4FC 		sd	a5,-40(s0)
 125:src/../h/riscv.hpp **** }
 1126              		.loc 3 125 5 is_stmt 1
 125:src/../h/riscv.hpp **** }
 1127              		.loc 3 125 12 is_stmt 0
 1128 04bc 833784FD 		ld	a5,-40(s0)
 1129              	.LBE144:
 1130              	.LBE143:
 300:src/riscv.cpp ****         uint64 volatile sstatus = Riscv::r_sstatus();
 1131              		.loc 1 300 46
 1132 04c0 2330F4FC 		sd	a5,-64(s0)
 301:src/riscv.cpp ****         TCB::dispatch();
 1133              		.loc 1 301 9 is_stmt 1
 1134              	.LBB145:
 1135              	.LBB146:
 191:src/../h/riscv.hpp ****     __asm__ volatile ("csrr %[sstatus], sstatus" : [sstatus] "=r"(sstatus));
 1136              		.loc 3 191 5
 192:src/../h/riscv.hpp ****     return sstatus;
 1137              		.loc 3 192 5
 192:src/../h/riscv.hpp ****     return sstatus;
 1138              		.loc 3 192 76 is_stmt 0
 1139              	#APP
 1140              	# 192 "src/../h/riscv.hpp" 1
 1141              		csrr a5, sstatus
 1142              	# 0 "" 2
 1143              	#NO_APP
 1144 04c8 2338F4FC 		sd	a5,-48(s0)
 193:src/../h/riscv.hpp **** }
 1145              		.loc 3 193 5 is_stmt 1
 193:src/../h/riscv.hpp **** }
 1146              		.loc 3 193 12 is_stmt 0
 1147 04cc 833704FD 		ld	a5,-48(s0)
 1148              	.LBE146:
 1149              	.LBE145:
 301:src/riscv.cpp ****         TCB::dispatch();
 1150              		.loc 1 301 52
 1151 04d0 2334F4FC 		sd	a5,-56(s0)
 302:src/riscv.cpp **** 
 1152              		.loc 1 302 9 is_stmt 1
 302:src/riscv.cpp **** 
 1153              		.loc 1 302 22 is_stmt 0
 1154 04d4 97000000 		call	_ZN3TCB8dispatchEv@plt
 1154      E7800000 
GAS LISTING /tmp/ccoFpYJG.s 			page 36


 1155              	.LVL86:
 304:src/riscv.cpp ****         Riscv::w_sstatus(sstatus);
 1156              		.loc 1 304 9 is_stmt 1
 304:src/riscv.cpp ****         Riscv::w_sstatus(sstatus);
 1157              		.loc 1 304 22 is_stmt 0
 1158 04dc 833704FC 		ld	a5,-64(s0)
 1159              	.LVL87:
 1160              	.LBB147:
 1161              	.LBB148:
 130:src/../h/riscv.hpp **** }
 1162              		.loc 3 130 5 is_stmt 1
 130:src/../h/riscv.hpp **** }
 1163              		.loc 3 130 65 is_stmt 0
 1164              	#APP
 1165              	# 130 "src/../h/riscv.hpp" 1
 1166              		csrw sepc, a5
 1167              	# 0 "" 2
 1168              	.LVL88:
 1169              	#NO_APP
 1170              	.LBE148:
 1171              	.LBE147:
 305:src/riscv.cpp ****     }
 1172              		.loc 1 305 9 is_stmt 1
 305:src/riscv.cpp ****     }
 1173              		.loc 1 305 25 is_stmt 0
 1174 04e4 833784FC 		ld	a5,-56(s0)
 1175              	.LVL89:
 1176              	.LBB149:
 1177              	.LBB150:
 198:src/../h/riscv.hpp **** }
 1178              		.loc 3 198 5 is_stmt 1
 198:src/../h/riscv.hpp **** }
 1179              		.loc 3 198 77 is_stmt 0
 1180              	#APP
 1181              	# 198 "src/../h/riscv.hpp" 1
 1182              		csrw sstatus, a5
 1183              	# 0 "" 2
 1184              	.LVL90:
 1185              	#NO_APP
 1186              	.LBE150:
 1187              	.LBE149:
 1188              	.LBE142:
 1189              	.LBE151:
 1190              		.loc 1 310 1
 1191 04ec 6FF05FFB 		j	.L31
 1192              		.cfi_endproc
 1193              	.LFE45:
 1195              		.align	2
 1196              		.globl	_ZN5Riscv33supervisorOutsideInterruptHandlerEv
 1198              	_ZN5Riscv33supervisorOutsideInterruptHandlerEv:
 1199              	.LFB46:
 311:src/riscv.cpp **** 
 312:src/riscv.cpp **** 
 313:src/riscv.cpp **** 
 314:src/riscv.cpp **** 
 315:src/riscv.cpp **** void Riscv::supervisorOutsideInterruptHandler()
 316:src/riscv.cpp **** {
GAS LISTING /tmp/ccoFpYJG.s 			page 37


 1200              		.loc 1 316 1 is_stmt 1
 1201              		.cfi_startproc
 1202 04f0 130101FD 		addi	sp,sp,-48
 1203              		.cfi_def_cfa_offset 48
 1204 04f4 23341102 		sd	ra,40(sp)
 1205 04f8 23308102 		sd	s0,32(sp)
 1206 04fc 233C9100 		sd	s1,24(sp)
 1207 0500 23382101 		sd	s2,16(sp)
 1208              		.cfi_offset 1, -8
 1209              		.cfi_offset 8, -16
 1210              		.cfi_offset 9, -24
 1211              		.cfi_offset 18, -32
 1212 0504 13040103 		addi	s0,sp,48
 1213              		.cfi_def_cfa 8, 0
 317:src/riscv.cpp **** 
 318:src/riscv.cpp **** 
 319:src/riscv.cpp ****   //Posto nam treba samo prvi bajt statusnog registra pretvoricemo ga u char
 320:src/riscv.cpp ****     int broj_prekida_uredjaja = plic_claim();
 1214              		.loc 1 320 5
 1215              		.loc 1 320 43 is_stmt 0
 1216 0508 97000000 		call	plic_claim@plt
 1216      E7800000 
 1217              	.LVL91:
 1218 0510 93040500 		mv	s1,a0
 1219              	.LVL92:
 321:src/riscv.cpp ****     if (broj_prekida_uredjaja == (int)CONSOLE_IRQ)
 1220              		.loc 1 321 5 is_stmt 1
 1221              	.LBB152:
 1222 0514 9307A000 		li	a5,10
 1223 0518 6304F502 		beq	a0,a5,.L40
 1224              	.LVL93:
 1225              	.L36:
 1226              	.LBE152:
 322:src/riscv.cpp ****     {
 323:src/riscv.cpp ****         char volatile status = *((char*)CONSOLE_STATUS);
 324:src/riscv.cpp ****         while (status & CONSOLE_RX_STATUS_BIT){
 325:src/riscv.cpp **** 
 326:src/riscv.cpp ****             //Ukoliko nema vise mesta odbacujemo preostale karaktere
 327:src/riscv.cpp ****             char  volatile c = *(char*)CONSOLE_RX_DATA;
 328:src/riscv.cpp ****            if (Riscv::input_buffer->size<256)
 329:src/riscv.cpp ****                 Riscv::input_buffer->put(c);
 330:src/riscv.cpp ****             status = *((char*)CONSOLE_STATUS);
 331:src/riscv.cpp ****         }
 332:src/riscv.cpp ****     }
 333:src/riscv.cpp ****     plic_complete(broj_prekida_uredjaja);
 1227              		.loc 1 333 5
 1228              		.loc 1 333 18 is_stmt 0
 1229 051c 13850400 		mv	a0,s1
 1230 0520 97000000 		call	plic_complete@plt
 1230      E7800000 
 1231              	.LVL94:
 334:src/riscv.cpp **** }...
 1232              		.loc 1 334 1
 1233 0528 83308102 		ld	ra,40(sp)
 1234              		.cfi_remember_state
 1235              		.cfi_restore 1
 1236 052c 03340102 		ld	s0,32(sp)
GAS LISTING /tmp/ccoFpYJG.s 			page 38


 1237              		.cfi_restore 8
 1238              		.cfi_def_cfa 2, 48
 1239 0530 83348101 		ld	s1,24(sp)
 1240              		.cfi_restore 9
 1241 0534 03390101 		ld	s2,16(sp)
 1242              		.cfi_restore 18
 1243 0538 13010103 		addi	sp,sp,48
 1244              		.cfi_def_cfa_offset 0
 1245 053c 67800000 		jr	ra
 1246              	.LVL95:
 1247              	.L40:
 1248              		.cfi_restore_state
 1249              	.LBB156:
 1250              	.LBB153:
 323:src/riscv.cpp ****         char volatile status = *((char*)CONSOLE_STATUS);
 1251              		.loc 1 323 9 is_stmt 1
 323:src/riscv.cpp ****         char volatile status = *((char*)CONSOLE_STATUS);
 1252              		.loc 1 323 32 is_stmt 0
 1253 0540 97070000 		la	a5,CONSOLE_STATUS
 1253      83B70700 
 1254 0548 03B90700 		ld	s2,0(a5)
 1255 054c 83470900 		lbu	a5,0(s2)
 323:src/riscv.cpp ****         char volatile status = *((char*)CONSOLE_STATUS);
 1256              		.loc 1 323 23
 1257 0550 230FF4FC 		sb	a5,-34(s0)
 1258 0554 6F00C001 		j	.L38
 1259              	.LVL96:
 1260              	.L41:
 1261              	.LBB154:
 329:src/riscv.cpp ****                 Riscv::input_buffer->put(c);
 1262              		.loc 1 329 17 is_stmt 1
 329:src/riscv.cpp ****                 Riscv::input_buffer->put(c);
 1263              		.loc 1 329 41 is_stmt 0
 1264 0558 8345F4FD 		lbu	a1,-33(s0)
 1265 055c 93F5F50F 		andi	a1,a1,0xff
 1266 0560 97000000 		call	_ZN7_Buffer3putEc@plt
 1266      E7800000 
 1267              	.LVL97:
 1268              	.L37:
 330:src/riscv.cpp ****             status = *((char*)CONSOLE_STATUS);
 1269              		.loc 1 330 13 is_stmt 1
 330:src/riscv.cpp ****             status = *((char*)CONSOLE_STATUS);
 1270              		.loc 1 330 22 is_stmt 0
 1271 0568 83470900 		lbu	a5,0(s2)
 330:src/riscv.cpp ****             status = *((char*)CONSOLE_STATUS);
 1272              		.loc 1 330 20
 1273 056c 230FF4FC 		sb	a5,-34(s0)
 1274              	.L38:
 1275              	.LBE154:
 324:src/riscv.cpp ****         while (status & CONSOLE_RX_STATUS_BIT){
 1276              		.loc 1 324 9 is_stmt 1
 324:src/riscv.cpp ****         while (status & CONSOLE_RX_STATUS_BIT){
 1277              		.loc 1 324 25
 324:src/riscv.cpp ****         while (status & CONSOLE_RX_STATUS_BIT){
 1278              		.loc 1 324 16 is_stmt 0
 1279 0570 8347E4FD 		lbu	a5,-34(s0)
 324:src/riscv.cpp ****         while (status & CONSOLE_RX_STATUS_BIT){
GAS LISTING /tmp/ccoFpYJG.s 			page 39


 1280              		.loc 1 324 25
 1281 0574 93F71700 		andi	a5,a5,1
 1282 0578 E38207FA 		beqz	a5,.L36
 1283              	.LBB155:
 327:src/riscv.cpp ****             char  volatile c = *(char*)CONSOLE_RX_DATA;
 1284              		.loc 1 327 13 is_stmt 1
 327:src/riscv.cpp ****             char  volatile c = *(char*)CONSOLE_RX_DATA;
 1285              		.loc 1 327 32 is_stmt 0
 1286 057c 97070000 		la	a5,CONSOLE_RX_DATA
 1286      83B70700 
 1287 0584 83B70700 		ld	a5,0(a5)
 1288 0588 83C70700 		lbu	a5,0(a5)
 327:src/riscv.cpp ****             char  volatile c = *(char*)CONSOLE_RX_DATA;
 1289              		.loc 1 327 28
 1290 058c A30FF4FC 		sb	a5,-33(s0)
 328:src/riscv.cpp ****            if (Riscv::input_buffer->size<256)
 1291              		.loc 1 328 12 is_stmt 1
 328:src/riscv.cpp ****            if (Riscv::input_buffer->size<256)
 1292              		.loc 1 328 37 is_stmt 0
 1293 0590 17050000 		ld	a0,.LANCHOR0+8
 1293      03350500 
 1294 0598 03278500 		lw	a4,8(a0)
 328:src/riscv.cpp ****            if (Riscv::input_buffer->size<256)
 1295              		.loc 1 328 12
 1296 059c 9307F00F 		li	a5,255
 1297 05a0 E3C4E7FC 		bgt	a4,a5,.L37
 1298 05a4 6FF05FFB 		j	.L41
 1299              	.LBE155:
 1300              	.LBE153:
 1301              	.LBE156:
 1302              		.cfi_endproc
 1303              	.LFE46:
 1305              		.globl	_ZN5Riscv13output_bufferE
 1306              		.globl	_ZN5Riscv12input_bufferE
 1307              		.globl	_ZN5Riscv15SleepingThreadsE
 1308              		.bss
 1309              		.align	3
 1310              		.set	.LANCHOR0,. + 0
 1313              	_ZN5Riscv15SleepingThreadsE:
 1314 0000 00000000 		.zero	8
 1314      00000000 
 1317              	_ZN5Riscv12input_bufferE:
 1318 0008 00000000 		.zero	8
 1318      00000000 
 1321              	_ZN5Riscv13output_bufferE:
 1322 0010 00000000 		.zero	8
 1322      00000000 
 1323              		.text
 1324              	.Letext0:
 1325              		.file 4 "src/../h/../lib/hw.h"
 1326              		.file 5 "src/../h/../h/MemoryAllocator.hpp"
 1327              		.file 6 "src/../h/../h/../h/syscall_c.h"
 1328              		.file 7 "src/../h/../h/_sem.hpp"
 1329              		.file 8 "src/../h/../h/sleeping_list.hpp"
 1330              		.file 9 "src/../h/../h/_Buffer.hpp"
 1331              		.file 10 "src/../test/printing.hpp"
GAS LISTING /tmp/ccoFpYJG.s 			page 40


DEFINED SYMBOLS
                            *ABS*:0000000000000000 riscv.cpp
     /tmp/ccoFpYJG.s:9      .text:0000000000000000 _ZN5Riscv10popSppSpieEv
     /tmp/ccoFpYJG.s:13     .text:0000000000000000 .L0 
     /tmp/ccoFpYJG.s:14     .text:0000000000000000 .L0 
     /tmp/ccoFpYJG.s:15     .text:0000000000000004 .L0 
     /tmp/ccoFpYJG.s:17     .text:0000000000000008 .L0 
     /tmp/ccoFpYJG.s:19     .text:000000000000000c .L0 
     /tmp/ccoFpYJG.s:21     .text:000000000000000c .L0 
       src/riscv.cpp:17     .text:000000000000000c .L0 
     /tmp/ccoFpYJG.s:27     .text:0000000000000010 .L0 
       src/riscv.cpp:18     .text:0000000000000010 .L0 
     /tmp/ccoFpYJG.s:33     .text:0000000000000014 .L0 
     /tmp/ccoFpYJG.s:34     .text:0000000000000018 .L0 
     /tmp/ccoFpYJG.s:35     .text:0000000000000018 .L0 
     /tmp/ccoFpYJG.s:37     .text:000000000000001c .L0 
     /tmp/ccoFpYJG.s:39     .text:0000000000000020 .L0 
     /tmp/ccoFpYJG.s:45     .text:0000000000000020 _ZN5Riscv13setThreadModeEv
     /tmp/ccoFpYJG.s:48     .text:0000000000000020 .L0 
     /tmp/ccoFpYJG.s:49     .text:0000000000000020 .L0 
     /tmp/ccoFpYJG.s:50     .text:0000000000000024 .L0 
     /tmp/ccoFpYJG.s:52     .text:0000000000000028 .L0 
     /tmp/ccoFpYJG.s:54     .text:000000000000002c .L0 
     /tmp/ccoFpYJG.s:56     .text:000000000000002c .L0 
     /tmp/ccoFpYJG.s:57     .text:000000000000002c .L0 
     /tmp/ccoFpYJG.s:64     .text:0000000000000038 .L0 
     /tmp/ccoFpYJG.s:65     .text:0000000000000038 .L0 
     /tmp/ccoFpYJG.s:70     .text:000000000000003c .L0 
     /tmp/ccoFpYJG.s:76     .text:0000000000000040 .L0 
     /tmp/ccoFpYJG.s:77     .text:0000000000000040 .L0 
     /tmp/ccoFpYJG.s:78     .text:0000000000000040 .L0 
     /tmp/ccoFpYJG.s:89     .text:0000000000000048 .L0 
     /tmp/ccoFpYJG.s:90     .text:000000000000004c .L0 
     /tmp/ccoFpYJG.s:91     .text:000000000000004c .L0 
     /tmp/ccoFpYJG.s:92     .text:000000000000004c .L0 
     /tmp/ccoFpYJG.s:94     .text:0000000000000050 .L0 
     /tmp/ccoFpYJG.s:97     .text:0000000000000054 .L0 
     /tmp/ccoFpYJG.s:102    .text:0000000000000054 .L0 
     /tmp/ccoFpYJG.s:103    .text:0000000000000054 .L0 
     /tmp/ccoFpYJG.s:104    .text:0000000000000054 .L0 
     /tmp/ccoFpYJG.s:114    .text:000000000000005c .L0 
     /tmp/ccoFpYJG.s:115    .text:0000000000000060 .L0 
     /tmp/ccoFpYJG.s:138    .text:0000000000000060 _ZN5Riscv24supervisorsyscallHandlerEv
     /tmp/ccoFpYJG.s:141    .text:0000000000000060 .L0 
     /tmp/ccoFpYJG.s:142    .text:0000000000000060 .L0 
     /tmp/ccoFpYJG.s:143    .text:0000000000000064 .L0 
     /tmp/ccoFpYJG.s:147    .text:0000000000000070 .L0 
     /tmp/ccoFpYJG.s:148    .text:0000000000000070 .L0 
     /tmp/ccoFpYJG.s:149    .text:0000000000000070 .L0 
     /tmp/ccoFpYJG.s:151    .text:0000000000000074 .L0 
     /tmp/ccoFpYJG.s:153    .text:0000000000000074 .L0 
     /tmp/ccoFpYJG.s:154    .text:0000000000000074 .L0 
       src/riscv.cpp:40     .text:0000000000000074 .L0 
     /tmp/ccoFpYJG.s:162    .text:000000000000007c .L0 
     /tmp/ccoFpYJG.s:163    .text:000000000000007c .L0 
     /tmp/ccoFpYJG.s:164    .text:000000000000007c .L0 
     /tmp/ccoFpYJG.s:165    .text:000000000000007c .L0 
GAS LISTING /tmp/ccoFpYJG.s 			page 41


     /tmp/ccoFpYJG.s:166    .text:000000000000007c .L0 
     /tmp/ccoFpYJG.s:167    .text:000000000000007c .L0 
     /tmp/ccoFpYJG.s:168    .text:000000000000007c .L0 
     /tmp/ccoFpYJG.s:170    .text:0000000000000080 .L0 
       src/riscv.cpp:49     .text:0000000000000080 .L0 
     /tmp/ccoFpYJG.s:178    .text:0000000000000088 .L0 
       src/riscv.cpp:50     .text:0000000000000088 .L0 
     /tmp/ccoFpYJG.s:186    .text:0000000000000090 .L0 
       src/riscv.cpp:51     .text:0000000000000090 .L0 
     /tmp/ccoFpYJG.s:194    .text:0000000000000098 .L0 
       src/riscv.cpp:52     .text:0000000000000098 .L0 
     /tmp/ccoFpYJG.s:202    .text:00000000000000a0 .L0 
       src/riscv.cpp:53     .text:00000000000000a0 .L0 
     /tmp/ccoFpYJG.s:212    .text:00000000000000a8 .L0 
     /tmp/ccoFpYJG.s:213    .text:00000000000000a8 .L0 
     /tmp/ccoFpYJG.s:214    .text:00000000000000a8 .L0 
  src/../h/riscv.hpp:192    .text:00000000000000a8 .L0 
     /tmp/ccoFpYJG.s:222    .text:00000000000000b0 .L0 
     /tmp/ccoFpYJG.s:223    .text:00000000000000b0 .L0 
     /tmp/ccoFpYJG.s:227    .text:00000000000000b4 .L0 
     /tmp/ccoFpYJG.s:231    .text:00000000000000b8 .L0 
     /tmp/ccoFpYJG.s:232    .text:00000000000000b8 .L0 
     /tmp/ccoFpYJG.s:233    .text:00000000000000b8 .L0 
  src/../h/riscv.hpp:124    .text:00000000000000b8 .L0 
     /tmp/ccoFpYJG.s:241    .text:00000000000000c0 .L0 
     /tmp/ccoFpYJG.s:242    .text:00000000000000c0 .L0 
     /tmp/ccoFpYJG.s:246    .text:00000000000000c4 .L0 
     /tmp/ccoFpYJG.s:249    .text:00000000000000c8 .L0 
     /tmp/ccoFpYJG.s:250    .text:00000000000000c8 .L0 
     /tmp/ccoFpYJG.s:252    .text:00000000000000cc .L0 
     /tmp/ccoFpYJG.s:255    .text:00000000000000d4 .L0 
     /tmp/ccoFpYJG.s:257    .text:00000000000000d8 .L0 
     /tmp/ccoFpYJG.s:263    .text:00000000000000e0 .L0 
     /tmp/ccoFpYJG.s:264    .text:00000000000000e0 .L0 
     /tmp/ccoFpYJG.s:352    .text:0000000000000108 .L0 
     /tmp/ccoFpYJG.s:353    .text:0000000000000108 .L0 
     /tmp/ccoFpYJG.s:354    .text:0000000000000108 .L0 
  src/../h/riscv.hpp:112    .text:0000000000000108 .L0 
     /tmp/ccoFpYJG.s:362    .text:0000000000000110 .L0 
     /tmp/ccoFpYJG.s:363    .text:0000000000000110 .L0 
     /tmp/ccoFpYJG.s:367    .text:0000000000000114 .L0 
     /tmp/ccoFpYJG.s:371    .text:0000000000000118 .L0 
     /tmp/ccoFpYJG.s:372    .text:0000000000000118 .L0 
     /tmp/ccoFpYJG.s:373    .text:0000000000000118 .L0 
  src/../h/riscv.hpp:148    .text:0000000000000118 .L0 
     /tmp/ccoFpYJG.s:381    .text:0000000000000120 .L0 
     /tmp/ccoFpYJG.s:382    .text:0000000000000120 .L0 
     /tmp/ccoFpYJG.s:386    .text:0000000000000124 .L0 
     /tmp/ccoFpYJG.s:390    .text:0000000000000128 .L0 
     /tmp/ccoFpYJG.s:391    .text:0000000000000128 .L0 
     /tmp/ccoFpYJG.s:392    .text:0000000000000128 .L0 
  src/../h/riscv.hpp:136    .text:0000000000000128 .L0 
     /tmp/ccoFpYJG.s:400    .text:0000000000000130 .L0 
     /tmp/ccoFpYJG.s:401    .text:0000000000000130 .L0 
     /tmp/ccoFpYJG.s:405    .text:0000000000000134 .L0 
     /tmp/ccoFpYJG.s:409    .text:0000000000000138 .L0 
     /tmp/ccoFpYJG.s:410    .text:0000000000000138 .L0 
GAS LISTING /tmp/ccoFpYJG.s 			page 42


     /tmp/ccoFpYJG.s:411    .text:0000000000000138 .L0 
  src/../h/riscv.hpp:124    .text:0000000000000138 .L0 
     /tmp/ccoFpYJG.s:419    .text:0000000000000140 .L0 
     /tmp/ccoFpYJG.s:420    .text:0000000000000140 .L0 
     /tmp/ccoFpYJG.s:424    .text:0000000000000144 .L0 
     /tmp/ccoFpYJG.s:426    .text:0000000000000148 .L0 
     /tmp/ccoFpYJG.s:427    .text:0000000000000148 .L0 
     /tmp/ccoFpYJG.s:431    .text:0000000000000158 .L0 
     /tmp/ccoFpYJG.s:432    .text:0000000000000158 .L0 
     /tmp/ccoFpYJG.s:439    .text:0000000000000170 .L0 
     /tmp/ccoFpYJG.s:440    .text:0000000000000170 .L0 
     /tmp/ccoFpYJG.s:444    .text:0000000000000180 .L0 
     /tmp/ccoFpYJG.s:445    .text:0000000000000180 .L0 
     /tmp/ccoFpYJG.s:449    .text:0000000000000190 .L0 
     /tmp/ccoFpYJG.s:450    .text:0000000000000190 .L0 
     /tmp/ccoFpYJG.s:457    .text:00000000000001a8 .L0 
     /tmp/ccoFpYJG.s:458    .text:00000000000001a8 .L0 
     /tmp/ccoFpYJG.s:462    .text:00000000000001b8 .L0 
     /tmp/ccoFpYJG.s:463    .text:00000000000001b8 .L0 
     /tmp/ccoFpYJG.s:467    .text:00000000000001c8 .L0 
     /tmp/ccoFpYJG.s:468    .text:00000000000001c8 .L0 
     /tmp/ccoFpYJG.s:475    .text:00000000000001e0 .L0 
     /tmp/ccoFpYJG.s:476    .text:00000000000001e0 .L0 
     /tmp/ccoFpYJG.s:480    .text:00000000000001f0 .L0 
     /tmp/ccoFpYJG.s:481    .text:00000000000001f0 .L0 
     /tmp/ccoFpYJG.s:485    .text:0000000000000200 .L0 
     /tmp/ccoFpYJG.s:486    .text:0000000000000200 .L0 
     /tmp/ccoFpYJG.s:493    .text:0000000000000218 .L0 
     /tmp/ccoFpYJG.s:494    .text:0000000000000218 .L0 
     /tmp/ccoFpYJG.s:504    .text:000000000000022c .L0 
     /tmp/ccoFpYJG.s:506    .text:000000000000022c .L0 
     /tmp/ccoFpYJG.s:507    .text:000000000000022c .L0 
     /tmp/ccoFpYJG.s:508    .text:000000000000022c .L0 
     /tmp/ccoFpYJG.s:509    .text:000000000000022c .L0 
     /tmp/ccoFpYJG.s:512    .text:0000000000000230 .L0 
     /tmp/ccoFpYJG.s:513    .text:0000000000000230 .L0 
     /tmp/ccoFpYJG.s:516    .text:0000000000000238 .L0 
     /tmp/ccoFpYJG.s:518    .text:000000000000023c .L0 
     /tmp/ccoFpYJG.s:519    .text:000000000000023c .L0 
     /tmp/ccoFpYJG.s:524    .text:0000000000000240 .L0 
  src/../h/riscv.hpp:202    .text:0000000000000240 .L0 
     /tmp/ccoFpYJG.s:538    .text:0000000000000244 .L0 
     /tmp/ccoFpYJG.s:539    .text:0000000000000244 .L0 
     /tmp/ccoFpYJG.s:543    .text:0000000000000250 .L0 
     /tmp/ccoFpYJG.s:544    .text:0000000000000250 .L0 
     /tmp/ccoFpYJG.s:549    .text:0000000000000254 .L0 
  src/../h/riscv.hpp:130    .text:0000000000000254 .L0 
     /tmp/ccoFpYJG.s:559    .text:0000000000000258 .L0 
     /tmp/ccoFpYJG.s:560    .text:0000000000000258 .L0 
     /tmp/ccoFpYJG.s:565    .text:000000000000025c .L0 
  src/../h/riscv.hpp:198    .text:000000000000025c .L0 
     /tmp/ccoFpYJG.s:578    .text:0000000000000260 .L0 
     /tmp/ccoFpYJG.s:579    .text:0000000000000264 .L0 
     /tmp/ccoFpYJG.s:580    .text:0000000000000264 .L0 
     /tmp/ccoFpYJG.s:582    .text:0000000000000268 .L0 
     /tmp/ccoFpYJG.s:583    .text:0000000000000268 .L0 
     /tmp/ccoFpYJG.s:585    .text:000000000000026c .L0 
GAS LISTING /tmp/ccoFpYJG.s 			page 43


     /tmp/ccoFpYJG.s:587    .text:0000000000000270 .L0 
     /tmp/ccoFpYJG.s:590    .text:0000000000000274 .L0 
     /tmp/ccoFpYJG.s:596    .text:0000000000000274 .L0 
     /tmp/ccoFpYJG.s:598    .text:0000000000000274 .L0 
     /tmp/ccoFpYJG.s:599    .text:0000000000000274 .L0 
     /tmp/ccoFpYJG.s:600    .text:0000000000000274 .L0 
     /tmp/ccoFpYJG.s:601    .text:0000000000000274 .L0 
     /tmp/ccoFpYJG.s:604    .text:0000000000000278 .L0 
     /tmp/ccoFpYJG.s:605    .text:0000000000000278 .L0 
     /tmp/ccoFpYJG.s:608    .text:0000000000000280 .L0 
     /tmp/ccoFpYJG.s:610    .text:0000000000000284 .L0 
     /tmp/ccoFpYJG.s:611    .text:0000000000000284 .L0 
     /tmp/ccoFpYJG.s:616    .text:0000000000000288 .L0 
  src/../h/riscv.hpp:202    .text:0000000000000288 .L0 
     /tmp/ccoFpYJG.s:623    .text:000000000000028c .L0 
     /tmp/ccoFpYJG.s:630    .text:0000000000000290 .L0 
     /tmp/ccoFpYJG.s:632    .text:0000000000000290 .L0 
     /tmp/ccoFpYJG.s:633    .text:0000000000000290 .L0 
     /tmp/ccoFpYJG.s:634    .text:0000000000000290 .L0 
     /tmp/ccoFpYJG.s:635    .text:0000000000000290 .L0 
     /tmp/ccoFpYJG.s:636    .text:0000000000000290 .L0 
     /tmp/ccoFpYJG.s:637    .text:0000000000000290 .L0 
     /tmp/ccoFpYJG.s:638    .text:0000000000000290 .L0 
     /tmp/ccoFpYJG.s:641    .text:0000000000000294 .L0 
     /tmp/ccoFpYJG.s:642    .text:0000000000000294 .L0 
     /tmp/ccoFpYJG.s:645    .text:0000000000000298 .L0 
     /tmp/ccoFpYJG.s:646    .text:0000000000000298 .L0 
     /tmp/ccoFpYJG.s:649    .text:000000000000029c .L0 
     /tmp/ccoFpYJG.s:650    .text:000000000000029c .L0 
     /tmp/ccoFpYJG.s:653    .text:00000000000002a0 .L0 
     /tmp/ccoFpYJG.s:654    .text:00000000000002a0 .L0 
     /tmp/ccoFpYJG.s:655    .text:00000000000002a0 .L0 
     /tmp/ccoFpYJG.s:659    .text:00000000000002ac .L0 
     /tmp/ccoFpYJG.s:662    .text:00000000000002b0 .L0 
     /tmp/ccoFpYJG.s:666    .text:00000000000002b4 .L0 
     /tmp/ccoFpYJG.s:667    .text:00000000000002b4 .L0 
     /tmp/ccoFpYJG.s:668    .text:00000000000002b4 .L0 
     /tmp/ccoFpYJG.s:669    .text:00000000000002b4 .L0 
     /tmp/ccoFpYJG.s:672    .text:00000000000002bc .L0 
     /tmp/ccoFpYJG.s:674    .text:00000000000002c0 .L0 
     /tmp/ccoFpYJG.s:675    .text:00000000000002c0 .L0 
     /tmp/ccoFpYJG.s:680    .text:00000000000002c4 .L0 
  src/../h/riscv.hpp:202    .text:00000000000002c4 .L0 
     /tmp/ccoFpYJG.s:687    .text:00000000000002c8 .L0 
     /tmp/ccoFpYJG.s:693    .text:00000000000002cc .L0 
     /tmp/ccoFpYJG.s:694    .text:00000000000002cc .L0 
     /tmp/ccoFpYJG.s:695    .text:00000000000002cc .L0 
     /tmp/ccoFpYJG.s:696    .text:00000000000002cc .L0 
     /tmp/ccoFpYJG.s:699    .text:00000000000002d4 .L0 
     /tmp/ccoFpYJG.s:702    .text:00000000000002d8 .L0 
     /tmp/ccoFpYJG.s:704    .text:00000000000002d8 .L0 
     /tmp/ccoFpYJG.s:705    .text:00000000000002d8 .L0 
     /tmp/ccoFpYJG.s:706    .text:00000000000002d8 .L0 
       src/riscv.cpp:122    .text:00000000000002d8 .L0 
     /tmp/ccoFpYJG.s:713    .text:00000000000002dc .L0 
     /tmp/ccoFpYJG.s:715    .text:00000000000002dc .L0 
     /tmp/ccoFpYJG.s:721    .text:00000000000002f0 .L0 
GAS LISTING /tmp/ccoFpYJG.s 			page 44


     /tmp/ccoFpYJG.s:724    .text:00000000000002f4 .L0 
     /tmp/ccoFpYJG.s:726    .text:00000000000002f4 .L0 
     /tmp/ccoFpYJG.s:727    .text:00000000000002f4 .L0 
     /tmp/ccoFpYJG.s:728    .text:00000000000002f4 .L0 
       src/riscv.cpp:130    .text:00000000000002f4 .L0 
     /tmp/ccoFpYJG.s:735    .text:00000000000002f8 .L0 
     /tmp/ccoFpYJG.s:737    .text:00000000000002f8 .L0 
     /tmp/ccoFpYJG.s:742    .text:000000000000030c .L0 
     /tmp/ccoFpYJG.s:744    .text:0000000000000310 .L0 
     /tmp/ccoFpYJG.s:745    .text:0000000000000310 .L0 
     /tmp/ccoFpYJG.s:750    .text:0000000000000314 .L0 
  src/../h/riscv.hpp:202    .text:0000000000000314 .L0 
     /tmp/ccoFpYJG.s:757    .text:0000000000000318 .L0 
     /tmp/ccoFpYJG.s:764    .text:000000000000031c .L0 
     /tmp/ccoFpYJG.s:766    .text:000000000000031c .L0 
     /tmp/ccoFpYJG.s:767    .text:000000000000031c .L0 
     /tmp/ccoFpYJG.s:768    .text:000000000000031c .L0 
     /tmp/ccoFpYJG.s:769    .text:000000000000031c .L0 
     /tmp/ccoFpYJG.s:770    .text:000000000000031c .L0 
     /tmp/ccoFpYJG.s:771    .text:000000000000031c .L0 
     /tmp/ccoFpYJG.s:772    .text:000000000000031c .L0 
     /tmp/ccoFpYJG.s:775    .text:0000000000000320 .L0 
     /tmp/ccoFpYJG.s:776    .text:0000000000000320 .L0 
     /tmp/ccoFpYJG.s:779    .text:0000000000000324 .L0 
     /tmp/ccoFpYJG.s:780    .text:0000000000000324 .L0 
     /tmp/ccoFpYJG.s:783    .text:0000000000000328 .L0 
     /tmp/ccoFpYJG.s:784    .text:0000000000000328 .L0 
     /tmp/ccoFpYJG.s:787    .text:000000000000032c .L0 
     /tmp/ccoFpYJG.s:788    .text:000000000000032c .L0 
     /tmp/ccoFpYJG.s:789    .text:000000000000032c .L0 
     /tmp/ccoFpYJG.s:793    .text:0000000000000338 .L0 
     /tmp/ccoFpYJG.s:796    .text:000000000000033c .L0 
     /tmp/ccoFpYJG.s:800    .text:0000000000000340 .L0 
     /tmp/ccoFpYJG.s:802    .text:0000000000000340 .L0 
     /tmp/ccoFpYJG.s:803    .text:0000000000000340 .L0 
     /tmp/ccoFpYJG.s:804    .text:0000000000000340 .L0 
     /tmp/ccoFpYJG.s:807    .text:0000000000000344 .L0 
     /tmp/ccoFpYJG.s:808    .text:0000000000000344 .L0 
     /tmp/ccoFpYJG.s:813    .text:0000000000000348 .L0 
     /tmp/ccoFpYJG.s:814    .text:0000000000000348 .L0 
     /tmp/ccoFpYJG.s:816    .text:000000000000034c .L0 
     /tmp/ccoFpYJG.s:818    .text:0000000000000350 .L0 
     /tmp/ccoFpYJG.s:824    .text:0000000000000358 .L0 
     /tmp/ccoFpYJG.s:832    .text:0000000000000368 .L0 
     /tmp/ccoFpYJG.s:834    .text:0000000000000368 .L0 
     /tmp/ccoFpYJG.s:835    .text:0000000000000368 .L0 
     /tmp/ccoFpYJG.s:836    .text:0000000000000368 .L0 
     /tmp/ccoFpYJG.s:837    .text:0000000000000368 .L0 
     /tmp/ccoFpYJG.s:838    .text:0000000000000368 .L0 
     /tmp/ccoFpYJG.s:841    .text:000000000000036c .L0 
     /tmp/ccoFpYJG.s:842    .text:000000000000036c .L0 
     /tmp/ccoFpYJG.s:845    .text:0000000000000370 .L0 
     /tmp/ccoFpYJG.s:846    .text:0000000000000370 .L0 
     /tmp/ccoFpYJG.s:850    .text:000000000000037c .L0 
     /tmp/ccoFpYJG.s:853    .text:0000000000000380 .L0 
     /tmp/ccoFpYJG.s:857    .text:0000000000000384 .L0 
     /tmp/ccoFpYJG.s:859    .text:0000000000000384 .L0 
GAS LISTING /tmp/ccoFpYJG.s 			page 45


     /tmp/ccoFpYJG.s:860    .text:0000000000000384 .L0 
     /tmp/ccoFpYJG.s:861    .text:0000000000000384 .L0 
       src/riscv.cpp:180    .text:0000000000000384 .L0 
     /tmp/ccoFpYJG.s:868    .text:0000000000000388 .L0 
     /tmp/ccoFpYJG.s:870    .text:0000000000000388 .L0 
     /tmp/ccoFpYJG.s:874    .text:0000000000000394 .L0 
     /tmp/ccoFpYJG.s:876    .text:0000000000000398 .L0 
     /tmp/ccoFpYJG.s:877    .text:0000000000000398 .L0 
     /tmp/ccoFpYJG.s:881    .text:00000000000003a4 .L0 
     /tmp/ccoFpYJG.s:882    .text:00000000000003a4 .L0 
     /tmp/ccoFpYJG.s:887    .text:00000000000003a8 .L0 
  src/../h/riscv.hpp:202    .text:00000000000003a8 .L0 
     /tmp/ccoFpYJG.s:894    .text:00000000000003ac .L0 
     /tmp/ccoFpYJG.s:901    .text:00000000000003b0 .L0 
     /tmp/ccoFpYJG.s:903    .text:00000000000003b0 .L0 
     /tmp/ccoFpYJG.s:904    .text:00000000000003b0 .L0 
     /tmp/ccoFpYJG.s:905    .text:00000000000003b0 .L0 
     /tmp/ccoFpYJG.s:906    .text:00000000000003b0 .L0 
     /tmp/ccoFpYJG.s:909    .text:00000000000003b4 .L0 
     /tmp/ccoFpYJG.s:910    .text:00000000000003b4 .L0 
     /tmp/ccoFpYJG.s:913    .text:00000000000003bc .L0 
     /tmp/ccoFpYJG.s:915    .text:00000000000003c0 .L0 
     /tmp/ccoFpYJG.s:916    .text:00000000000003c0 .L0 
     /tmp/ccoFpYJG.s:921    .text:00000000000003c4 .L0 
  src/../h/riscv.hpp:202    .text:00000000000003c4 .L0 
     /tmp/ccoFpYJG.s:928    .text:00000000000003c8 .L0 
     /tmp/ccoFpYJG.s:935    .text:00000000000003cc .L0 
     /tmp/ccoFpYJG.s:937    .text:00000000000003cc .L0 
     /tmp/ccoFpYJG.s:938    .text:00000000000003cc .L0 
     /tmp/ccoFpYJG.s:939    .text:00000000000003cc .L0 
     /tmp/ccoFpYJG.s:940    .text:00000000000003cc .L0 
     /tmp/ccoFpYJG.s:943    .text:00000000000003d0 .L0 
     /tmp/ccoFpYJG.s:944    .text:00000000000003d0 .L0 
     /tmp/ccoFpYJG.s:947    .text:00000000000003d8 .L0 
     /tmp/ccoFpYJG.s:949    .text:00000000000003dc .L0 
     /tmp/ccoFpYJG.s:950    .text:00000000000003dc .L0 
     /tmp/ccoFpYJG.s:955    .text:00000000000003e0 .L0 
  src/../h/riscv.hpp:202    .text:00000000000003e0 .L0 
     /tmp/ccoFpYJG.s:962    .text:00000000000003e4 .L0 
     /tmp/ccoFpYJG.s:969    .text:00000000000003e8 .L0 
     /tmp/ccoFpYJG.s:971    .text:00000000000003e8 .L0 
     /tmp/ccoFpYJG.s:972    .text:00000000000003e8 .L0 
     /tmp/ccoFpYJG.s:973    .text:00000000000003e8 .L0 
     /tmp/ccoFpYJG.s:974    .text:00000000000003e8 .L0 
     /tmp/ccoFpYJG.s:977    .text:00000000000003ec .L0 
     /tmp/ccoFpYJG.s:978    .text:00000000000003ec .L0 
     /tmp/ccoFpYJG.s:984    .text:0000000000000408 .L0 
     /tmp/ccoFpYJG.s:985    .text:0000000000000408 .L0 
     /tmp/ccoFpYJG.s:989    .text:0000000000000410 .L0 
     /tmp/ccoFpYJG.s:992    .text:0000000000000414 .L0 
     /tmp/ccoFpYJG.s:994    .text:0000000000000414 .L0 
     /tmp/ccoFpYJG.s:995    .text:0000000000000414 .L0 
     /tmp/ccoFpYJG.s:996    .text:0000000000000414 .L0 
     /tmp/ccoFpYJG.s:1000   .text:0000000000000424 .L0 
       src/riscv.cpp:229    .text:0000000000000424 .L0 
     /tmp/ccoFpYJG.s:1008   .text:0000000000000428 .L0 
     /tmp/ccoFpYJG.s:1012   .text:000000000000042c .L0 
GAS LISTING /tmp/ccoFpYJG.s 			page 46


     /tmp/ccoFpYJG.s:1014   .text:000000000000042c .L0 
     /tmp/ccoFpYJG.s:1015   .text:000000000000042c .L0 
     /tmp/ccoFpYJG.s:1016   .text:000000000000042c .L0 
     /tmp/ccoFpYJG.s:1017   .text:000000000000042c .L0 
     /tmp/ccoFpYJG.s:1020   .text:0000000000000430 .L0 
     /tmp/ccoFpYJG.s:1021   .text:0000000000000430 .L0 
     /tmp/ccoFpYJG.s:1027   .text:0000000000000444 .L0 
     /tmp/ccoFpYJG.s:1032   .text:0000000000000448 .L0 
     /tmp/ccoFpYJG.s:1038   .text:0000000000000448 _ZN5Riscv22supervisorTimerHandlerEv
     /tmp/ccoFpYJG.s:1041   .text:0000000000000448 .L0 
     /tmp/ccoFpYJG.s:1042   .text:0000000000000448 .L0 
     /tmp/ccoFpYJG.s:1043   .text:000000000000044c .L0 
     /tmp/ccoFpYJG.s:1047   .text:0000000000000458 .L0 
     /tmp/ccoFpYJG.s:1048   .text:0000000000000458 .L0 
     /tmp/ccoFpYJG.s:1049   .text:0000000000000458 .L0 
     /tmp/ccoFpYJG.s:1051   .text:000000000000045c .L0 
     /tmp/ccoFpYJG.s:1053   .text:000000000000045c .L0 
     /tmp/ccoFpYJG.s:1054   .text:000000000000045c .L0 
     /tmp/ccoFpYJG.s:1062   .text:0000000000000470 .L0 
     /tmp/ccoFpYJG.s:1063   .text:0000000000000470 .L0 
     /tmp/ccoFpYJG.s:1064   .text:0000000000000470 .L0 
     /tmp/ccoFpYJG.s:1074   .text:0000000000000478 .L0 
     /tmp/ccoFpYJG.s:1075   .text:0000000000000478 .L0 
     /tmp/ccoFpYJG.s:1080   .text:0000000000000488 .L0 
     /tmp/ccoFpYJG.s:1081   .text:0000000000000488 .L0 
     /tmp/ccoFpYJG.s:1087   .text:0000000000000494 .L0 
     /tmp/ccoFpYJG.s:1088   .text:0000000000000494 .L0 
     /tmp/ccoFpYJG.s:1093   .text:0000000000000498 .L0 
     /tmp/ccoFpYJG.s:1095   .text:000000000000049c .L0 
     /tmp/ccoFpYJG.s:1099   .text:00000000000004a0 .L0 
     /tmp/ccoFpYJG.s:1100   .text:00000000000004a4 .L0 
     /tmp/ccoFpYJG.s:1101   .text:00000000000004a4 .L0 
     /tmp/ccoFpYJG.s:1103   .text:00000000000004a8 .L0 
     /tmp/ccoFpYJG.s:1104   .text:00000000000004a8 .L0 
     /tmp/ccoFpYJG.s:1106   .text:00000000000004ac .L0 
     /tmp/ccoFpYJG.s:1108   .text:00000000000004b0 .L0 
     /tmp/ccoFpYJG.s:1111   .text:00000000000004b4 .L0 
     /tmp/ccoFpYJG.s:1117   .text:00000000000004b4 .L0 
     /tmp/ccoFpYJG.s:1118   .text:00000000000004b4 .L0 
     /tmp/ccoFpYJG.s:1119   .text:00000000000004b4 .L0 
  src/../h/riscv.hpp:124    .text:00000000000004b4 .L0 
     /tmp/ccoFpYJG.s:1127   .text:00000000000004bc .L0 
     /tmp/ccoFpYJG.s:1128   .text:00000000000004bc .L0 
     /tmp/ccoFpYJG.s:1132   .text:00000000000004c0 .L0 
     /tmp/ccoFpYJG.s:1136   .text:00000000000004c4 .L0 
     /tmp/ccoFpYJG.s:1137   .text:00000000000004c4 .L0 
     /tmp/ccoFpYJG.s:1138   .text:00000000000004c4 .L0 
  src/../h/riscv.hpp:192    .text:00000000000004c4 .L0 
     /tmp/ccoFpYJG.s:1146   .text:00000000000004cc .L0 
     /tmp/ccoFpYJG.s:1147   .text:00000000000004cc .L0 
     /tmp/ccoFpYJG.s:1151   .text:00000000000004d0 .L0 
     /tmp/ccoFpYJG.s:1153   .text:00000000000004d4 .L0 
     /tmp/ccoFpYJG.s:1154   .text:00000000000004d4 .L0 
     /tmp/ccoFpYJG.s:1157   .text:00000000000004dc .L0 
     /tmp/ccoFpYJG.s:1158   .text:00000000000004dc .L0 
     /tmp/ccoFpYJG.s:1163   .text:00000000000004e0 .L0 
  src/../h/riscv.hpp:130    .text:00000000000004e0 .L0 
GAS LISTING /tmp/ccoFpYJG.s 			page 47


     /tmp/ccoFpYJG.s:1173   .text:00000000000004e4 .L0 
     /tmp/ccoFpYJG.s:1174   .text:00000000000004e4 .L0 
     /tmp/ccoFpYJG.s:1179   .text:00000000000004e8 .L0 
  src/../h/riscv.hpp:198    .text:00000000000004e8 .L0 
     /tmp/ccoFpYJG.s:1191   .text:00000000000004ec .L0 
     /tmp/ccoFpYJG.s:1192   .text:00000000000004f0 .L0 
     /tmp/ccoFpYJG.s:1198   .text:00000000000004f0 _ZN5Riscv33supervisorOutsideInterruptHandlerEv
     /tmp/ccoFpYJG.s:1201   .text:00000000000004f0 .L0 
     /tmp/ccoFpYJG.s:1202   .text:00000000000004f0 .L0 
     /tmp/ccoFpYJG.s:1203   .text:00000000000004f4 .L0 
     /tmp/ccoFpYJG.s:1208   .text:0000000000000504 .L0 
     /tmp/ccoFpYJG.s:1209   .text:0000000000000504 .L0 
     /tmp/ccoFpYJG.s:1210   .text:0000000000000504 .L0 
     /tmp/ccoFpYJG.s:1211   .text:0000000000000504 .L0 
     /tmp/ccoFpYJG.s:1213   .text:0000000000000508 .L0 
     /tmp/ccoFpYJG.s:1215   .text:0000000000000508 .L0 
     /tmp/ccoFpYJG.s:1216   .text:0000000000000508 .L0 
     /tmp/ccoFpYJG.s:1222   .text:0000000000000514 .L0 
     /tmp/ccoFpYJG.s:1228   .text:000000000000051c .L0 
     /tmp/ccoFpYJG.s:1229   .text:000000000000051c .L0 
     /tmp/ccoFpYJG.s:1233   .text:0000000000000528 .L0 
     /tmp/ccoFpYJG.s:1234   .text:000000000000052c .L0 
     /tmp/ccoFpYJG.s:1235   .text:000000000000052c .L0 
     /tmp/ccoFpYJG.s:1237   .text:0000000000000530 .L0 
     /tmp/ccoFpYJG.s:1238   .text:0000000000000530 .L0 
     /tmp/ccoFpYJG.s:1240   .text:0000000000000534 .L0 
     /tmp/ccoFpYJG.s:1242   .text:0000000000000538 .L0 
     /tmp/ccoFpYJG.s:1244   .text:000000000000053c .L0 
     /tmp/ccoFpYJG.s:1248   .text:0000000000000540 .L0 
     /tmp/ccoFpYJG.s:1252   .text:0000000000000540 .L0 
     /tmp/ccoFpYJG.s:1253   .text:0000000000000540 .L0 
     /tmp/ccoFpYJG.s:1257   .text:0000000000000550 .L0 
     /tmp/ccoFpYJG.s:1263   .text:0000000000000558 .L0 
     /tmp/ccoFpYJG.s:1264   .text:0000000000000558 .L0 
     /tmp/ccoFpYJG.s:1270   .text:0000000000000568 .L0 
     /tmp/ccoFpYJG.s:1271   .text:0000000000000568 .L0 
     /tmp/ccoFpYJG.s:1273   .text:000000000000056c .L0 
     /tmp/ccoFpYJG.s:1277   .text:0000000000000570 .L0 
     /tmp/ccoFpYJG.s:1278   .text:0000000000000570 .L0 
     /tmp/ccoFpYJG.s:1279   .text:0000000000000570 .L0 
     /tmp/ccoFpYJG.s:1281   .text:0000000000000574 .L0 
     /tmp/ccoFpYJG.s:1285   .text:000000000000057c .L0 
     /tmp/ccoFpYJG.s:1286   .text:000000000000057c .L0 
     /tmp/ccoFpYJG.s:1290   .text:000000000000058c .L0 
     /tmp/ccoFpYJG.s:1292   .text:0000000000000590 .L0 
     /tmp/ccoFpYJG.s:1293   .text:0000000000000590 .L0 
     /tmp/ccoFpYJG.s:1296   .text:000000000000059c .L0 
     /tmp/ccoFpYJG.s:1302   .text:00000000000005a8 .L0 
     /tmp/ccoFpYJG.s:1321   .bss:0000000000000010 _ZN5Riscv13output_bufferE
     /tmp/ccoFpYJG.s:1317   .bss:0000000000000008 _ZN5Riscv12input_bufferE
     /tmp/ccoFpYJG.s:1313   .bss:0000000000000000 _ZN5Riscv15SleepingThreadsE
     /tmp/ccoFpYJG.s:1310   .bss:0000000000000000 .LANCHOR0
     /tmp/ccoFpYJG.s:1332   .text:00000000000005a8 .L0 
     /tmp/ccoFpYJG.s:57     .text:000000000000002c .L0 
     /tmp/ccoFpYJG.s:276    .rodata:0000000000000000 .L12
     /tmp/ccoFpYJG.s:268    .text:00000000000000f0 .L0 
     /tmp/ccoFpYJG.s:120    .rodata.str1.8:0000000000000000 .LC0
GAS LISTING /tmp/ccoFpYJG.s 			page 48


     /tmp/ccoFpYJG.s:427    .text:0000000000000148 .L0 
     /tmp/ccoFpYJG.s:123    .rodata.str1.8:0000000000000010 .LC1
     /tmp/ccoFpYJG.s:440    .text:0000000000000170 .L0 
     /tmp/ccoFpYJG.s:126    .rodata.str1.8:0000000000000018 .LC2
     /tmp/ccoFpYJG.s:445    .text:0000000000000180 .L0 
     /tmp/ccoFpYJG.s:458    .text:00000000000001a8 .L0 
     /tmp/ccoFpYJG.s:129    .rodata.str1.8:0000000000000020 .LC3
     /tmp/ccoFpYJG.s:463    .text:00000000000001b8 .L0 
     /tmp/ccoFpYJG.s:476    .text:00000000000001e0 .L0 
     /tmp/ccoFpYJG.s:132    .rodata.str1.8:0000000000000028 .LC4
     /tmp/ccoFpYJG.s:481    .text:00000000000001f0 .L0 
     /tmp/ccoFpYJG.s:494    .text:0000000000000218 .L0 
     /tmp/ccoFpYJG.s:715    .text:00000000000002dc .L0 
     /tmp/ccoFpYJG.s:737    .text:00000000000002f8 .L0 
     /tmp/ccoFpYJG.s:978    .text:00000000000003ec .L0 
     /tmp/ccoFpYJG.s:980    .text:00000000000003f8 .L0 
     /tmp/ccoFpYJG.s:996    .text:0000000000000414 .L0 
     /tmp/ccoFpYJG.s:1022   .text:0000000000000434 .L0 
     /tmp/ccoFpYJG.s:1054   .text:000000000000045c .L0 
     /tmp/ccoFpYJG.s:1075   .text:0000000000000478 .L0 
     /tmp/ccoFpYJG.s:1081   .text:0000000000000488 .L0 
     /tmp/ccoFpYJG.s:1253   .text:0000000000000540 .L0 
     /tmp/ccoFpYJG.s:1286   .text:000000000000057c .L0 
     /tmp/ccoFpYJG.s:1293   .text:0000000000000590 .L0 
     /tmp/ccoFpYJG.s:96     .text:0000000000000054 .L4
     /tmp/ccoFpYJG.s:85     .text:0000000000000048 .L3
     /tmp/ccoFpYJG.s:259    .text:00000000000000e0 .L8
     /tmp/ccoFpYJG.s:345    .text:0000000000000108 .L30
     /tmp/ccoFpYJG.s:531    .text:0000000000000244 .L10
     /tmp/ccoFpYJG.s:572    .text:0000000000000260 .L7
     /tmp/ccoFpYJG.s:820    .text:0000000000000358 .L28
     /tmp/ccoFpYJG.s:1110   .text:00000000000004b4 .L34
     /tmp/ccoFpYJG.s:1096   .text:00000000000004a0 .L31
     /tmp/ccoFpYJG.s:1247   .text:0000000000000540 .L40
     /tmp/ccoFpYJG.s:1274   .text:0000000000000570 .L38
     /tmp/ccoFpYJG.s:1225   .text:000000000000051c .L36
     /tmp/ccoFpYJG.s:1268   .text:0000000000000568 .L37
     /tmp/ccoFpYJG.s:1260   .text:0000000000000558 .L41
     /tmp/ccoFpYJG.s:498    .text:000000000000022c .L27
     /tmp/ccoFpYJG.s:589    .text:0000000000000274 .L26
     /tmp/ccoFpYJG.s:625    .text:0000000000000290 .L25
     /tmp/ccoFpYJG.s:664    .text:00000000000002b4 .L24
     /tmp/ccoFpYJG.s:689    .text:00000000000002cc .L23
     /tmp/ccoFpYJG.s:700    .text:00000000000002d8 .L22
     /tmp/ccoFpYJG.s:722    .text:00000000000002f4 .L21
     /tmp/ccoFpYJG.s:759    .text:000000000000031c .L20
     /tmp/ccoFpYJG.s:798    .text:0000000000000340 .L19
     /tmp/ccoFpYJG.s:829    .text:0000000000000368 .L18
     /tmp/ccoFpYJG.s:855    .text:0000000000000384 .L17
     /tmp/ccoFpYJG.s:896    .text:00000000000003b0 .L16
     /tmp/ccoFpYJG.s:930    .text:00000000000003cc .L15
     /tmp/ccoFpYJG.s:964    .text:00000000000003e8 .L14
     /tmp/ccoFpYJG.s:990    .text:0000000000000414 .L13
     /tmp/ccoFpYJG.s:1010   .text:000000000000042c .L11
     /tmp/ccoFpYJG.s:4241   .debug_abbrev:0000000000000000 .Ldebug_abbrev0
     /tmp/ccoFpYJG.s:6301   .debug_str:0000000000000bc3 .LASF241
     /tmp/ccoFpYJG.s:6355   .debug_str:0000000000000e0a .LASF242
GAS LISTING /tmp/ccoFpYJG.s 			page 49


     /tmp/ccoFpYJG.s:6313   .debug_str:0000000000000cc6 .LASF243
     /tmp/ccoFpYJG.s:5      .text:0000000000000000 .Ltext0
     /tmp/ccoFpYJG.s:1324   .text:00000000000005a8 .Letext0
     /tmp/ccoFpYJG.s:5893   .debug_line:0000000000000000 .Ldebug_line0
     /tmp/ccoFpYJG.s:6063   .debug_str:00000000000004e6 .LASF0
     /tmp/ccoFpYJG.s:6097   .debug_str:00000000000005f7 .LASF1
     /tmp/ccoFpYJG.s:6217   .debug_str:0000000000000986 .LASF2
     /tmp/ccoFpYJG.s:6227   .debug_str:00000000000009c8 .LASF4
     /tmp/ccoFpYJG.s:6073   .debug_str:000000000000052c .LASF3
     /tmp/ccoFpYJG.s:5913   .debug_str:0000000000000094 .LASF5
     /tmp/ccoFpYJG.s:6187   .debug_str:0000000000000894 .LASF6
     /tmp/ccoFpYJG.s:6173   .debug_str:000000000000081f .LASF7
     /tmp/ccoFpYJG.s:6085   .debug_str:0000000000000598 .LASF8
     /tmp/ccoFpYJG.s:6031   .debug_str:00000000000003e1 .LASF9
     /tmp/ccoFpYJG.s:6039   .debug_str:0000000000000418 .LASF10
     /tmp/ccoFpYJG.s:5953   .debug_str:00000000000001b9 .LASF11
     /tmp/ccoFpYJG.s:6019   .debug_str:00000000000003a8 .LASF12
     /tmp/ccoFpYJG.s:5977   .debug_str:0000000000000279 .LASF13
     /tmp/ccoFpYJG.s:5951   .debug_str:00000000000001a9 .LASF14
     /tmp/ccoFpYJG.s:6271   .debug_str:0000000000000afa .LASF15
     /tmp/ccoFpYJG.s:6003   .debug_str:0000000000000333 .LASF16
     /tmp/ccoFpYJG.s:6255   .debug_str:0000000000000a92 .LASF17
     /tmp/ccoFpYJG.s:6169   .debug_str:0000000000000807 .LASF32
     /tmp/ccoFpYJG.s:6029   .debug_str:00000000000003d5 .LASF21
     /tmp/ccoFpYJG.s:5955   .debug_str:00000000000001c8 .LASF18
     /tmp/ccoFpYJG.s:5927   .debug_str:00000000000000fe .LASF19
     /tmp/ccoFpYJG.s:6095   .debug_str:00000000000005f2 .LASF20
     /tmp/ccoFpYJG.s:6137   .debug_str:0000000000000734 .LASF22
     /tmp/ccoFpYJG.s:6059   .debug_str:00000000000004b6 .LASF23
     /tmp/ccoFpYJG.s:6203   .debug_str:00000000000008fa .LASF24
     /tmp/ccoFpYJG.s:6111   .debug_str:0000000000000665 .LASF25
     /tmp/ccoFpYJG.s:5969   .debug_str:0000000000000230 .LASF26
     /tmp/ccoFpYJG.s:5939   .debug_str:0000000000000140 .LASF27
     /tmp/ccoFpYJG.s:6279   .debug_str:0000000000000b37 .LASF34
     /tmp/ccoFpYJG.s:6123   .debug_str:00000000000006b0 .LASF36
     /tmp/ccoFpYJG.s:6121   .debug_str:00000000000006a6 .LASF68
     /tmp/ccoFpYJG.s:5917   .debug_str:00000000000000a6 .LASF70
     /tmp/ccoFpYJG.s:6113   .debug_str:000000000000066f .LASF28
     /tmp/ccoFpYJG.s:6391   .debug_str:0000000000000eec .LASF29
     /tmp/ccoFpYJG.s:6027   .debug_str:00000000000003cc .LASF30
     /tmp/ccoFpYJG.s:6339   .debug_str:0000000000000db2 .LASF31
     /tmp/ccoFpYJG.s:5963   .debug_str:000000000000020b .LASF33
     /tmp/ccoFpYJG.s:6229   .debug_str:00000000000009cf .LASF35
     /tmp/ccoFpYJG.s:5909   .debug_str:000000000000007e .LASF37
     /tmp/ccoFpYJG.s:6281   .debug_str:0000000000000b40 .LASF38
     /tmp/ccoFpYJG.s:6205   .debug_str:0000000000000904 .LASF40
     /tmp/ccoFpYJG.s:6219   .debug_str:0000000000000994 .LASF39
     /tmp/ccoFpYJG.s:5945   .debug_str:0000000000000177 .LASF41
     /tmp/ccoFpYJG.s:6147   .debug_str:0000000000000777 .LASF42
     /tmp/ccoFpYJG.s:5899   .debug_str:000000000000001c .LASF43
     /tmp/ccoFpYJG.s:6311   .debug_str:0000000000000cb7 .LASF44
     /tmp/ccoFpYJG.s:5921   .debug_str:00000000000000d7 .LASF45
     /tmp/ccoFpYJG.s:6297   .debug_str:0000000000000baf .LASF46
     /tmp/ccoFpYJG.s:6319   .debug_str:0000000000000d06 .LASF47
     /tmp/ccoFpYJG.s:6285   .debug_str:0000000000000b50 .LASF48
     /tmp/ccoFpYJG.s:6013   .debug_str:000000000000037f .LASF49
     /tmp/ccoFpYJG.s:6201   .debug_str:00000000000008ef .LASF50
GAS LISTING /tmp/ccoFpYJG.s 			page 50


     /tmp/ccoFpYJG.s:5973   .debug_str:000000000000025c .LASF51
     /tmp/ccoFpYJG.s:6101   .debug_str:000000000000061d .LASF52
     /tmp/ccoFpYJG.s:6331   .debug_str:0000000000000d57 .LASF53
     /tmp/ccoFpYJG.s:5949   .debug_str:0000000000000198 .LASF54
     /tmp/ccoFpYJG.s:6213   .debug_str:0000000000000954 .LASF55
     /tmp/ccoFpYJG.s:6163   .debug_str:00000000000007e4 .LASF244
     /tmp/ccoFpYJG.s:6269   .debug_str:0000000000000aed .LASF56
     /tmp/ccoFpYJG.s:6335   .debug_str:0000000000000d7f .LASF57
     /tmp/ccoFpYJG.s:6215   .debug_str:000000000000097b .LASF58
     /tmp/ccoFpYJG.s:6145   .debug_str:0000000000000756 .LASF59
     /tmp/ccoFpYJG.s:6299   .debug_str:0000000000000bbb .LASF60
     /tmp/ccoFpYJG.s:6023   .debug_str:00000000000003c2 .LASF61
     /tmp/ccoFpYJG.s:6295   .debug_str:0000000000000baa .LASF62
     /tmp/ccoFpYJG.s:6167   .debug_str:00000000000007f6 .LASF63
     /tmp/ccoFpYJG.s:5993   .debug_str:00000000000002fd .LASF82
     /tmp/ccoFpYJG.s:5965   .debug_str:0000000000000213 .LASF84
     /tmp/ccoFpYJG.s:6367   .debug_str:0000000000000e46 .LASF64
     /tmp/ccoFpYJG.s:6075   .debug_str:000000000000053e .LASF65
     /tmp/ccoFpYJG.s:6381   .debug_str:0000000000000eb3 .LASF66
     /tmp/ccoFpYJG.s:6035   .debug_str:0000000000000400 .LASF67
     /tmp/ccoFpYJG.s:5903   .debug_str:0000000000000036 .LASF69
     /tmp/ccoFpYJG.s:6155   .debug_str:000000000000079d .LASF71
     /tmp/ccoFpYJG.s:6249   .debug_str:0000000000000a6d .LASF153
     /tmp/ccoFpYJG.s:5901   .debug_str:0000000000000031 .LASF72
     /tmp/ccoFpYJG.s:6373   .debug_str:0000000000000e68 .LASF73
     /tmp/ccoFpYJG.s:6315   .debug_str:0000000000000ce9 .LASF74
     /tmp/ccoFpYJG.s:6309   .debug_str:0000000000000cad .LASF75
     /tmp/ccoFpYJG.s:6253   .debug_str:0000000000000a89 .LASF76
     /tmp/ccoFpYJG.s:6157   .debug_str:00000000000007aa .LASF77
     /tmp/ccoFpYJG.s:5935   .debug_str:000000000000011e .LASF78
     /tmp/ccoFpYJG.s:6151   .debug_str:0000000000000788 .LASF79
     /tmp/ccoFpYJG.s:6033   .debug_str:00000000000003f1 .LASF80
     /tmp/ccoFpYJG.s:5943   .debug_str:0000000000000169 .LASF205
     /tmp/ccoFpYJG.s:6103   .debug_str:000000000000062a .LASF207
     /tmp/ccoFpYJG.s:5983   .debug_str:00000000000002b4 .LASF132
     /tmp/ccoFpYJG.s:5907   .debug_str:0000000000000056 .LASF133
     /tmp/ccoFpYJG.s:6239   .debug_str:00000000000009fd .LASF81
     /tmp/ccoFpYJG.s:6251   .debug_str:0000000000000a84 .LASF83
     /tmp/ccoFpYJG.s:6081   .debug_str:000000000000055a .LASF85
     /tmp/ccoFpYJG.s:6393   .debug_str:0000000000000ef6 .LASF86
     /tmp/ccoFpYJG.s:5979   .debug_str:0000000000000289 .LASF87
     /tmp/ccoFpYJG.s:6193   .debug_str:00000000000008ae .LASF88
     /tmp/ccoFpYJG.s:6041   .debug_str:0000000000000426 .LASF89
     /tmp/ccoFpYJG.s:6263   .debug_str:0000000000000ace .LASF90
     /tmp/ccoFpYJG.s:6189   .debug_str:000000000000089b .LASF91
     /tmp/ccoFpYJG.s:5989   .debug_str:00000000000002db .LASF92
     /tmp/ccoFpYJG.s:6225   .debug_str:00000000000009bc .LASF93
     /tmp/ccoFpYJG.s:6207   .debug_str:000000000000091b .LASF94
     /tmp/ccoFpYJG.s:5947   .debug_str:000000000000018c .LASF95
     /tmp/ccoFpYJG.s:5985   .debug_str:00000000000002c2 .LASF96
     /tmp/ccoFpYJG.s:6359   .debug_str:0000000000000e1f .LASF97
     /tmp/ccoFpYJG.s:6265   .debug_str:0000000000000adc .LASF98
     /tmp/ccoFpYJG.s:6303   .debug_str:0000000000000c87 .LASF99
     /tmp/ccoFpYJG.s:6143   .debug_str:0000000000000751 .LASF100
     /tmp/ccoFpYJG.s:6165   .debug_str:00000000000007e9 .LASF101
     /tmp/ccoFpYJG.s:5987   .debug_str:00000000000002d0 .LASF102
     /tmp/ccoFpYJG.s:6049   .debug_str:0000000000000463 .LASF103
GAS LISTING /tmp/ccoFpYJG.s 			page 51


     /tmp/ccoFpYJG.s:6133   .debug_str:00000000000006ff .LASF104
     /tmp/ccoFpYJG.s:5941   .debug_str:000000000000014e .LASF105
     /tmp/ccoFpYJG.s:6211   .debug_str:0000000000000944 .LASF106
     /tmp/ccoFpYJG.s:6209   .debug_str:0000000000000928 .LASF107
     /tmp/ccoFpYJG.s:5995   .debug_str:0000000000000306 .LASF108
     /tmp/ccoFpYJG.s:6131   .debug_str:00000000000006ef .LASF109
     /tmp/ccoFpYJG.s:6275   .debug_str:0000000000000b21 .LASF110
     /tmp/ccoFpYJG.s:6257   .debug_str:0000000000000aa8 .LASF111
     /tmp/ccoFpYJG.s:5923   .debug_str:00000000000000f1 .LASF112
     /tmp/ccoFpYJG.s:5931   .debug_str:0000000000000108 .LASF113
     /tmp/ccoFpYJG.s:6001   .debug_str:000000000000032d .LASF114
     /tmp/ccoFpYJG.s:6117   .debug_str:0000000000000683 .LASF115
     /tmp/ccoFpYJG.s:6015   .debug_str:0000000000000395 .LASF116
     /tmp/ccoFpYJG.s:6389   .debug_str:0000000000000edf .LASF117
     /tmp/ccoFpYJG.s:5957   .debug_str:00000000000001cd .LASF118
     /tmp/ccoFpYJG.s:5967   .debug_str:0000000000000226 .LASF119
     /tmp/ccoFpYJG.s:6139   .debug_str:0000000000000740 .LASF120
     /tmp/ccoFpYJG.s:6289   .debug_str:0000000000000b7d .LASF121
     /tmp/ccoFpYJG.s:6363   .debug_str:0000000000000e2e .LASF122
     /tmp/ccoFpYJG.s:6079   .debug_str:0000000000000555 .LASF123
     /tmp/ccoFpYJG.s:6127   .debug_str:00000000000006d9 .LASF124
     /tmp/ccoFpYJG.s:6261   .debug_str:0000000000000ac1 .LASF125
     /tmp/ccoFpYJG.s:6329   .debug_str:0000000000000d52 .LASF126
     /tmp/ccoFpYJG.s:6277   .debug_str:0000000000000b28 .LASF127
     /tmp/ccoFpYJG.s:6245   .debug_str:0000000000000a31 .LASF128
     /tmp/ccoFpYJG.s:6273   .debug_str:0000000000000b06 .LASF129
     /tmp/ccoFpYJG.s:6351   .debug_str:0000000000000de6 .LASF245
     /tmp/ccoFpYJG.s:6177   .debug_str:000000000000083b .LASF130
     /tmp/ccoFpYJG.s:6017   .debug_str:00000000000003a3 .LASF131
     /tmp/ccoFpYJG.s:6327   .debug_str:0000000000000d3b .LASF134
     /tmp/ccoFpYJG.s:5897   .debug_str:0000000000000006 .LASF135
     /tmp/ccoFpYJG.s:6343   .debug_str:0000000000000dc5 .LASF136
     /tmp/ccoFpYJG.s:5959   .debug_str:00000000000001d6 .LASF137
     /tmp/ccoFpYJG.s:6325   .debug_str:0000000000000d33 .LASF138
     /tmp/ccoFpYJG.s:5999   .debug_str:0000000000000311 .LASF139
     /tmp/ccoFpYJG.s:6069   .debug_str:000000000000050d .LASF140
     /tmp/ccoFpYJG.s:6161   .debug_str:00000000000007c7 .LASF141
     /tmp/ccoFpYJG.s:6047   .debug_str:000000000000045b .LASF142
     /tmp/ccoFpYJG.s:5997   .debug_str:000000000000030b .LASF143
     /tmp/ccoFpYJG.s:5919   .debug_str:00000000000000c7 .LASF144
     /tmp/ccoFpYJG.s:6115   .debug_str:0000000000000674 .LASF145
     /tmp/ccoFpYJG.s:5905   .debug_str:0000000000000046 .LASF146
     /tmp/ccoFpYJG.s:5895   .debug_str:0000000000000000 .LASF147
     /tmp/ccoFpYJG.s:6243   .debug_str:0000000000000a1d .LASF148
     /tmp/ccoFpYJG.s:6237   .debug_str:00000000000009f4 .LASF149
     /tmp/ccoFpYJG.s:6293   .debug_str:0000000000000b9a .LASF150
     /tmp/ccoFpYJG.s:6129   .debug_str:00000000000006de .LASF151
     /tmp/ccoFpYJG.s:6337   .debug_str:0000000000000da2 .LASF152
     /tmp/ccoFpYJG.s:6045   .debug_str:0000000000000449 .LASF246
     /tmp/ccoFpYJG.s:5981   .debug_str:00000000000002a2 .LASF154
     /tmp/ccoFpYJG.s:6283   .debug_str:0000000000000b4b .LASF155
     /tmp/ccoFpYJG.s:6345   .debug_str:0000000000000dce .LASF156
     /tmp/ccoFpYJG.s:6199   .debug_str:00000000000008e4 .LASF160
     /tmp/ccoFpYJG.s:6043   .debug_str:0000000000000440 .LASF157
     /tmp/ccoFpYJG.s:6005   .debug_str:0000000000000349 .LASF158
     /tmp/ccoFpYJG.s:6361   .debug_str:0000000000000e25 .LASF159
     /tmp/ccoFpYJG.s:6333   .debug_str:0000000000000d70 .LASF161
GAS LISTING /tmp/ccoFpYJG.s 			page 52


     /tmp/ccoFpYJG.s:6009   .debug_str:0000000000000360 .LASF162
     /tmp/ccoFpYJG.s:6091   .debug_str:00000000000005d7 .LASF163
     /tmp/ccoFpYJG.s:6055   .debug_str:00000000000004a4 .LASF164
     /tmp/ccoFpYJG.s:6051   .debug_str:000000000000047e .LASF165
     /tmp/ccoFpYJG.s:6247   .debug_str:0000000000000a55 .LASF166
     /tmp/ccoFpYJG.s:6383   .debug_str:0000000000000ec0 .LASF167
     /tmp/ccoFpYJG.s:6053   .debug_str:0000000000000489 .LASF168
     /tmp/ccoFpYJG.s:6323   .debug_str:0000000000000d2a .LASF171
     /tmp/ccoFpYJG.s:6317   .debug_str:0000000000000cf1 .LASF173
     /tmp/ccoFpYJG.s:6385   .debug_str:0000000000000ece .LASF169
     /tmp/ccoFpYJG.s:6159   .debug_str:00000000000007b2 .LASF170
     /tmp/ccoFpYJG.s:6191   .debug_str:00000000000008a7 .LASF172
     /tmp/ccoFpYJG.s:6195   .debug_str:00000000000008bd .LASF174
     /tmp/ccoFpYJG.s:6149   .debug_str:0000000000000781 .LASF175
     /tmp/ccoFpYJG.s:6089   .debug_str:00000000000005c4 .LASF176
     /tmp/ccoFpYJG.s:6077   .debug_str:0000000000000550 .LASF177
     /tmp/ccoFpYJG.s:6105   .debug_str:0000000000000643 .LASF178
     /tmp/ccoFpYJG.s:6353   .debug_str:0000000000000e02 .LASF179
     /tmp/ccoFpYJG.s:6307   .debug_str:0000000000000c99 .LASF180
     /tmp/ccoFpYJG.s:6141   .debug_str:0000000000000749 .LASF181
     /tmp/ccoFpYJG.s:6375   .debug_str:0000000000000e6e .LASF182
     /tmp/ccoFpYJG.s:6125   .debug_str:00000000000006d1 .LASF183
     /tmp/ccoFpYJG.s:6197   .debug_str:00000000000008d0 .LASF184
     /tmp/ccoFpYJG.s:6387   .debug_str:0000000000000ed7 .LASF185
     /tmp/ccoFpYJG.s:6067   .debug_str:00000000000004f9 .LASF186
     /tmp/ccoFpYJG.s:5925   .debug_str:00000000000000f7 .LASF187
     /tmp/ccoFpYJG.s:6233   .debug_str:00000000000009da .LASF188
     /tmp/ccoFpYJG.s:6235   .debug_str:00000000000009ed .LASF189
     /tmp/ccoFpYJG.s:5961   .debug_str:00000000000001f8 .LASF190
     /tmp/ccoFpYJG.s:6231   .debug_str:00000000000009d4 .LASF191
     /tmp/ccoFpYJG.s:6291   .debug_str:0000000000000b88 .LASF192
     /tmp/ccoFpYJG.s:6065   .debug_str:00000000000004f3 .LASF193
     /tmp/ccoFpYJG.s:5991   .debug_str:00000000000002eb .LASF194
     /tmp/ccoFpYJG.s:5915   .debug_str:000000000000009b .LASF195
     /tmp/ccoFpYJG.s:6221   .debug_str:000000000000099e .LASF196
     /tmp/ccoFpYJG.s:6021   .debug_str:00000000000003b7 .LASF197
     /tmp/ccoFpYJG.s:6379   .debug_str:0000000000000e9b .LASF198
     /tmp/ccoFpYJG.s:6347   .debug_str:0000000000000dd4 .LASF199
     /tmp/ccoFpYJG.s:6071   .debug_str:0000000000000516 .LASF200
     /tmp/ccoFpYJG.s:6341   .debug_str:0000000000000dbb .LASF201
     /tmp/ccoFpYJG.s:6119   .debug_str:0000000000000690 .LASF202
     /tmp/ccoFpYJG.s:6365   .debug_str:0000000000000e39 .LASF203
     /tmp/ccoFpYJG.s:6007   .debug_str:0000000000000352 .LASF204
     /tmp/ccoFpYJG.s:6377   .debug_str:0000000000000e82 .LASF206
     /tmp/ccoFpYJG.s:6135   .debug_str:000000000000070e .LASF208
     /tmp/ccoFpYJG.s:6183   .debug_str:0000000000000874 .LASF209
     /tmp/ccoFpYJG.s:6061   .debug_str:00000000000004c2 .LASF210
     /tmp/ccoFpYJG.s:6287   .debug_str:0000000000000b5b .LASF211
     /tmp/ccoFpYJG.s:6083   .debug_str:0000000000000569 .LASF212
     /tmp/ccoFpYJG.s:6369   .debug_str:0000000000000e4c .LASF213
     /tmp/ccoFpYJG.s:5971   .debug_str:0000000000000240 .LASF214
     /tmp/ccoFpYJG.s:6087   .debug_str:00000000000005ab .LASF215
     /tmp/ccoFpYJG.s:5937   .debug_str:0000000000000126 .LASF216
     /tmp/ccoFpYJG.s:1199   .text:00000000000004f0 .LFB46
     /tmp/ccoFpYJG.s:1303   .text:00000000000005a8 .LFE46
     /tmp/ccoFpYJG.s:6179   .debug_str:0000000000000850 .LASF217
     /tmp/ccoFpYJG.s:5590   .debug_loc:0000000000000000 .LLST40
GAS LISTING /tmp/ccoFpYJG.s 			page 53


     /tmp/ccoFpYJG.s:1250   .text:0000000000000540 .LBB153
     /tmp/ccoFpYJG.s:1300   .text:00000000000005a8 .LBE153
     /tmp/ccoFpYJG.s:5975   .debug_str:0000000000000272 .LASF218
     /tmp/ccoFpYJG.s:5885   .debug_ranges:0000000000000000 .Ldebug_ranges0
     /tmp/ccoFpYJG.s:1267   .text:0000000000000568 .LVL97
     /tmp/ccoFpYJG.s:1217   .text:0000000000000510 .LVL91
     /tmp/ccoFpYJG.s:1231   .text:0000000000000528 .LVL94
     /tmp/ccoFpYJG.s:1039   .text:0000000000000448 .LFB45
     /tmp/ccoFpYJG.s:1193   .text:00000000000004f0 .LFE45
     /tmp/ccoFpYJG.s:1113   .text:00000000000004b4 .LBB142
     /tmp/ccoFpYJG.s:1188   .text:00000000000004ec .LBE142
     /tmp/ccoFpYJG.s:6305   .debug_str:0000000000000c94 .LASF219
     /tmp/ccoFpYJG.s:6349   .debug_str:0000000000000dde .LASF220
     /tmp/ccoFpYJG.s:1115   .text:00000000000004b4 .LBB143
     /tmp/ccoFpYJG.s:1130   .text:00000000000004c0 .LBE143
     /tmp/ccoFpYJG.s:1134   .text:00000000000004c4 .LBB145
     /tmp/ccoFpYJG.s:1149   .text:00000000000004d0 .LBE145
     /tmp/ccoFpYJG.s:1160   .text:00000000000004e0 .LBB147
     /tmp/ccoFpYJG.s:1171   .text:00000000000004e4 .LBE147
     /tmp/ccoFpYJG.s:5601   .debug_loc:0000000000000036 .LLST38
     /tmp/ccoFpYJG.s:1176   .text:00000000000004e8 .LBB149
     /tmp/ccoFpYJG.s:1187   .text:00000000000004ec .LBE149
     /tmp/ccoFpYJG.s:5608   .debug_loc:0000000000000059 .LLST39
     /tmp/ccoFpYJG.s:1155   .text:00000000000004dc .LVL86
     /tmp/ccoFpYJG.s:1060   .text:0000000000000470 .LBB137
     /tmp/ccoFpYJG.s:1072   .text:0000000000000478 .LBE137
     /tmp/ccoFpYJG.s:5615   .debug_loc:000000000000007c .LLST36
     /tmp/ccoFpYJG.s:1084   .text:0000000000000494 .LBB140
     /tmp/ccoFpYJG.s:1091   .text:0000000000000498 .LBE140
     /tmp/ccoFpYJG.s:5623   .debug_loc:00000000000000a0 .LLST37
     /tmp/ccoFpYJG.s:1077   .text:0000000000000488 .LVL83
     /tmp/ccoFpYJG.s:139    .text:0000000000000060 .LFB44
     /tmp/ccoFpYJG.s:1033   .text:0000000000000448 .LFE44
     /tmp/ccoFpYJG.s:6259   .debug_str:0000000000000aba .LASF221
     /tmp/ccoFpYJG.s:6321   .debug_str:0000000000000d1d .LASF222
     /tmp/ccoFpYJG.s:505    .text:000000000000022c .LBB88
     /tmp/ccoFpYJG.s:534    .text:0000000000000244 .LBE88
     /tmp/ccoFpYJG.s:5630   .debug_loc:00000000000000c3 .LLST3
     /tmp/ccoFpYJG.s:521    .text:0000000000000240 .LBB89
     /tmp/ccoFpYJG.s:533    .text:0000000000000244 .LBE89
     /tmp/ccoFpYJG.s:5637   .debug_loc:00000000000000e6 .LLST4
     /tmp/ccoFpYJG.s:514    .text:0000000000000238 .LVL19
     /tmp/ccoFpYJG.s:597    .text:0000000000000274 .LBB91
     /tmp/ccoFpYJG.s:628    .text:0000000000000290 .LBE91
     /tmp/ccoFpYJG.s:6171   .debug_str:0000000000000817 .LASF223
     /tmp/ccoFpYJG.s:5644   .debug_loc:0000000000000109 .LLST5
     /tmp/ccoFpYJG.s:613    .text:0000000000000288 .LBB92
     /tmp/ccoFpYJG.s:627    .text:0000000000000290 .LBE92
     /tmp/ccoFpYJG.s:5651   .debug_loc:000000000000012c .LLST6
     /tmp/ccoFpYJG.s:606    .text:0000000000000280 .LVL27
     /tmp/ccoFpYJG.s:631    .text:0000000000000290 .LBB94
     /tmp/ccoFpYJG.s:660    .text:00000000000002b0 .LBE94
     /tmp/ccoFpYJG.s:6357   .debug_str:0000000000000e18 .LASF224
     /tmp/ccoFpYJG.s:5658   .debug_loc:000000000000014f .LLST7
     /tmp/ccoFpYJG.s:6093   .debug_str:00000000000005e4 .LASF225
     /tmp/ccoFpYJG.s:5665   .debug_loc:0000000000000172 .LLST8
     /tmp/ccoFpYJG.s:5672   .debug_loc:0000000000000195 .LLST9
GAS LISTING /tmp/ccoFpYJG.s 			page 54


     /tmp/ccoFpYJG.s:5679   .debug_loc:00000000000001b8 .LLST10
     /tmp/ccoFpYJG.s:6371   .debug_str:0000000000000e5c .LASF226
     /tmp/ccoFpYJG.s:657    .text:00000000000002ac .LVL34
     /tmp/ccoFpYJG.s:703    .text:00000000000002d8 .LBB97
     /tmp/ccoFpYJG.s:719    .text:00000000000002f0 .LBE97
     /tmp/ccoFpYJG.s:5686   .debug_loc:00000000000001db .LLST13
     /tmp/ccoFpYJG.s:718    .text:00000000000002f0 .LVL41
     /tmp/ccoFpYJG.s:725    .text:00000000000002f4 .LBB98
     /tmp/ccoFpYJG.s:762    .text:000000000000031c .LBE98
     /tmp/ccoFpYJG.s:5693   .debug_loc:00000000000001fe .LLST14
     /tmp/ccoFpYJG.s:747    .text:0000000000000314 .LBB99
     /tmp/ccoFpYJG.s:761    .text:000000000000031c .LBE99
     /tmp/ccoFpYJG.s:5700   .debug_loc:0000000000000221 .LLST15
     /tmp/ccoFpYJG.s:740    .text:000000000000030c .LVL43
     /tmp/ccoFpYJG.s:765    .text:000000000000031c .LBB101
     /tmp/ccoFpYJG.s:794    .text:000000000000033c .LBE101
     /tmp/ccoFpYJG.s:5707   .debug_loc:0000000000000244 .LLST16
     /tmp/ccoFpYJG.s:5714   .debug_loc:0000000000000267 .LLST17
     /tmp/ccoFpYJG.s:5721   .debug_loc:000000000000028a .LLST18
     /tmp/ccoFpYJG.s:5728   .debug_loc:00000000000002ad .LLST19
     /tmp/ccoFpYJG.s:791    .text:0000000000000338 .LVL50
     /tmp/ccoFpYJG.s:801    .text:0000000000000340 .LBB102
     /tmp/ccoFpYJG.s:830    .text:0000000000000368 .LBE102
     /tmp/ccoFpYJG.s:5735   .debug_loc:00000000000002d0 .LLST21
     /tmp/ccoFpYJG.s:810    .text:0000000000000348 .LBB103
     /tmp/ccoFpYJG.s:822    .text:0000000000000358 .LBE103
     /tmp/ccoFpYJG.s:5742   .debug_loc:00000000000002f3 .LLST22
     /tmp/ccoFpYJG.s:819    .text:0000000000000358 .LVL54
     /tmp/ccoFpYJG.s:826    .text:0000000000000364 .LVL55
     /tmp/ccoFpYJG.s:833    .text:0000000000000368 .LBB105
     /tmp/ccoFpYJG.s:851    .text:0000000000000380 .LBE105
     /tmp/ccoFpYJG.s:5749   .debug_loc:0000000000000316 .LLST23
     /tmp/ccoFpYJG.s:5933   .debug_str:0000000000000119 .LASF227
     /tmp/ccoFpYJG.s:5756   .debug_loc:0000000000000339 .LLST24
     /tmp/ccoFpYJG.s:848    .text:000000000000037c .LVL59
     /tmp/ccoFpYJG.s:858    .text:0000000000000384 .LBB106
     /tmp/ccoFpYJG.s:899    .text:00000000000003b0 .LBE106
     /tmp/ccoFpYJG.s:5763   .debug_loc:000000000000035c .LLST25
     /tmp/ccoFpYJG.s:884    .text:00000000000003a8 .LBB107
     /tmp/ccoFpYJG.s:898    .text:00000000000003b0 .LBE107
     /tmp/ccoFpYJG.s:5770   .debug_loc:000000000000037f .LLST26
     /tmp/ccoFpYJG.s:872    .text:0000000000000394 .LVL62
     /tmp/ccoFpYJG.s:879    .text:00000000000003a4 .LVL63
     /tmp/ccoFpYJG.s:902    .text:00000000000003b0 .LBB109
     /tmp/ccoFpYJG.s:933    .text:00000000000003cc .LBE109
     /tmp/ccoFpYJG.s:5777   .debug_loc:00000000000003a2 .LLST27
     /tmp/ccoFpYJG.s:918    .text:00000000000003c4 .LBB110
     /tmp/ccoFpYJG.s:932    .text:00000000000003cc .LBE110
     /tmp/ccoFpYJG.s:5784   .debug_loc:00000000000003c5 .LLST28
     /tmp/ccoFpYJG.s:911    .text:00000000000003bc .LVL67
     /tmp/ccoFpYJG.s:936    .text:00000000000003cc .LBB112
     /tmp/ccoFpYJG.s:967    .text:00000000000003e8 .LBE112
     /tmp/ccoFpYJG.s:5791   .debug_loc:00000000000003e8 .LLST29
     /tmp/ccoFpYJG.s:952    .text:00000000000003e0 .LBB113
     /tmp/ccoFpYJG.s:966    .text:00000000000003e8 .LBE113
     /tmp/ccoFpYJG.s:5798   .debug_loc:000000000000040b .LLST30
     /tmp/ccoFpYJG.s:945    .text:00000000000003d8 .LVL71
GAS LISTING /tmp/ccoFpYJG.s 			page 55


     /tmp/ccoFpYJG.s:970    .text:00000000000003e8 .LBB115
     /tmp/ccoFpYJG.s:987    .text:0000000000000410 .LBE115
     /tmp/ccoFpYJG.s:6223   .debug_str:00000000000009b6 .LASF228
     /tmp/ccoFpYJG.s:5805   .debug_loc:000000000000042e .LLST31
     /tmp/ccoFpYJG.s:982    .text:0000000000000408 .LVL75
     /tmp/ccoFpYJG.s:986    .text:0000000000000410 .LVL76
     /tmp/ccoFpYJG.s:993    .text:0000000000000414 .LBB116
     /tmp/ccoFpYJG.s:1006   .text:0000000000000428 .LBE116
     /tmp/ccoFpYJG.s:6185   .debug_str:000000000000088b .LASF229
     /tmp/ccoFpYJG.s:5812   .debug_loc:0000000000000451 .LLST32
     /tmp/ccoFpYJG.s:998    .text:0000000000000424 .LVL77
     /tmp/ccoFpYJG.s:1013   .text:000000000000042c .LBB117
     /tmp/ccoFpYJG.s:1025   .text:0000000000000444 .LBE117
     /tmp/ccoFpYJG.s:5819   .debug_loc:0000000000000474 .LLST33
     /tmp/ccoFpYJG.s:1024   .text:0000000000000444 .LVL80
     /tmp/ccoFpYJG.s:348    .text:0000000000000108 .LBB125
     /tmp/ccoFpYJG.s:499    .text:000000000000022c .LBE125
     /tmp/ccoFpYJG.s:6057   .debug_str:00000000000004b0 .LASF230
     /tmp/ccoFpYJG.s:6107   .debug_str:0000000000000654 .LASF231
     /tmp/ccoFpYJG.s:350    .text:0000000000000108 .LBB126
     /tmp/ccoFpYJG.s:365    .text:0000000000000114 .LBE126
     /tmp/ccoFpYJG.s:369    .text:0000000000000118 .LBB128
     /tmp/ccoFpYJG.s:384    .text:0000000000000124 .LBE128
     /tmp/ccoFpYJG.s:388    .text:0000000000000128 .LBB130
     /tmp/ccoFpYJG.s:403    .text:0000000000000134 .LBE130
     /tmp/ccoFpYJG.s:407    .text:0000000000000138 .LBB132
     /tmp/ccoFpYJG.s:422    .text:0000000000000144 .LBE132
     /tmp/ccoFpYJG.s:429    .text:0000000000000158 .LVL6
     /tmp/ccoFpYJG.s:437    .text:0000000000000170 .LVL7
     /tmp/ccoFpYJG.s:442    .text:0000000000000180 .LVL8
     /tmp/ccoFpYJG.s:447    .text:0000000000000190 .LVL9
     /tmp/ccoFpYJG.s:455    .text:00000000000001a8 .LVL10
     /tmp/ccoFpYJG.s:460    .text:00000000000001b8 .LVL11
     /tmp/ccoFpYJG.s:465    .text:00000000000001c8 .LVL12
     /tmp/ccoFpYJG.s:473    .text:00000000000001e0 .LVL13
     /tmp/ccoFpYJG.s:478    .text:00000000000001f0 .LVL14
     /tmp/ccoFpYJG.s:483    .text:0000000000000200 .LVL15
     /tmp/ccoFpYJG.s:491    .text:0000000000000218 .LVL16
     /tmp/ccoFpYJG.s:496    .text:0000000000000228 .LVL17
     /tmp/ccoFpYJG.s:210    .text:00000000000000a8 .LBB80
     /tmp/ccoFpYJG.s:225    .text:00000000000000b4 .LBE80
     /tmp/ccoFpYJG.s:229    .text:00000000000000b8 .LBB82
     /tmp/ccoFpYJG.s:244    .text:00000000000000c4 .LBE82
     /tmp/ccoFpYJG.s:677    .text:00000000000002c4 .LBB95
     /tmp/ccoFpYJG.s:691    .text:00000000000002cc .LBE95
     /tmp/ccoFpYJG.s:5826   .debug_loc:0000000000000497 .LLST12
     /tmp/ccoFpYJG.s:546    .text:0000000000000254 .LBB120
     /tmp/ccoFpYJG.s:557    .text:0000000000000258 .LBE120
     /tmp/ccoFpYJG.s:5833   .debug_loc:00000000000004ba .LLST34
     /tmp/ccoFpYJG.s:562    .text:000000000000025c .LBB122
     /tmp/ccoFpYJG.s:574    .text:0000000000000260 .LBE122
     /tmp/ccoFpYJG.s:5840   .debug_loc:00000000000004dd .LLST35
     /tmp/ccoFpYJG.s:670    .text:00000000000002bc .LVL36
     /tmp/ccoFpYJG.s:697    .text:00000000000002d4 .LVL39
     /tmp/ccoFpYJG.s:46     .text:0000000000000020 .LFB43
     /tmp/ccoFpYJG.s:116    .text:0000000000000060 .LFE43
     /tmp/ccoFpYJG.s:60     .text:0000000000000038 .LBB74
GAS LISTING /tmp/ccoFpYJG.s 			page 56


     /tmp/ccoFpYJG.s:68     .text:000000000000003c .LBE74
     /tmp/ccoFpYJG.s:5847   .debug_loc:0000000000000500 .LLST0
     /tmp/ccoFpYJG.s:73     .text:0000000000000040 .LBB76
     /tmp/ccoFpYJG.s:87     .text:0000000000000048 .LBE76
     /tmp/ccoFpYJG.s:5854   .debug_loc:0000000000000523 .LLST1
     /tmp/ccoFpYJG.s:100    .text:0000000000000054 .LBB78
     /tmp/ccoFpYJG.s:112    .text:000000000000005c .LBE78
     /tmp/ccoFpYJG.s:5863   .debug_loc:0000000000000549 .LLST2
     /tmp/ccoFpYJG.s:10     .text:0000000000000000 .LFB42
     /tmp/ccoFpYJG.s:40     .text:0000000000000020 .LFE42
     /tmp/ccoFpYJG.s:5929   .debug_str:0000000000000103 .LASF232
     /tmp/ccoFpYJG.s:6025   .debug_str:00000000000003c7 .LASF233
     /tmp/ccoFpYJG.s:5911   .debug_str:000000000000008a .LASF234
     /tmp/ccoFpYJG.s:6267   .debug_str:0000000000000ae1 .LASF247
     /tmp/ccoFpYJG.s:6109   .debug_str:000000000000065a .LASF235
     /tmp/ccoFpYJG.s:6181   .debug_str:0000000000000866 .LASF236
     /tmp/ccoFpYJG.s:6153   .debug_str:0000000000000796 .LASF248
     /tmp/ccoFpYJG.s:6011   .debug_str:000000000000036c .LASF249
     /tmp/ccoFpYJG.s:6099   .debug_str:000000000000060a .LASF237
     /tmp/ccoFpYJG.s:6037   .debug_str:000000000000040c .LASF238
     /tmp/ccoFpYJG.s:6241   .debug_str:0000000000000a0e .LASF239
     /tmp/ccoFpYJG.s:6175   .debug_str:0000000000000832 .LASF240
     /tmp/ccoFpYJG.s:1219   .text:0000000000000514 .LVL92
     /tmp/ccoFpYJG.s:1224   .text:000000000000051c .LVL93
     /tmp/ccoFpYJG.s:1246   .text:0000000000000540 .LVL95
     /tmp/ccoFpYJG.s:1259   .text:0000000000000558 .LVL96
     /tmp/ccoFpYJG.s:1159   .text:00000000000004e0 .LVL87
     /tmp/ccoFpYJG.s:1168   .text:00000000000004e4 .LVL88
     /tmp/ccoFpYJG.s:1175   .text:00000000000004e8 .LVL89
     /tmp/ccoFpYJG.s:1184   .text:00000000000004ec .LVL90
     /tmp/ccoFpYJG.s:1059   .text:0000000000000470 .LVL81
     /tmp/ccoFpYJG.s:1069   .text:0000000000000478 .LVL82
     /tmp/ccoFpYJG.s:1083   .text:0000000000000494 .LVL84
     /tmp/ccoFpYJG.s:1089   .text:0000000000000498 .LVL85
     /tmp/ccoFpYJG.s:510    .text:0000000000000230 .LVL18
     /tmp/ccoFpYJG.s:520    .text:0000000000000240 .LVL20
     /tmp/ccoFpYJG.s:529    .text:0000000000000244 .LVL21
     /tmp/ccoFpYJG.s:602    .text:0000000000000278 .LVL26
     /tmp/ccoFpYJG.s:612    .text:0000000000000288 .LVL28
     /tmp/ccoFpYJG.s:624    .text:0000000000000290 .LVL29
     /tmp/ccoFpYJG.s:639    .text:0000000000000294 .LVL30
     /tmp/ccoFpYJG.s:663    .text:00000000000002b4 .LVL35
     /tmp/ccoFpYJG.s:643    .text:0000000000000298 .LVL31
     /tmp/ccoFpYJG.s:647    .text:000000000000029c .LVL32
     /tmp/ccoFpYJG.s:651    .text:00000000000002a0 .LVL33
     /tmp/ccoFpYJG.s:711    .text:00000000000002dc .LVL40
     /tmp/ccoFpYJG.s:733    .text:00000000000002f8 .LVL42
     /tmp/ccoFpYJG.s:746    .text:0000000000000314 .LVL44
     /tmp/ccoFpYJG.s:758    .text:000000000000031c .LVL45
     /tmp/ccoFpYJG.s:773    .text:0000000000000320 .LVL46
     /tmp/ccoFpYJG.s:797    .text:0000000000000340 .LVL51
     /tmp/ccoFpYJG.s:777    .text:0000000000000324 .LVL47
     /tmp/ccoFpYJG.s:781    .text:0000000000000328 .LVL48
     /tmp/ccoFpYJG.s:785    .text:000000000000032c .LVL49
     /tmp/ccoFpYJG.s:805    .text:0000000000000344 .LVL52
     /tmp/ccoFpYJG.s:828    .text:0000000000000368 .LVL56
     /tmp/ccoFpYJG.s:809    .text:0000000000000348 .LVL53
GAS LISTING /tmp/ccoFpYJG.s 			page 57


     /tmp/ccoFpYJG.s:839    .text:000000000000036c .LVL57
     /tmp/ccoFpYJG.s:854    .text:0000000000000384 .LVL60
     /tmp/ccoFpYJG.s:843    .text:0000000000000370 .LVL58
     /tmp/ccoFpYJG.s:866    .text:0000000000000388 .LVL61
     /tmp/ccoFpYJG.s:895    .text:00000000000003b0 .LVL65
     /tmp/ccoFpYJG.s:883    .text:00000000000003a8 .LVL64
     /tmp/ccoFpYJG.s:907    .text:00000000000003b4 .LVL66
     /tmp/ccoFpYJG.s:917    .text:00000000000003c4 .LVL68
     /tmp/ccoFpYJG.s:929    .text:00000000000003cc .LVL69
     /tmp/ccoFpYJG.s:941    .text:00000000000003d0 .LVL70
     /tmp/ccoFpYJG.s:951    .text:00000000000003e0 .LVL72
     /tmp/ccoFpYJG.s:963    .text:00000000000003e8 .LVL73
     /tmp/ccoFpYJG.s:975    .text:00000000000003ec .LVL74
     /tmp/ccoFpYJG.s:1009   .text:000000000000042c .LVL78
     /tmp/ccoFpYJG.s:1018   .text:0000000000000430 .LVL79
     /tmp/ccoFpYJG.s:676    .text:00000000000002c4 .LVL37
     /tmp/ccoFpYJG.s:688    .text:00000000000002cc .LVL38
     /tmp/ccoFpYJG.s:545    .text:0000000000000254 .LVL22
     /tmp/ccoFpYJG.s:554    .text:0000000000000258 .LVL23
     /tmp/ccoFpYJG.s:561    .text:000000000000025c .LVL24
     /tmp/ccoFpYJG.s:570    .text:0000000000000260 .LVL25
     /tmp/ccoFpYJG.s:59     .text:0000000000000038 .LVL0
     /tmp/ccoFpYJG.s:66     .text:000000000000003c .LVL1
     /tmp/ccoFpYJG.s:72     .text:0000000000000040 .LVL2
     /tmp/ccoFpYJG.s:83     .text:0000000000000048 .LVL3
     /tmp/ccoFpYJG.s:99     .text:0000000000000054 .LVL4
     /tmp/ccoFpYJG.s:109    .text:000000000000005c .LVL5
     /tmp/ccoFpYJG.s:1333   .debug_info:0000000000000000 .Ldebug_info0
     /tmp/ccoFpYJG.s:1261   .text:0000000000000558 .LBB154
     /tmp/ccoFpYJG.s:1275   .text:0000000000000570 .LBE154
     /tmp/ccoFpYJG.s:1283   .text:000000000000057c .LBB155
     /tmp/ccoFpYJG.s:1299   .text:00000000000005a8 .LBE155

UNDEFINED SYMBOLS
_ZN3TCB7runningE
_Z11printStringPKc
_Z8printIntiii
_ZN15MemoryAllocator9mem_allocEm
_ZN15MemoryAllocator8mem_freeEPv
_ZN3TCB12createThreadEPFvPvES0_Pmb
_ZN3TCB4exitEv
_ZN3TCB8dispatchEv
_ZN3TCB4joinEPS_
_ZN3TCB5startEPS_
_ZN3TCB10makeThreadEPFvPvES0_Pmb
_ZdaPv
_ZN3TCBdlEPv
_ZN4_sem15createSemaphoreEj
_ZN4_sem5closeEv
_ZN4_sem4waitEv
_ZN4_sem6signalEv
_ZN12SleepingList8add_nodeEP3TCBm
_ZN7_Buffer3getEv
_ZN7_Buffer3putEc
_ZN3TCB16timeSliceCounterE
_ZN12SleepingList7otkucajEv
plic_claim
GAS LISTING /tmp/ccoFpYJG.s 			page 58


plic_complete
CONSOLE_STATUS
CONSOLE_RX_DATA
