GAS LISTING /tmp/cc5xF5w2.s 			page 1


   1              		.file	"Scheduler.cpp"
   2              		.option pic
   3              		.option norelax
   4              		.text
   5              	.Ltext0:
   6              		.align	2
   7              		.globl	_ZN9Scheduler3getEv
   9              	_ZN9Scheduler3getEv:
  10              	.LFB14:
  11              		.file 1 "src/Scheduler.cpp"
   1:src/Scheduler.cpp **** //
   2:src/Scheduler.cpp **** // Created by os on 4/28/23.
   3:src/Scheduler.cpp **** //
   4:src/Scheduler.cpp **** 
   5:src/Scheduler.cpp **** 
   6:src/Scheduler.cpp **** #include "../h/Scheduler.hpp"
   7:src/Scheduler.cpp **** 
   8:src/Scheduler.cpp **** 
   9:src/Scheduler.cpp **** 
  10:src/Scheduler.cpp **** TCB* Scheduler:: head = nullptr;
  11:src/Scheduler.cpp **** TCB* Scheduler:: tail = nullptr;
  12:src/Scheduler.cpp **** int Scheduler:: count = 0;
  13:src/Scheduler.cpp **** 
  14:src/Scheduler.cpp **** TCB *Scheduler::get()
  15:src/Scheduler.cpp **** {
  12              		.loc 1 15 1
  13              		.cfi_startproc
  14 0000 130101FF 		addi	sp,sp,-16
  15              		.cfi_def_cfa_offset 16
  16 0004 23348100 		sd	s0,8(sp)
  17              		.cfi_offset 8, -8
  18 0008 13040101 		addi	s0,sp,16
  19              		.cfi_def_cfa 8, 0
  16:src/Scheduler.cpp ****     if (head== nullptr)return nullptr;
  20              		.loc 1 16 5
  21              	.LBB2:
  22              		.loc 1 16 13 is_stmt 0
  23 000c 17050000 		ld	a0,.LANCHOR0
  23      03350500 
  24              		.loc 1 16 5
  25 0014 63040502 		beqz	a0,.L1
  26              	.LBB3:
  17:src/Scheduler.cpp ****     else
  18:src/Scheduler.cpp ****     {
  19:src/Scheduler.cpp ****         TCB* curr = head;
  27              		.loc 1 19 9 is_stmt 1
  28              	.LVL0:
  20:src/Scheduler.cpp ****         head = head->next;
  29              		.loc 1 20 9
  30              		.loc 1 20 22 is_stmt 0
  31 0018 83368503 		ld	a3,56(a0)
  32              		.loc 1 20 14
  33 001c 97070000 		lla	a5,.LANCHOR0
  33      93870700 
  34 0024 23B0D700 		sd	a3,0(a5)
  21:src/Scheduler.cpp ****         count--;
  35              		.loc 1 21 9 is_stmt 1
GAS LISTING /tmp/cc5xF5w2.s 			page 2


  36              		.loc 1 21 14 is_stmt 0
  37 0028 03A78700 		lw	a4,8(a5)
  38 002c 1B07F7FF 		addiw	a4,a4,-1
  39 0030 23A4E700 		sw	a4,8(a5)
  22:src/Scheduler.cpp ****         if (head== nullptr)tail= nullptr;
  40              		.loc 1 22 9 is_stmt 1
  41 0034 638A0600 		beqz	a3,.L5
  42              	.L3:
  23:src/Scheduler.cpp ****         curr->next= nullptr;
  43              		.loc 1 23 9
  44              		.loc 1 23 19 is_stmt 0
  45 0038 233C0502 		sd	zero,56(a0)
  24:src/Scheduler.cpp ****         return curr;
  46              		.loc 1 24 9 is_stmt 1
  47              	.LVL1:
  48              	.L1:
  49              	.LBE3:
  50              	.LBE2:
  25:src/Scheduler.cpp ****     }
  26:src/Scheduler.cpp **** 
  27:src/Scheduler.cpp **** }
  51              		.loc 1 27 1 is_stmt 0
  52 003c 03348100 		ld	s0,8(sp)
  53              		.cfi_remember_state
  54              		.cfi_restore 8
  55              		.cfi_def_cfa 2, 16
  56 0040 13010101 		addi	sp,sp,16
  57              		.cfi_def_cfa_offset 0
  58 0044 67800000 		jr	ra
  59              	.LVL2:
  60              	.L5:
  61              		.cfi_restore_state
  62              	.LBB5:
  63              	.LBB4:
  22:src/Scheduler.cpp ****         curr->next= nullptr;
  64              		.loc 1 22 28 is_stmt 1 discriminator 1
  22:src/Scheduler.cpp ****         curr->next= nullptr;
  65              		.loc 1 22 32 is_stmt 0 discriminator 1
  66 0048 97070000 		sd	zero,.LANCHOR0+16,a5
  66      23B00700 
  67 0050 6FF09FFE 		j	.L3
  68              	.LBE4:
  69              	.LBE5:
  70              		.cfi_endproc
  71              	.LFE14:
  73              		.align	2
  74              		.globl	_ZN9Scheduler3putEP3TCB
  76              	_ZN9Scheduler3putEP3TCB:
  77              	.LFB15:
  28:src/Scheduler.cpp **** 
  29:src/Scheduler.cpp **** void Scheduler::put(TCB *data)
  30:src/Scheduler.cpp **** {
  78              		.loc 1 30 1 is_stmt 1
  79              		.cfi_startproc
  80              	.LVL3:
  81 0054 130101FF 		addi	sp,sp,-16
  82              		.cfi_def_cfa_offset 16
GAS LISTING /tmp/cc5xF5w2.s 			page 3


  83 0058 23348100 		sd	s0,8(sp)
  84              		.cfi_offset 8, -8
  85 005c 13040101 		addi	s0,sp,16
  86              		.cfi_def_cfa 8, 0
  31:src/Scheduler.cpp ****     if (head == nullptr)
  87              		.loc 1 31 5
  88              		.loc 1 31 14 is_stmt 0
  89 0060 97070000 		ld	a5,.LANCHOR0
  89      83B70700 
  90              		.loc 1 31 5
  91 0068 638A0702 		beqz	a5,.L10
  32:src/Scheduler.cpp ****     {
  33:src/Scheduler.cpp ****         head = data;
  34:src/Scheduler.cpp ****         count++;
  35:src/Scheduler.cpp ****         tail = data;
  36:src/Scheduler.cpp ****         data->next= nullptr;
  37:src/Scheduler.cpp ****     }
  38:src/Scheduler.cpp ****     else
  39:src/Scheduler.cpp ****     {
  40:src/Scheduler.cpp ****         tail->next = data;
  92              		.loc 1 40 9 is_stmt 1
  93              		.loc 1 40 15 is_stmt 0
  94 006c 97070000 		lla	a5,.LANCHOR0
  94      93870700 
  95 0074 03B70701 		ld	a4,16(a5)
  96              		.loc 1 40 20
  97 0078 233CA702 		sd	a0,56(a4)
  41:src/Scheduler.cpp ****         tail = data;
  98              		.loc 1 41 9 is_stmt 1
  99              		.loc 1 41 14 is_stmt 0
 100 007c 23B8A700 		sd	a0,16(a5)
  42:src/Scheduler.cpp ****         count++;
 101              		.loc 1 42 9 is_stmt 1
 102              		.loc 1 42 14 is_stmt 0
 103 0080 03A78700 		lw	a4,8(a5)
 104 0084 1B071700 		addiw	a4,a4,1
 105 0088 23A4E700 		sw	a4,8(a5)
  43:src/Scheduler.cpp ****         data->next= nullptr;
 106              		.loc 1 43 9 is_stmt 1
 107              		.loc 1 43 19 is_stmt 0
 108 008c 233C0502 		sd	zero,56(a0)
 109              	.L6:
  44:src/Scheduler.cpp ****     }
  45:src/Scheduler.cpp **** }
 110              		.loc 1 45 1
 111 0090 03348100 		ld	s0,8(sp)
 112              		.cfi_remember_state
 113              		.cfi_restore 8
 114              		.cfi_def_cfa 2, 16
 115 0094 13010101 		addi	sp,sp,16
 116              		.cfi_def_cfa_offset 0
 117 0098 67800000 		jr	ra
 118              	.L10:
 119              		.cfi_restore_state
  33:src/Scheduler.cpp ****         count++;
 120              		.loc 1 33 9 is_stmt 1
  33:src/Scheduler.cpp ****         count++;
GAS LISTING /tmp/cc5xF5w2.s 			page 4


 121              		.loc 1 33 14 is_stmt 0
 122 009c 97070000 		lla	a5,.LANCHOR0
 122      93870700 
 123 00a4 23B0A700 		sd	a0,0(a5)
  34:src/Scheduler.cpp ****         tail = data;
 124              		.loc 1 34 9 is_stmt 1
  34:src/Scheduler.cpp ****         tail = data;
 125              		.loc 1 34 14 is_stmt 0
 126 00a8 03A78700 		lw	a4,8(a5)
 127 00ac 1B071700 		addiw	a4,a4,1
 128 00b0 23A4E700 		sw	a4,8(a5)
  35:src/Scheduler.cpp ****         data->next= nullptr;
 129              		.loc 1 35 9 is_stmt 1
  35:src/Scheduler.cpp ****         data->next= nullptr;
 130              		.loc 1 35 14 is_stmt 0
 131 00b4 23B8A700 		sd	a0,16(a5)
  36:src/Scheduler.cpp ****     }
 132              		.loc 1 36 9 is_stmt 1
  36:src/Scheduler.cpp ****     }
 133              		.loc 1 36 19 is_stmt 0
 134 00b8 233C0502 		sd	zero,56(a0)
 135 00bc 6FF05FFD 		j	.L6
 136              		.cfi_endproc
 137              	.LFE15:
 139              		.globl	_ZN9Scheduler5countE
 140              		.globl	_ZN9Scheduler4tailE
 141              		.globl	_ZN9Scheduler4headE
 142              		.bss
 143              		.align	3
 144              		.set	.LANCHOR0,. + 0
 147              	_ZN9Scheduler4headE:
 148 0000 00000000 		.zero	8
 148      00000000 
 151              	_ZN9Scheduler5countE:
 152 0008 00000000 		.zero	4
 153 000c 00000000 		.zero	4
 156              	_ZN9Scheduler4tailE:
 157 0010 00000000 		.zero	8
 157      00000000 
 158              		.text
 159              	.Letext0:
 160              		.file 2 "src/../h/../lib/hw.h"
 161              		.file 3 "src/../h/../h/syscall_c.h"
 162              		.file 4 "src/../h/TCB.hpp"
 163              		.file 5 "src/../h/Scheduler.hpp"
GAS LISTING /tmp/cc5xF5w2.s 			page 5


DEFINED SYMBOLS
                            *ABS*:0000000000000000 Scheduler.cpp
     /tmp/cc5xF5w2.s:9      .text:0000000000000000 _ZN9Scheduler3getEv
     /tmp/cc5xF5w2.s:13     .text:0000000000000000 .L0 
     /tmp/cc5xF5w2.s:14     .text:0000000000000000 .L0 
     /tmp/cc5xF5w2.s:15     .text:0000000000000004 .L0 
     /tmp/cc5xF5w2.s:17     .text:0000000000000008 .L0 
     /tmp/cc5xF5w2.s:19     .text:000000000000000c .L0 
     /tmp/cc5xF5w2.s:22     .text:000000000000000c .L0 
     /tmp/cc5xF5w2.s:23     .text:000000000000000c .L0 
     /tmp/cc5xF5w2.s:25     .text:0000000000000014 .L0 
     /tmp/cc5xF5w2.s:29     .text:0000000000000018 .L0 
     /tmp/cc5xF5w2.s:30     .text:0000000000000018 .L0 
     /tmp/cc5xF5w2.s:31     .text:0000000000000018 .L0 
     /tmp/cc5xF5w2.s:33     .text:000000000000001c .L0 
     /tmp/cc5xF5w2.s:36     .text:0000000000000028 .L0 
     /tmp/cc5xF5w2.s:37     .text:0000000000000028 .L0 
     /tmp/cc5xF5w2.s:41     .text:0000000000000034 .L0 
     /tmp/cc5xF5w2.s:44     .text:0000000000000038 .L0 
     /tmp/cc5xF5w2.s:45     .text:0000000000000038 .L0 
     /tmp/cc5xF5w2.s:51     .text:000000000000003c .L0 
     /tmp/cc5xF5w2.s:52     .text:000000000000003c .L0 
     /tmp/cc5xF5w2.s:53     .text:0000000000000040 .L0 
     /tmp/cc5xF5w2.s:54     .text:0000000000000040 .L0 
     /tmp/cc5xF5w2.s:55     .text:0000000000000040 .L0 
     /tmp/cc5xF5w2.s:57     .text:0000000000000044 .L0 
     /tmp/cc5xF5w2.s:61     .text:0000000000000048 .L0 
     /tmp/cc5xF5w2.s:65     .text:0000000000000048 .L0 
     /tmp/cc5xF5w2.s:66     .text:0000000000000048 .L0 
     /tmp/cc5xF5w2.s:70     .text:0000000000000054 .L0 
     /tmp/cc5xF5w2.s:76     .text:0000000000000054 _ZN9Scheduler3putEP3TCB
     /tmp/cc5xF5w2.s:79     .text:0000000000000054 .L0 
     /tmp/cc5xF5w2.s:81     .text:0000000000000054 .L0 
     /tmp/cc5xF5w2.s:82     .text:0000000000000058 .L0 
     /tmp/cc5xF5w2.s:84     .text:000000000000005c .L0 
     /tmp/cc5xF5w2.s:86     .text:0000000000000060 .L0 
     /tmp/cc5xF5w2.s:88     .text:0000000000000060 .L0 
     /tmp/cc5xF5w2.s:89     .text:0000000000000060 .L0 
     /tmp/cc5xF5w2.s:91     .text:0000000000000068 .L0 
     /tmp/cc5xF5w2.s:93     .text:000000000000006c .L0 
     /tmp/cc5xF5w2.s:94     .text:000000000000006c .L0 
     /tmp/cc5xF5w2.s:97     .text:0000000000000078 .L0 
     /tmp/cc5xF5w2.s:99     .text:000000000000007c .L0 
     /tmp/cc5xF5w2.s:100    .text:000000000000007c .L0 
     /tmp/cc5xF5w2.s:102    .text:0000000000000080 .L0 
     /tmp/cc5xF5w2.s:103    .text:0000000000000080 .L0 
     /tmp/cc5xF5w2.s:107    .text:000000000000008c .L0 
     /tmp/cc5xF5w2.s:108    .text:000000000000008c .L0 
     /tmp/cc5xF5w2.s:111    .text:0000000000000090 .L0 
     /tmp/cc5xF5w2.s:112    .text:0000000000000094 .L0 
     /tmp/cc5xF5w2.s:113    .text:0000000000000094 .L0 
     /tmp/cc5xF5w2.s:114    .text:0000000000000094 .L0 
     /tmp/cc5xF5w2.s:116    .text:0000000000000098 .L0 
     /tmp/cc5xF5w2.s:119    .text:000000000000009c .L0 
     /tmp/cc5xF5w2.s:121    .text:000000000000009c .L0 
     /tmp/cc5xF5w2.s:122    .text:000000000000009c .L0 
     /tmp/cc5xF5w2.s:125    .text:00000000000000a8 .L0 
GAS LISTING /tmp/cc5xF5w2.s 			page 6


     /tmp/cc5xF5w2.s:126    .text:00000000000000a8 .L0 
     /tmp/cc5xF5w2.s:130    .text:00000000000000b4 .L0 
     /tmp/cc5xF5w2.s:131    .text:00000000000000b4 .L0 
     /tmp/cc5xF5w2.s:133    .text:00000000000000b8 .L0 
     /tmp/cc5xF5w2.s:134    .text:00000000000000b8 .L0 
     /tmp/cc5xF5w2.s:136    .text:00000000000000c0 .L0 
     /tmp/cc5xF5w2.s:151    .bss:0000000000000008 _ZN9Scheduler5countE
     /tmp/cc5xF5w2.s:156    .bss:0000000000000010 _ZN9Scheduler4tailE
     /tmp/cc5xF5w2.s:147    .bss:0000000000000000 _ZN9Scheduler4headE
     /tmp/cc5xF5w2.s:144    .bss:0000000000000000 .LANCHOR0
     /tmp/cc5xF5w2.s:164    .text:00000000000000c0 .L0 
     /tmp/cc5xF5w2.s:23     .text:000000000000000c .L0 
     /tmp/cc5xF5w2.s:33     .text:000000000000001c .L0 
     /tmp/cc5xF5w2.s:66     .text:0000000000000048 .L0 
     /tmp/cc5xF5w2.s:89     .text:0000000000000060 .L0 
     /tmp/cc5xF5w2.s:94     .text:000000000000006c .L0 
     /tmp/cc5xF5w2.s:122    .text:000000000000009c .L0 
     /tmp/cc5xF5w2.s:48     .text:000000000000003c .L1
     /tmp/cc5xF5w2.s:60     .text:0000000000000048 .L5
     /tmp/cc5xF5w2.s:42     .text:0000000000000038 .L3
     /tmp/cc5xF5w2.s:118    .text:000000000000009c .L10
     /tmp/cc5xF5w2.s:109    .text:0000000000000090 .L6
     /tmp/cc5xF5w2.s:994    .debug_abbrev:0000000000000000 .Ldebug_abbrev0
     /tmp/cc5xF5w2.s:1951   .debug_str:00000000000004fc .LASF96
     /tmp/cc5xF5w2.s:1969   .debug_str:0000000000000650 .LASF97
     /tmp/cc5xF5w2.s:1811   .debug_str:0000000000000102 .LASF98
     /tmp/cc5xF5w2.s:5      .text:0000000000000000 .Ltext0
     /tmp/cc5xF5w2.s:159    .text:00000000000000c0 .Letext0
     /tmp/cc5xF5w2.s:1767   .debug_line:0000000000000000 .Ldebug_line0
     /tmp/cc5xF5w2.s:1889   .debug_str:000000000000034a .LASF0
     /tmp/cc5xF5w2.s:1901   .debug_str:000000000000039a .LASF1
     /tmp/cc5xF5w2.s:1875   .debug_str:00000000000002e5 .LASF2
     /tmp/cc5xF5w2.s:1847   .debug_str:000000000000024d .LASF4
     /tmp/cc5xF5w2.s:1933   .debug_str:0000000000000494 .LASF3
     /tmp/cc5xF5w2.s:1789   .debug_str:0000000000000084 .LASF5
     /tmp/cc5xF5w2.s:1905   .debug_str:00000000000003c2 .LASF6
     /tmp/cc5xF5w2.s:1887   .debug_str:0000000000000337 .LASF7
     /tmp/cc5xF5w2.s:1961   .debug_str:0000000000000615 .LASF8
     /tmp/cc5xF5w2.s:1837   .debug_str:00000000000001d6 .LASF9
     /tmp/cc5xF5w2.s:1911   .debug_str:00000000000003ea .LASF10
     /tmp/cc5xF5w2.s:1955   .debug_str:00000000000005e7 .LASF11
     /tmp/cc5xF5w2.s:1793   .debug_str:0000000000000097 .LASF12
     /tmp/cc5xF5w2.s:1775   .debug_str:0000000000000021 .LASF13
     /tmp/cc5xF5w2.s:1803   .debug_str:00000000000000e0 .LASF14
     /tmp/cc5xF5w2.s:1929   .debug_str:0000000000000472 .LASF15
     /tmp/cc5xF5w2.s:1813   .debug_str:0000000000000125 .LASF16
     /tmp/cc5xF5w2.s:1829   .debug_str:0000000000000190 .LASF17
     /tmp/cc5xF5w2.s:1941   .debug_str:00000000000004c5 .LASF18
     /tmp/cc5xF5w2.s:1923   .debug_str:0000000000000443 .LASF19
     /tmp/cc5xF5w2.s:1781   .debug_str:000000000000004a .LASF99
     /tmp/cc5xF5w2.s:1821   .debug_str:0000000000000164 .LASF28
     /tmp/cc5xF5w2.s:1919   .debug_str:0000000000000432 .LASF30
     /tmp/cc5xF5w2.s:1907   .debug_str:00000000000003d5 .LASF20
     /tmp/cc5xF5w2.s:1835   .debug_str:00000000000001bf .LASF22
     /tmp/cc5xF5w2.s:1779   .debug_str:0000000000000040 .LASF21
     /tmp/cc5xF5w2.s:1859   .debug_str:0000000000000282 .LASF23
     /tmp/cc5xF5w2.s:1801   .debug_str:00000000000000d6 .LASF24
GAS LISTING /tmp/cc5xF5w2.s 			page 7


     /tmp/cc5xF5w2.s:1799   .debug_str:00000000000000c1 .LASF25
     /tmp/cc5xF5w2.s:1963   .debug_str:0000000000000625 .LASF26
     /tmp/cc5xF5w2.s:1981   .debug_str:00000000000006b2 .LASF27
     /tmp/cc5xF5w2.s:1877   .debug_str:00000000000002f3 .LASF29
     /tmp/cc5xF5w2.s:1843   .debug_str:000000000000020e .LASF31
     /tmp/cc5xF5w2.s:1849   .debug_str:0000000000000254 .LASF32
     /tmp/cc5xF5w2.s:1957   .debug_str:00000000000005f6 .LASF33
     /tmp/cc5xF5w2.s:1809   .debug_str:00000000000000f7 .LASF34
     /tmp/cc5xF5w2.s:1913   .debug_str:00000000000003f9 .LASF35
     /tmp/cc5xF5w2.s:1867   .debug_str:00000000000002b0 .LASF36
     /tmp/cc5xF5w2.s:1787   .debug_str:000000000000006b .LASF37
     /tmp/cc5xF5w2.s:1839   .debug_str:00000000000001e4 .LASF38
     /tmp/cc5xF5w2.s:1953   .debug_str:00000000000005c0 .LASF39
     /tmp/cc5xF5w2.s:1921   .debug_str:000000000000043e .LASF100
     /tmp/cc5xF5w2.s:1857   .debug_str:0000000000000275 .LASF40
     /tmp/cc5xF5w2.s:1883   .debug_str:000000000000030f .LASF41
     /tmp/cc5xF5w2.s:1899   .debug_str:000000000000038f .LASF42
     /tmp/cc5xF5w2.s:1977   .debug_str:000000000000068c .LASF43
     /tmp/cc5xF5w2.s:1825   .debug_str:0000000000000175 .LASF44
     /tmp/cc5xF5w2.s:1885   .debug_str:0000000000000332 .LASF45
     /tmp/cc5xF5w2.s:1937   .debug_str:00000000000004b7 .LASF46
     /tmp/cc5xF5w2.s:1915   .debug_str:000000000000040f .LASF47
     /tmp/cc5xF5w2.s:1891   .debug_str:0000000000000357 .LASF63
     /tmp/cc5xF5w2.s:1827   .debug_str:000000000000017d .LASF65
     /tmp/cc5xF5w2.s:1873   .debug_str:00000000000002df .LASF48
     /tmp/cc5xF5w2.s:1917   .debug_str:0000000000000420 .LASF49
     /tmp/cc5xF5w2.s:1971   .debug_str:0000000000000662 .LASF50
     /tmp/cc5xF5w2.s:1947   .debug_str:00000000000004ea .LASF51
     /tmp/cc5xF5w2.s:1815   .debug_str:000000000000013b .LASF52
     /tmp/cc5xF5w2.s:1925   .debug_str:000000000000044c .LASF68
     /tmp/cc5xF5w2.s:1897   .debug_str:0000000000000378 .LASF101
     /tmp/cc5xF5w2.s:1853   .debug_str:0000000000000268 .LASF53
     /tmp/cc5xF5w2.s:1807   .debug_str:00000000000000f1 .LASF54
     /tmp/cc5xF5w2.s:1855   .debug_str:000000000000026d .LASF55
     /tmp/cc5xF5w2.s:1895   .debug_str:000000000000036e .LASF56
     /tmp/cc5xF5w2.s:1851   .debug_str:000000000000025f .LASF57
     /tmp/cc5xF5w2.s:1771   .debug_str:000000000000000a .LASF58
     /tmp/cc5xF5w2.s:1865   .debug_str:00000000000002a8 .LASF59
     /tmp/cc5xF5w2.s:1965   .debug_str:0000000000000634 .LASF60
     /tmp/cc5xF5w2.s:1979   .debug_str:00000000000006ad .LASF61
     /tmp/cc5xF5w2.s:1773   .debug_str:0000000000000012 .LASF62
     /tmp/cc5xF5w2.s:1869   .debug_str:00000000000002bd .LASF102
     /tmp/cc5xF5w2.s:1841   .debug_str:00000000000001f5 .LASF103
     /tmp/cc5xF5w2.s:1967   .debug_str:0000000000000642 .LASF91
     /tmp/cc5xF5w2.s:1845   .debug_str:0000000000000225 .LASF104
     /tmp/cc5xF5w2.s:1935   .debug_str:00000000000004a6 .LASF87
     /tmp/cc5xF5w2.s:1863   .debug_str:00000000000002a3 .LASF64
     /tmp/cc5xF5w2.s:1797   .debug_str:00000000000000b2 .LASF66
     /tmp/cc5xF5w2.s:1791   .debug_str:000000000000008b .LASF67
     /tmp/cc5xF5w2.s:1927   .debug_str:0000000000000459 .LASF69
     /tmp/cc5xF5w2.s:1777   .debug_str:0000000000000031 .LASF70
     /tmp/cc5xF5w2.s:1831   .debug_str:0000000000000195 .LASF71
     /tmp/cc5xF5w2.s:1893   .debug_str:0000000000000360 .LASF72
     /tmp/cc5xF5w2.s:1823   .debug_str:0000000000000169 .LASF73
     /tmp/cc5xF5w2.s:1833   .debug_str:00000000000001af .LASF74
     /tmp/cc5xF5w2.s:1861   .debug_str:0000000000000297 .LASF75
     /tmp/cc5xF5w2.s:1945   .debug_str:00000000000004dd .LASF76
GAS LISTING /tmp/cc5xF5w2.s 			page 8


     /tmp/cc5xF5w2.s:1931   .debug_str:0000000000000488 .LASF77
     /tmp/cc5xF5w2.s:1943   .debug_str:00000000000004cf .LASF78
     /tmp/cc5xF5w2.s:1959   .debug_str:000000000000060c .LASF79
     /tmp/cc5xF5w2.s:1769   .debug_str:0000000000000000 .LASF80
     /tmp/cc5xF5w2.s:1939   .debug_str:00000000000004bc .LASF81
     /tmp/cc5xF5w2.s:1795   .debug_str:00000000000000a7 .LASF82
     /tmp/cc5xF5w2.s:1879   .debug_str:00000000000002ff .LASF83
     /tmp/cc5xF5w2.s:1785   .debug_str:0000000000000066 .LASF84
     /tmp/cc5xF5w2.s:1975   .debug_str:0000000000000687 .LASF85
     /tmp/cc5xF5w2.s:1909   .debug_str:00000000000003e0 .LASF86
     /tmp/cc5xF5w2.s:1817   .debug_str:000000000000014b .LASF88
     /tmp/cc5xF5w2.s:1881   .debug_str:000000000000030a .LASF89
     /tmp/cc5xF5w2.s:1949   .debug_str:00000000000004f6 .LASF90
     /tmp/cc5xF5w2.s:1819   .debug_str:0000000000000150 .LASF105
     /tmp/cc5xF5w2.s:1973   .debug_str:000000000000066f .LASF106
     /tmp/cc5xF5w2.s:1871   .debug_str:00000000000002cb .LASF92
     /tmp/cc5xF5w2.s:1783   .debug_str:0000000000000052 .LASF93
     /tmp/cc5xF5w2.s:1903   .debug_str:00000000000003ad .LASF94
     /tmp/cc5xF5w2.s:77     .text:0000000000000054 .LFB15
     /tmp/cc5xF5w2.s:137    .text:00000000000000c0 .LFE15
     /tmp/cc5xF5w2.s:1805   .debug_str:00000000000000ec .LASF107
     /tmp/cc5xF5w2.s:10     .text:0000000000000000 .LFB14
     /tmp/cc5xF5w2.s:71     .text:0000000000000054 .LFE14
     /tmp/cc5xF5w2.s:1759   .debug_ranges:0000000000000000 .Ldebug_ranges0
     /tmp/cc5xF5w2.s:1983   .debug_str:00000000000006cc .LASF95
     /tmp/cc5xF5w2.s:1735   .debug_loc:0000000000000000 .LLST0
     /tmp/cc5xF5w2.s:28     .text:0000000000000018 .LVL0
     /tmp/cc5xF5w2.s:47     .text:000000000000003c .LVL1
     /tmp/cc5xF5w2.s:59     .text:0000000000000048 .LVL2
     /tmp/cc5xF5w2.s:165    .debug_info:0000000000000000 .Ldebug_info0
     /tmp/cc5xF5w2.s:26     .text:0000000000000018 .LBB3
     /tmp/cc5xF5w2.s:49     .text:000000000000003c .LBE3
     /tmp/cc5xF5w2.s:63     .text:0000000000000048 .LBB4
     /tmp/cc5xF5w2.s:68     .text:0000000000000054 .LBE4

NO UNDEFINED SYMBOLS
