GAS LISTING /tmp/ccB6hzH8.s 			page 1


   1              		.file	"syscall_c.cpp"
   2              		.option pic
   3              		.option norelax
   4              		.text
   5              	.Ltext0:
   6              		.align	2
   7              		.globl	_Z9mem_allocm
   9              	_Z9mem_allocm:
  10              	.LFB1:
  11              		.file 1 "src/syscall_c.cpp"
   1:src/syscall_c.cpp **** //
   2:src/syscall_c.cpp **** // Created by os on 4/28/23.
   3:src/syscall_c.cpp **** //
   4:src/syscall_c.cpp **** 
   5:src/syscall_c.cpp **** #include "../h/syscall_c.h"
   6:src/syscall_c.cpp **** 
   7:src/syscall_c.cpp **** 
   8:src/syscall_c.cpp **** //Funkcija koja poziva ecall i stavlja kod operacije za svaku operaciju u a0!
   9:src/syscall_c.cpp ****  void inline sys_call_preparation (const uint64 CODE)
  10:src/syscall_c.cpp **** {
  11:src/syscall_c.cpp ****     __asm__ volatile ("mv a0,%0" : :"r" (CODE));
  12:src/syscall_c.cpp ****     __asm__ volatile("ecall");
  13:src/syscall_c.cpp **** }
  14:src/syscall_c.cpp **** 
  15:src/syscall_c.cpp **** 
  16:src/syscall_c.cpp **** void* mem_alloc (size_t size)
  17:src/syscall_c.cpp **** {
  12              		.loc 1 17 1
  13              		.cfi_startproc
  14              	.LVL0:
  15 0000 130101FF 		addi	sp,sp,-16
  16              		.cfi_def_cfa_offset 16
  17 0004 23348100 		sd	s0,8(sp)
  18              		.cfi_offset 8, -8
  19 0008 13040101 		addi	s0,sp,16
  20              		.cfi_def_cfa 8, 0
  18:src/syscall_c.cpp ****     size_t num_of_blocks = size;
  21              		.loc 1 18 5
  22              	.LVL1:
  19:src/syscall_c.cpp ****     if (size % MEM_BLOCK_SIZE == 0)
  23              		.loc 1 19 5
  24              		.loc 1 19 14 is_stmt 0
  25 000c 9377F503 		andi	a5,a0,63
  26              		.loc 1 19 5
  27 0010 63940702 		bnez	a5,.L2
  20:src/syscall_c.cpp ****     {
  21:src/syscall_c.cpp ****         num_of_blocks = size / MEM_BLOCK_SIZE;
  28              		.loc 1 21 9 is_stmt 1
  29              		.loc 1 21 23 is_stmt 0
  30 0014 13556500 		srli	a0,a0,6
  31              	.LVL2:
  32              	.L3:
  22:src/syscall_c.cpp ****     }
  23:src/syscall_c.cpp ****     else
  24:src/syscall_c.cpp ****     {
  25:src/syscall_c.cpp ****         num_of_blocks = size / MEM_BLOCK_SIZE;
  26:src/syscall_c.cpp ****         num_of_blocks++;
GAS LISTING /tmp/ccB6hzH8.s 			page 2


  27:src/syscall_c.cpp ****     }
  28:src/syscall_c.cpp ****     __asm__ volatile ("mv a1,%0" : :"r" (num_of_blocks));
  33              		.loc 1 28 5 is_stmt 1
  34              		.loc 1 28 57 is_stmt 0
  35              	#APP
  36              	# 28 "src/syscall_c.cpp" 1
  29              	
  30:src/syscall_c.cpp **** 
  31:src/syscall_c.cpp ****     sys_call_preparation(MEM_ALLOC);
  37              		mv a1,a0
  38              	# 0 "" 2
  39              		.loc 1 31 5 is_stmt 1
  40              	.LVL3:
  41              	#NO_APP
  42              	.LBB36:
  43              	.LBB37:
  11:src/syscall_c.cpp ****     __asm__ volatile("ecall");
  44              		.loc 1 11 5
  11:src/syscall_c.cpp ****     __asm__ volatile("ecall");
  45              		.loc 1 11 48 is_stmt 0
  46 001c 93071000 		li	a5,1
  47              	#APP
  48              	# 11 "src/syscall_c.cpp" 1
  12:src/syscall_c.cpp **** }
  49              		mv a0,a5
  50              	# 0 "" 2
  51              		.loc 1 12 5 is_stmt 1
  12:src/syscall_c.cpp **** }
  52              		.loc 1 12 30 is_stmt 0
  53              	# 12 "src/syscall_c.cpp" 1
  54              		ecall
  55              	# 0 "" 2
  56              	.LVL4:
  57              	#NO_APP
  58              	.LBE37:
  59              	.LBE36:
  32:src/syscall_c.cpp **** 
  33:src/syscall_c.cpp ****     uint64  return_adress;
  60              		.loc 1 33 5 is_stmt 1
  34:src/syscall_c.cpp **** 
  35:src/syscall_c.cpp ****     __asm__ volatile ("mv %0,a0" :"=r"(return_adress));
  61              		.loc 1 35 5
  62              		.loc 1 35 55 is_stmt 0
  63              	#APP
  64              	# 35 "src/syscall_c.cpp" 1
  36              	
  65              		mv a0,a0
  66              	# 0 "" 2
  67              	.LVL5:
  37:src/syscall_c.cpp ****     return (void*)return_adress;
  68              		.loc 1 37 5 is_stmt 1
  38:src/syscall_c.cpp **** }
  69              		.loc 1 38 1 is_stmt 0
  70              	#NO_APP
  71 002c 03348100 		ld	s0,8(sp)
  72              		.cfi_remember_state
  73              		.cfi_restore 8
GAS LISTING /tmp/ccB6hzH8.s 			page 3


  74              		.cfi_def_cfa 2, 16
  75 0030 13010101 		addi	sp,sp,16
  76              		.cfi_def_cfa_offset 0
  77 0034 67800000 		jr	ra
  78              	.LVL6:
  79              	.L2:
  80              		.cfi_restore_state
  25:src/syscall_c.cpp ****         num_of_blocks++;
  81              		.loc 1 25 9 is_stmt 1
  25:src/syscall_c.cpp ****         num_of_blocks++;
  82              		.loc 1 25 23 is_stmt 0
  83 0038 13556500 		srli	a0,a0,6
  84              	.LVL7:
  26:src/syscall_c.cpp ****     }
  85              		.loc 1 26 9 is_stmt 1
  26:src/syscall_c.cpp ****     }
  86              		.loc 1 26 22 is_stmt 0
  87 003c 13051500 		addi	a0,a0,1
  88              	.LVL8:
  89 0040 6FF09FFD 		j	.L3
  90              		.cfi_endproc
  91              	.LFE1:
  93              		.align	2
  94              		.globl	_Z8mem_freePv
  96              	_Z8mem_freePv:
  97              	.LFB2:
  39:src/syscall_c.cpp **** 
  40:src/syscall_c.cpp **** int mem_free (void* arg)
  41:src/syscall_c.cpp **** {
  98              		.loc 1 41 1 is_stmt 1
  99              		.cfi_startproc
 100              	.LVL9:
 101 0044 130101FF 		addi	sp,sp,-16
 102              		.cfi_def_cfa_offset 16
 103 0048 23348100 		sd	s0,8(sp)
 104              		.cfi_offset 8, -8
 105 004c 13040101 		addi	s0,sp,16
 106              		.cfi_def_cfa 8, 0
  42:src/syscall_c.cpp **** 
  43:src/syscall_c.cpp ****     __asm__ volatile ("mv a1,%0" : :"r" (arg));
 107              		.loc 1 43 5
 108              		.loc 1 43 47 is_stmt 0
 109              	#APP
 110              	# 43 "src/syscall_c.cpp" 1
  44              	
  45:src/syscall_c.cpp **** 
  46:src/syscall_c.cpp ****     sys_call_preparation(MEM_FREE);
 111              		mv a1,a0
 112              	# 0 "" 2
 113              		.loc 1 46 5 is_stmt 1
 114              	.LVL10:
 115              	#NO_APP
 116              	.LBB38:
 117              	.LBB39:
  11:src/syscall_c.cpp ****     __asm__ volatile("ecall");
 118              		.loc 1 11 5
  11:src/syscall_c.cpp ****     __asm__ volatile("ecall");
GAS LISTING /tmp/ccB6hzH8.s 			page 4


 119              		.loc 1 11 48 is_stmt 0
 120 0054 93072000 		li	a5,2
 121              	#APP
 122              	# 11 "src/syscall_c.cpp" 1
  12:src/syscall_c.cpp **** }
 123              		mv a0,a5
 124              	# 0 "" 2
 125              		.loc 1 12 5 is_stmt 1
  12:src/syscall_c.cpp **** }
 126              		.loc 1 12 30 is_stmt 0
 127              	# 12 "src/syscall_c.cpp" 1
 128              		ecall
 129              	# 0 "" 2
 130              	.LVL11:
 131              	#NO_APP
 132              	.LBE39:
 133              	.LBE38:
  47:src/syscall_c.cpp **** 
  48:src/syscall_c.cpp ****     int result;
 134              		.loc 1 48 5 is_stmt 1
  49:src/syscall_c.cpp **** 
  50:src/syscall_c.cpp ****     __asm__ volatile ("mv %0,a0" :"=r"(result));
 135              		.loc 1 50 5
 136              		.loc 1 50 48 is_stmt 0
 137              	#APP
 138              	# 50 "src/syscall_c.cpp" 1
  51              	
 139              		mv a0,a0
 140              	# 0 "" 2
 141              	.LVL12:
  52:src/syscall_c.cpp ****     return result;
 142              		.loc 1 52 5 is_stmt 1
  53:src/syscall_c.cpp **** 
  54:src/syscall_c.cpp **** 
  55:src/syscall_c.cpp **** }
 143              		.loc 1 55 1 is_stmt 0
 144              	#NO_APP
 145 0064 1B050500 		sext.w	a0,a0
 146 0068 03348100 		ld	s0,8(sp)
 147              		.cfi_restore 8
 148              		.cfi_def_cfa 2, 16
 149 006c 13010101 		addi	sp,sp,16
 150              		.cfi_def_cfa_offset 0
 151 0070 67800000 		jr	ra
 152              		.cfi_endproc
 153              	.LFE2:
 155              		.align	2
 156              		.globl	_Z13thread_createPP3TCBPFvPvES2_
 158              	_Z13thread_createPP3TCBPFvPvES2_:
 159              	.LFB3:
  56:src/syscall_c.cpp **** 
  57:src/syscall_c.cpp **** int thread_create (thread_t* handle,void(*start_routine)(void*),void* arg)
  58:src/syscall_c.cpp **** {
 160              		.loc 1 58 1 is_stmt 1
 161              		.cfi_startproc
 162              	.LVL13:
  59:src/syscall_c.cpp ****     void* stack_space = nullptr;
GAS LISTING /tmp/ccB6hzH8.s 			page 5


 163              		.loc 1 59 5
  60:src/syscall_c.cpp ****     if (handle== nullptr) return -1;
 164              		.loc 1 60 5
 165 0074 63060508 		beqz	a0,.L10
  58:src/syscall_c.cpp ****     void* stack_space = nullptr;
 166              		.loc 1 58 1 is_stmt 0
 167 0078 130101FD 		addi	sp,sp,-48
 168              		.cfi_def_cfa_offset 48
 169 007c 23341102 		sd	ra,40(sp)
 170 0080 23308102 		sd	s0,32(sp)
 171 0084 233C9100 		sd	s1,24(sp)
 172 0088 23382101 		sd	s2,16(sp)
 173 008c 23343101 		sd	s3,8(sp)
 174              		.cfi_offset 1, -8
 175              		.cfi_offset 8, -16
 176              		.cfi_offset 9, -24
 177              		.cfi_offset 18, -32
 178              		.cfi_offset 19, -40
 179 0090 13040103 		addi	s0,sp,48
 180              		.cfi_def_cfa 8, 0
 181 0094 93040500 		mv	s1,a0
 182 0098 13890500 		mv	s2,a1
 183 009c 93090600 		mv	s3,a2
  61:src/syscall_c.cpp **** 
  62:src/syscall_c.cpp **** 
  63:src/syscall_c.cpp ****     if (start_routine != nullptr){
 184              		.loc 1 63 5 is_stmt 1
 185              	.LBB40:
 186 00a0 638C0504 		beqz	a1,.L11
 187              	.LBB41:
  64:src/syscall_c.cpp ****         size_t velicina = sizeof(uint64) * DEFAULT_STACK_SIZE;
 188              		.loc 1 64 9
 189              	.LVL14:
  65:src/syscall_c.cpp ****         stack_space= mem_alloc(velicina);
 190              		.loc 1 65 9
 191              		.loc 1 65 31 is_stmt 0
 192 00a4 37850000 		li	a0,32768
 193              	.LVL15:
 194 00a8 97000000 		call	_Z9mem_allocm
 194      E7800000 
 195              	.LVL16:
  66:src/syscall_c.cpp **** 
  67:src/syscall_c.cpp ****     if (stack_space== nullptr)return -3;}
 196              		.loc 1 67 5 is_stmt 1
 197 00b0 630C0504 		beqz	a0,.L18
 198              	.LVL17:
 199              	.L9:
 200              	.LBE41:
 201              	.LBE40:
  68:src/syscall_c.cpp **** 
  69:src/syscall_c.cpp **** 
  70:src/syscall_c.cpp ****     __asm__ volatile ("mv a1,%0" : :"r" (handle));
 202              		.loc 1 70 5
 203              		.loc 1 70 50 is_stmt 0
 204              	#APP
 205              	# 70 "src/syscall_c.cpp" 1
  71              	    __asm__ volatile ("mv a2,%0" : :"r" (start_routine));
GAS LISTING /tmp/ccB6hzH8.s 			page 6


 206              		mv a1,s1
 207              	# 0 "" 2
 208              		.loc 1 71 5 is_stmt 1
 209              		.loc 1 71 57 is_stmt 0
 210              	# 71 "src/syscall_c.cpp" 1
  72              	    __asm__ volatile ("mv a3,%0" : :"r" (arg));
 211              		mv a2,s2
 212              	# 0 "" 2
 213              		.loc 1 72 5 is_stmt 1
 214              		.loc 1 72 47 is_stmt 0
 215              	# 72 "src/syscall_c.cpp" 1
  73              	    __asm__ volatile ("mv a4,%0" : :"r" (stack_space));
 216              		mv a3,s3
 217              	# 0 "" 2
 218              		.loc 1 73 5 is_stmt 1
 219              		.loc 1 73 55 is_stmt 0
 220              	# 73 "src/syscall_c.cpp" 1
  74              	
  75:src/syscall_c.cpp **** 
  76:src/syscall_c.cpp ****     sys_call_preparation(THREAD_CREATE);
 221              		mv a4,a0
 222              	# 0 "" 2
 223              		.loc 1 76 5 is_stmt 1
 224              	.LVL18:
 225              	#NO_APP
 226              	.LBB43:
 227              	.LBB44:
  11:src/syscall_c.cpp ****     __asm__ volatile("ecall");
 228              		.loc 1 11 5
  11:src/syscall_c.cpp ****     __asm__ volatile("ecall");
 229              		.loc 1 11 48 is_stmt 0
 230 00c4 93071001 		li	a5,17
 231              	#APP
 232              	# 11 "src/syscall_c.cpp" 1
  12:src/syscall_c.cpp **** }
 233              		mv a0,a5
 234              	# 0 "" 2
 235              		.loc 1 12 5 is_stmt 1
  12:src/syscall_c.cpp **** }
 236              		.loc 1 12 30 is_stmt 0
 237              	# 12 "src/syscall_c.cpp" 1
 238              		ecall
 239              	# 0 "" 2
 240              	.LVL19:
 241              	#NO_APP
 242              	.LBE44:
 243              	.LBE43:
  77:src/syscall_c.cpp **** 
  78:src/syscall_c.cpp ****     if (*handle!= nullptr) return 0;
 244              		.loc 1 78 5 is_stmt 1
 245              		.loc 1 78 9 is_stmt 0
 246 00d0 83B70400 		ld	a5,0(s1)
 247              		.loc 1 78 5
 248 00d4 638E0702 		beqz	a5,.L13
 249              		.loc 1 78 35
 250 00d8 13050000 		li	a0,0
 251              	.LVL20:
GAS LISTING /tmp/ccB6hzH8.s 			page 7


 252              	.L8:
  79:src/syscall_c.cpp ****     else return -4;
  80:src/syscall_c.cpp **** }
 253              		.loc 1 80 1
 254 00dc 83308102 		ld	ra,40(sp)
 255              		.cfi_remember_state
 256              		.cfi_restore 1
 257 00e0 03340102 		ld	s0,32(sp)
 258              		.cfi_restore 8
 259              		.cfi_def_cfa 2, 48
 260 00e4 83348101 		ld	s1,24(sp)
 261              		.cfi_restore 9
 262              	.LVL21:
 263 00e8 03390101 		ld	s2,16(sp)
 264              		.cfi_restore 18
 265              	.LVL22:
 266 00ec 83398100 		ld	s3,8(sp)
 267              		.cfi_restore 19
 268              	.LVL23:
 269 00f0 13010103 		addi	sp,sp,48
 270              		.cfi_def_cfa_offset 0
 271 00f4 67800000 		jr	ra
 272              	.LVL24:
 273              	.L11:
 274              		.cfi_restore_state
  59:src/syscall_c.cpp ****     if (handle== nullptr) return -1;
 275              		.loc 1 59 11
 276 00f8 13050000 		li	a0,0
 277 00fc 6FF09FFB 		j	.L9
 278              	.LVL25:
 279              	.L10:
 280              		.cfi_def_cfa_register 2
 281              		.cfi_restore 1
 282              		.cfi_restore 8
 283              		.cfi_restore 9
 284              		.cfi_restore 18
 285              		.cfi_restore 19
  60:src/syscall_c.cpp **** 
 286              		.loc 1 60 35
 287 0100 1305F0FF 		li	a0,-1
 288              	.LVL26:
 289              		.loc 1 80 1
 290 0104 67800000 		ret
 291              	.LVL27:
 292              	.L18:
 293              		.cfi_def_cfa_register 8
 294              		.cfi_offset 1, -8
 295              		.cfi_offset 8, -16
 296              		.cfi_offset 9, -24
 297              		.cfi_offset 18, -32
 298              		.cfi_offset 19, -40
 299              	.LBB45:
 300              	.LBB42:
  67:src/syscall_c.cpp **** 
 301              		.loc 1 67 39
 302 0108 1305D0FF 		li	a0,-3
 303              	.LVL28:
GAS LISTING /tmp/ccB6hzH8.s 			page 8


 304 010c 6FF01FFD 		j	.L8
 305              	.LVL29:
 306              	.L13:
 307              	.LBE42:
 308              	.LBE45:
  79:src/syscall_c.cpp **** }
 309              		.loc 1 79 18
 310 0110 1305C0FF 		li	a0,-4
 311              	.LVL30:
 312 0114 6FF09FFC 		j	.L8
 313              		.cfi_endproc
 314              	.LFE3:
 316              		.align	2
 317              		.globl	_Z11thread_exitv
 319              	_Z11thread_exitv:
 320              	.LFB4:
  81:src/syscall_c.cpp **** 
  82:src/syscall_c.cpp **** int thread_exit ()
  83:src/syscall_c.cpp **** {
 321              		.loc 1 83 1 is_stmt 1
 322              		.cfi_startproc
 323 0118 130101FF 		addi	sp,sp,-16
 324              		.cfi_def_cfa_offset 16
 325 011c 23348100 		sd	s0,8(sp)
 326              		.cfi_offset 8, -8
 327 0120 13040101 		addi	s0,sp,16
 328              		.cfi_def_cfa 8, 0
  84:src/syscall_c.cpp **** 
  85:src/syscall_c.cpp ****     sys_call_preparation(THREAD_EXIT);
 329              		.loc 1 85 5
 330              	.LVL31:
 331              	.LBB46:
 332              	.LBB47:
  11:src/syscall_c.cpp ****     __asm__ volatile("ecall");
 333              		.loc 1 11 5
  11:src/syscall_c.cpp ****     __asm__ volatile("ecall");
 334              		.loc 1 11 48 is_stmt 0
 335 0124 93072001 		li	a5,18
 336              	#APP
 337              	# 11 "src/syscall_c.cpp" 1
  12:src/syscall_c.cpp **** }
 338              		mv a0,a5
 339              	# 0 "" 2
 340              		.loc 1 12 5 is_stmt 1
  12:src/syscall_c.cpp **** }
 341              		.loc 1 12 30 is_stmt 0
 342              	# 12 "src/syscall_c.cpp" 1
 343              		ecall
 344              	# 0 "" 2
 345              	.LVL32:
 346              	#NO_APP
 347              	.LBE47:
 348              	.LBE46:
  86:src/syscall_c.cpp **** 
  87:src/syscall_c.cpp ****     int result;
 349              		.loc 1 87 5 is_stmt 1
  88:src/syscall_c.cpp **** 
GAS LISTING /tmp/ccB6hzH8.s 			page 9


  89:src/syscall_c.cpp ****     __asm__ volatile ("mv %0,a0" :"=r"(result));
 350              		.loc 1 89 5
 351              		.loc 1 89 48 is_stmt 0
 352              	#APP
 353              	# 89 "src/syscall_c.cpp" 1
  90              	    return result;
 354              		mv a0,a0
 355              	# 0 "" 2
 356              	.LVL33:
 357              		.loc 1 90 5 is_stmt 1
  91:src/syscall_c.cpp **** }
 358              		.loc 1 91 1 is_stmt 0
 359              	#NO_APP
 360 0134 1B050500 		sext.w	a0,a0
 361 0138 03348100 		ld	s0,8(sp)
 362              		.cfi_restore 8
 363              		.cfi_def_cfa 2, 16
 364 013c 13010101 		addi	sp,sp,16
 365              		.cfi_def_cfa_offset 0
 366 0140 67800000 		jr	ra
 367              		.cfi_endproc
 368              	.LFE4:
 370              		.align	2
 371              		.globl	_Z15thread_dispatchv
 373              	_Z15thread_dispatchv:
 374              	.LFB5:
  92:src/syscall_c.cpp **** 
  93:src/syscall_c.cpp **** void thread_dispatch ()
  94:src/syscall_c.cpp **** {
 375              		.loc 1 94 1 is_stmt 1
 376              		.cfi_startproc
 377 0144 130101FF 		addi	sp,sp,-16
 378              		.cfi_def_cfa_offset 16
 379 0148 23348100 		sd	s0,8(sp)
 380              		.cfi_offset 8, -8
 381 014c 13040101 		addi	s0,sp,16
 382              		.cfi_def_cfa 8, 0
  95:src/syscall_c.cpp ****     sys_call_preparation(THREAD_DISPATCH);
 383              		.loc 1 95 5
 384              	.LVL34:
 385              	.LBB48:
 386              	.LBB49:
  11:src/syscall_c.cpp ****     __asm__ volatile("ecall");
 387              		.loc 1 11 5
  11:src/syscall_c.cpp ****     __asm__ volatile("ecall");
 388              		.loc 1 11 48 is_stmt 0
 389 0150 93073001 		li	a5,19
 390              	#APP
 391              	# 11 "src/syscall_c.cpp" 1
  12:src/syscall_c.cpp **** }
 392              		mv a0,a5
 393              	# 0 "" 2
 394              		.loc 1 12 5 is_stmt 1
  12:src/syscall_c.cpp **** }
 395              		.loc 1 12 30 is_stmt 0
 396              	# 12 "src/syscall_c.cpp" 1
 397              		ecall
GAS LISTING /tmp/ccB6hzH8.s 			page 10


 398              	# 0 "" 2
 399              	.LVL35:
 400              	#NO_APP
 401              	.LBE49:
 402              	.LBE48:
  96:src/syscall_c.cpp **** }
 403              		.loc 1 96 1
 404 015c 03348100 		ld	s0,8(sp)
 405              		.cfi_restore 8
 406              		.cfi_def_cfa 2, 16
 407 0160 13010101 		addi	sp,sp,16
 408              		.cfi_def_cfa_offset 0
 409 0164 67800000 		jr	ra
 410              		.cfi_endproc
 411              	.LFE5:
 413              		.align	2
 414              		.globl	_Z11thread_joinP3TCB
 416              	_Z11thread_joinP3TCB:
 417              	.LFB6:
  97:src/syscall_c.cpp **** 
  98:src/syscall_c.cpp **** void thread_join (thread_t handle)
  99:src/syscall_c.cpp **** {
 418              		.loc 1 99 1 is_stmt 1
 419              		.cfi_startproc
 420              	.LVL36:
 421 0168 130101FF 		addi	sp,sp,-16
 422              		.cfi_def_cfa_offset 16
 423 016c 23348100 		sd	s0,8(sp)
 424              		.cfi_offset 8, -8
 425 0170 13040101 		addi	s0,sp,16
 426              		.cfi_def_cfa 8, 0
 100:src/syscall_c.cpp ****     if (handle == nullptr)return;
 427              		.loc 1 100 5
 428 0174 630A0500 		beqz	a0,.L23
 101:src/syscall_c.cpp **** 
 102:src/syscall_c.cpp ****     __asm__ volatile ("mv a1,%0" : :"r" (handle));
 429              		.loc 1 102 5
 430              		.loc 1 102 50 is_stmt 0
 431              	#APP
 432              	# 102 "src/syscall_c.cpp" 1
 103              	
 104:src/syscall_c.cpp ****     sys_call_preparation(THREAD_JOIN);
 433              		mv a1,a0
 434              	# 0 "" 2
 435              		.loc 1 104 5 is_stmt 1
 436              	.LVL37:
 437              	#NO_APP
 438              	.LBB50:
 439              	.LBB51:
  11:src/syscall_c.cpp ****     __asm__ volatile("ecall");
 440              		.loc 1 11 5
  11:src/syscall_c.cpp ****     __asm__ volatile("ecall");
 441              		.loc 1 11 48 is_stmt 0
 442 017c 93074001 		li	a5,20
 443              	#APP
 444              	# 11 "src/syscall_c.cpp" 1
  12:src/syscall_c.cpp **** }
GAS LISTING /tmp/ccB6hzH8.s 			page 11


 445              		mv a0,a5
 446              	# 0 "" 2
 447              		.loc 1 12 5 is_stmt 1
  12:src/syscall_c.cpp **** }
 448              		.loc 1 12 30 is_stmt 0
 449              	# 12 "src/syscall_c.cpp" 1
 450              		ecall
 451              	# 0 "" 2
 452              	.LVL38:
 453              	#NO_APP
 454              	.L23:
 455              	.LBE51:
 456              	.LBE50:
 105:src/syscall_c.cpp **** 
 106:src/syscall_c.cpp **** }
 457              		.loc 1 106 1
 458 0188 03348100 		ld	s0,8(sp)
 459              		.cfi_restore 8
 460              		.cfi_def_cfa 2, 16
 461 018c 13010101 		addi	sp,sp,16
 462              		.cfi_def_cfa_offset 0
 463 0190 67800000 		jr	ra
 464              		.cfi_endproc
 465              	.LFE6:
 467              		.align	2
 468              		.globl	_Z12thread_startP3TCB
 470              	_Z12thread_startP3TCB:
 471              	.LFB7:
 107:src/syscall_c.cpp **** 
 108:src/syscall_c.cpp **** int thread_start (thread_t handle)
 109:src/syscall_c.cpp **** {
 472              		.loc 1 109 1 is_stmt 1
 473              		.cfi_startproc
 474              	.LVL39:
 475 0194 130101FF 		addi	sp,sp,-16
 476              		.cfi_def_cfa_offset 16
 477 0198 23348100 		sd	s0,8(sp)
 478              		.cfi_offset 8, -8
 479 019c 13040101 		addi	s0,sp,16
 480              		.cfi_def_cfa 8, 0
 110:src/syscall_c.cpp ****     if (handle== nullptr) return -1;
 481              		.loc 1 110 5
 482 01a0 63040502 		beqz	a0,.L28
 111:src/syscall_c.cpp **** 
 112:src/syscall_c.cpp ****     __asm__ volatile ("mv a1,%0" : :"r" (handle));
 483              		.loc 1 112 5
 484              		.loc 1 112 50 is_stmt 0
 485              	#APP
 486              	# 112 "src/syscall_c.cpp" 1
 113              	
 114:src/syscall_c.cpp ****     sys_call_preparation(THREAD_START);
 487              		mv a1,a0
 488              	# 0 "" 2
 489              		.loc 1 114 5 is_stmt 1
 490              	.LVL40:
 491              	#NO_APP
 492              	.LBB52:
GAS LISTING /tmp/ccB6hzH8.s 			page 12


 493              	.LBB53:
  11:src/syscall_c.cpp ****     __asm__ volatile("ecall");
 494              		.loc 1 11 5
  11:src/syscall_c.cpp ****     __asm__ volatile("ecall");
 495              		.loc 1 11 48 is_stmt 0
 496 01a8 93075001 		li	a5,21
 497              	#APP
 498              	# 11 "src/syscall_c.cpp" 1
  12:src/syscall_c.cpp **** }
 499              		mv a0,a5
 500              	# 0 "" 2
 501              		.loc 1 12 5 is_stmt 1
  12:src/syscall_c.cpp **** }
 502              		.loc 1 12 30 is_stmt 0
 503              	# 12 "src/syscall_c.cpp" 1
 504              		ecall
 505              	# 0 "" 2
 506              	.LVL41:
 507              	#NO_APP
 508              	.LBE53:
 509              	.LBE52:
 115:src/syscall_c.cpp **** 
 116:src/syscall_c.cpp ****     int result;
 510              		.loc 1 116 5 is_stmt 1
 117:src/syscall_c.cpp **** 
 118:src/syscall_c.cpp ****     __asm__ volatile ("mv %0,a0" :"=r"(result));
 511              		.loc 1 118 5
 512              		.loc 1 118 48 is_stmt 0
 513              	#APP
 514              	# 118 "src/syscall_c.cpp" 1
 119              	    return result;
 515              		mv a0,a0
 516              	# 0 "" 2
 517              	.LVL42:
 518              	#NO_APP
 519 01b8 1B050500 		sext.w	a0,a0
 520              	.LVL43:
 521              		.loc 1 119 5 is_stmt 1
 522              	.L27:
 120:src/syscall_c.cpp **** }
 523              		.loc 1 120 1 is_stmt 0
 524 01bc 03348100 		ld	s0,8(sp)
 525              		.cfi_remember_state
 526              		.cfi_restore 8
 527              		.cfi_def_cfa 2, 16
 528 01c0 13010101 		addi	sp,sp,16
 529              		.cfi_def_cfa_offset 0
 530 01c4 67800000 		jr	ra
 531              	.LVL44:
 532              	.L28:
 533              		.cfi_restore_state
 110:src/syscall_c.cpp **** 
 534              		.loc 1 110 35
 535 01c8 1305F0FF 		li	a0,-1
 536              	.LVL45:
 537 01cc 6FF01FFF 		j	.L27
 538              		.cfi_endproc
GAS LISTING /tmp/ccB6hzH8.s 			page 13


 539              	.LFE7:
 541              		.align	2
 542              		.globl	_Z11thread_makePP3TCBPFvPvES2_
 544              	_Z11thread_makePP3TCBPFvPvES2_:
 545              	.LFB8:
 121:src/syscall_c.cpp **** 
 122:src/syscall_c.cpp **** int thread_make (thread_t* handle,void(*start_routine)(void*),void* arg)
 123:src/syscall_c.cpp **** {
 546              		.loc 1 123 1 is_stmt 1
 547              		.cfi_startproc
 548              	.LVL46:
 124:src/syscall_c.cpp ****     void* stack_space = nullptr;
 549              		.loc 1 124 5
 125:src/syscall_c.cpp ****     if (handle== nullptr) return -1;
 550              		.loc 1 125 5
 551 01d0 63060508 		beqz	a0,.L33
 123:src/syscall_c.cpp ****     void* stack_space = nullptr;
 552              		.loc 1 123 1 is_stmt 0
 553 01d4 130101FD 		addi	sp,sp,-48
 554              		.cfi_def_cfa_offset 48
 555 01d8 23341102 		sd	ra,40(sp)
 556 01dc 23308102 		sd	s0,32(sp)
 557 01e0 233C9100 		sd	s1,24(sp)
 558 01e4 23382101 		sd	s2,16(sp)
 559 01e8 23343101 		sd	s3,8(sp)
 560              		.cfi_offset 1, -8
 561              		.cfi_offset 8, -16
 562              		.cfi_offset 9, -24
 563              		.cfi_offset 18, -32
 564              		.cfi_offset 19, -40
 565 01ec 13040103 		addi	s0,sp,48
 566              		.cfi_def_cfa 8, 0
 567 01f0 93040500 		mv	s1,a0
 568 01f4 13890500 		mv	s2,a1
 569 01f8 93090600 		mv	s3,a2
 126:src/syscall_c.cpp **** 
 127:src/syscall_c.cpp **** 
 128:src/syscall_c.cpp ****     if (start_routine != nullptr){
 570              		.loc 1 128 5 is_stmt 1
 571 01fc 638C0504 		beqz	a1,.L34
 129:src/syscall_c.cpp ****         stack_space = mem_alloc(sizeof(uint64) * DEFAULT_STACK_SIZE);
 572              		.loc 1 129 9
 573              		.loc 1 129 32 is_stmt 0
 574 0200 37850000 		li	a0,32768
 575              	.LVL47:
 576 0204 97000000 		call	_Z9mem_allocm
 576      E7800000 
 577              	.LVL48:
 130:src/syscall_c.cpp **** 
 131:src/syscall_c.cpp ****         if (stack_space== nullptr)return -3;}
 578              		.loc 1 131 9 is_stmt 1
 579 020c 630C0504 		beqz	a0,.L41
 580              	.LVL49:
 581              	.L32:
 132:src/syscall_c.cpp **** 
 133:src/syscall_c.cpp **** 
 134:src/syscall_c.cpp ****     __asm__ volatile ("mv a1,%0" : :"r" (handle));
GAS LISTING /tmp/ccB6hzH8.s 			page 14


 582              		.loc 1 134 5
 583              		.loc 1 134 50 is_stmt 0
 584              	#APP
 585              	# 134 "src/syscall_c.cpp" 1
 135              	    __asm__ volatile ("mv a2,%0" : :"r" (start_routine));
 586              		mv a1,s1
 587              	# 0 "" 2
 588              		.loc 1 135 5 is_stmt 1
 589              		.loc 1 135 57 is_stmt 0
 590              	# 135 "src/syscall_c.cpp" 1
 136              	    __asm__ volatile ("mv a3,%0" : :"r" (arg));
 591              		mv a2,s2
 592              	# 0 "" 2
 593              		.loc 1 136 5 is_stmt 1
 594              		.loc 1 136 47 is_stmt 0
 595              	# 136 "src/syscall_c.cpp" 1
 137              	    __asm__ volatile ("mv a4,%0" : :"r" (stack_space));
 596              		mv a3,s3
 597              	# 0 "" 2
 598              		.loc 1 137 5 is_stmt 1
 599              		.loc 1 137 55 is_stmt 0
 600              	# 137 "src/syscall_c.cpp" 1
 138              	
 139:src/syscall_c.cpp ****     sys_call_preparation(THREAD_MAKE);
 601              		mv a4,a0
 602              	# 0 "" 2
 603              		.loc 1 139 5 is_stmt 1
 604              	.LVL50:
 605              	#NO_APP
 606              	.LBB54:
 607              	.LBB55:
  11:src/syscall_c.cpp ****     __asm__ volatile("ecall");
 608              		.loc 1 11 5
  11:src/syscall_c.cpp ****     __asm__ volatile("ecall");
 609              		.loc 1 11 48 is_stmt 0
 610 0220 93076001 		li	a5,22
 611              	#APP
 612              	# 11 "src/syscall_c.cpp" 1
  12:src/syscall_c.cpp **** }
 613              		mv a0,a5
 614              	# 0 "" 2
 615              		.loc 1 12 5 is_stmt 1
  12:src/syscall_c.cpp **** }
 616              		.loc 1 12 30 is_stmt 0
 617              	# 12 "src/syscall_c.cpp" 1
 618              		ecall
 619              	# 0 "" 2
 620              	.LVL51:
 621              	#NO_APP
 622              	.LBE55:
 623              	.LBE54:
 140:src/syscall_c.cpp **** 
 141:src/syscall_c.cpp ****     if (*handle!= nullptr) return 0;
 624              		.loc 1 141 5 is_stmt 1
 625              		.loc 1 141 9 is_stmt 0
 626 022c 83B70400 		ld	a5,0(s1)
 627              		.loc 1 141 5
GAS LISTING /tmp/ccB6hzH8.s 			page 15


 628 0230 638E0702 		beqz	a5,.L36
 629              		.loc 1 141 35
 630 0234 13050000 		li	a0,0
 631              	.LVL52:
 632              	.L31:
 142:src/syscall_c.cpp ****     else return -4;
 143:src/syscall_c.cpp **** }
 633              		.loc 1 143 1
 634 0238 83308102 		ld	ra,40(sp)
 635              		.cfi_remember_state
 636              		.cfi_restore 1
 637 023c 03340102 		ld	s0,32(sp)
 638              		.cfi_restore 8
 639              		.cfi_def_cfa 2, 48
 640 0240 83348101 		ld	s1,24(sp)
 641              		.cfi_restore 9
 642              	.LVL53:
 643 0244 03390101 		ld	s2,16(sp)
 644              		.cfi_restore 18
 645              	.LVL54:
 646 0248 83398100 		ld	s3,8(sp)
 647              		.cfi_restore 19
 648              	.LVL55:
 649 024c 13010103 		addi	sp,sp,48
 650              		.cfi_def_cfa_offset 0
 651 0250 67800000 		jr	ra
 652              	.LVL56:
 653              	.L34:
 654              		.cfi_restore_state
 124:src/syscall_c.cpp ****     if (handle== nullptr) return -1;
 655              		.loc 1 124 11
 656 0254 13050000 		li	a0,0
 657 0258 6FF09FFB 		j	.L32
 658              	.LVL57:
 659              	.L33:
 660              		.cfi_def_cfa_register 2
 661              		.cfi_restore 1
 662              		.cfi_restore 8
 663              		.cfi_restore 9
 664              		.cfi_restore 18
 665              		.cfi_restore 19
 125:src/syscall_c.cpp **** 
 666              		.loc 1 125 35
 667 025c 1305F0FF 		li	a0,-1
 668              	.LVL58:
 669              		.loc 1 143 1
 670 0260 67800000 		ret
 671              	.LVL59:
 672              	.L41:
 673              		.cfi_def_cfa_register 8
 674              		.cfi_offset 1, -8
 675              		.cfi_offset 8, -16
 676              		.cfi_offset 9, -24
 677              		.cfi_offset 18, -32
 678              		.cfi_offset 19, -40
 131:src/syscall_c.cpp **** 
 679              		.loc 1 131 43
GAS LISTING /tmp/ccB6hzH8.s 			page 16


 680 0264 1305D0FF 		li	a0,-3
 681              	.LVL60:
 682 0268 6FF01FFD 		j	.L31
 683              	.LVL61:
 684              	.L36:
 142:src/syscall_c.cpp **** }
 685              		.loc 1 142 18
 686 026c 1305C0FF 		li	a0,-4
 687              	.LVL62:
 688 0270 6FF09FFC 		j	.L31
 689              		.cfi_endproc
 690              	.LFE8:
 692              		.align	2
 693              		.globl	_Z13thread_deleteP3TCB
 695              	_Z13thread_deleteP3TCB:
 696              	.LFB9:
 144:src/syscall_c.cpp **** 
 145:src/syscall_c.cpp **** void thread_delete(thread_t handle)
 146:src/syscall_c.cpp **** {
 697              		.loc 1 146 1 is_stmt 1
 698              		.cfi_startproc
 699              	.LVL63:
 700 0274 130101FF 		addi	sp,sp,-16
 701              		.cfi_def_cfa_offset 16
 702 0278 23348100 		sd	s0,8(sp)
 703              		.cfi_offset 8, -8
 704 027c 13040101 		addi	s0,sp,16
 705              		.cfi_def_cfa 8, 0
 147:src/syscall_c.cpp ****    if (handle== nullptr)return;
 706              		.loc 1 147 4
 707 0280 630A0500 		beqz	a0,.L42
 148:src/syscall_c.cpp **** 
 149:src/syscall_c.cpp ****     __asm__ volatile ("mv a1,%0" : :"r" (handle));
 708              		.loc 1 149 5
 709              		.loc 1 149 50 is_stmt 0
 710              	#APP
 711              	# 149 "src/syscall_c.cpp" 1
 150              	
 151:src/syscall_c.cpp ****     sys_call_preparation(THREAD_DELETE);
 712              		mv a1,a0
 713              	# 0 "" 2
 714              		.loc 1 151 5 is_stmt 1
 715              	.LVL64:
 716              	#NO_APP
 717              	.LBB56:
 718              	.LBB57:
  11:src/syscall_c.cpp ****     __asm__ volatile("ecall");
 719              		.loc 1 11 5
  11:src/syscall_c.cpp ****     __asm__ volatile("ecall");
 720              		.loc 1 11 48 is_stmt 0
 721 0288 93077001 		li	a5,23
 722              	#APP
 723              	# 11 "src/syscall_c.cpp" 1
  12:src/syscall_c.cpp **** }
 724              		mv a0,a5
 725              	# 0 "" 2
 726              		.loc 1 12 5 is_stmt 1
GAS LISTING /tmp/ccB6hzH8.s 			page 17


  12:src/syscall_c.cpp **** }
 727              		.loc 1 12 30 is_stmt 0
 728              	# 12 "src/syscall_c.cpp" 1
 729              		ecall
 730              	# 0 "" 2
 731              	.LVL65:
 732              	#NO_APP
 733              	.L42:
 734              	.LBE57:
 735              	.LBE56:
 152:src/syscall_c.cpp **** 
 153:src/syscall_c.cpp **** }
 736              		.loc 1 153 1
 737 0294 03348100 		ld	s0,8(sp)
 738              		.cfi_restore 8
 739              		.cfi_def_cfa 2, 16
 740 0298 13010101 		addi	sp,sp,16
 741              		.cfi_def_cfa_offset 0
 742 029c 67800000 		jr	ra
 743              		.cfi_endproc
 744              	.LFE9:
 746              		.align	2
 747              		.globl	_Z8sem_openPP4_semj
 749              	_Z8sem_openPP4_semj:
 750              	.LFB10:
 154:src/syscall_c.cpp **** 
 155:src/syscall_c.cpp **** 
 156:src/syscall_c.cpp **** int sem_open (sem_t* handle,unsigned init)
 157:src/syscall_c.cpp **** {
 751              		.loc 1 157 1 is_stmt 1
 752              		.cfi_startproc
 753              	.LVL66:
 754 02a0 130101FF 		addi	sp,sp,-16
 755              		.cfi_def_cfa_offset 16
 756 02a4 23348100 		sd	s0,8(sp)
 757              		.cfi_offset 8, -8
 758 02a8 13040101 		addi	s0,sp,16
 759              		.cfi_def_cfa 8, 0
 158:src/syscall_c.cpp ****     if (handle== nullptr) return -2;
 760              		.loc 1 158 5
 761 02ac 63080502 		beqz	a0,.L47
 159:src/syscall_c.cpp **** 
 160:src/syscall_c.cpp ****     __asm__ volatile ("mv a2, a1");
 762              		.loc 1 160 5
 763              		.loc 1 160 35 is_stmt 0
 764              	#APP
 765              	# 160 "src/syscall_c.cpp" 1
 161              	    __asm__ volatile ("mv a1, a0");
 766              		mv a2, a1
 767              	# 0 "" 2
 768              		.loc 1 161 5 is_stmt 1
 769              		.loc 1 161 35 is_stmt 0
 770              	# 161 "src/syscall_c.cpp" 1
 162              	
 163:src/syscall_c.cpp ****     sys_call_preparation(SEM_OPEN);
 771              		mv a1, a0
 772              	# 0 "" 2
GAS LISTING /tmp/ccB6hzH8.s 			page 18


 773              		.loc 1 163 5 is_stmt 1
 774              	.LVL67:
 775              	#NO_APP
 776              	.LBB58:
 777              	.LBB59:
  11:src/syscall_c.cpp ****     __asm__ volatile("ecall");
 778              		.loc 1 11 5
  11:src/syscall_c.cpp ****     __asm__ volatile("ecall");
 779              		.loc 1 11 48 is_stmt 0
 780 02b8 93071002 		li	a5,33
 781              	#APP
 782              	# 11 "src/syscall_c.cpp" 1
  12:src/syscall_c.cpp **** }
 783              		mv a0,a5
 784              	# 0 "" 2
 785              		.loc 1 12 5 is_stmt 1
  12:src/syscall_c.cpp **** }
 786              		.loc 1 12 30 is_stmt 0
 787              	# 12 "src/syscall_c.cpp" 1
 788              		ecall
 789              	# 0 "" 2
 790              	.LVL68:
 791              	#NO_APP
 792              	.LBE59:
 793              	.LBE58:
 164:src/syscall_c.cpp **** 
 165:src/syscall_c.cpp ****     if (*handle!= nullptr) return 0;
 794              		.loc 1 165 5 is_stmt 1
 795              		.loc 1 165 9 is_stmt 0
 796 02c4 83370500 		ld	a5,0(a0)
 797              		.loc 1 165 5
 798 02c8 638E0700 		beqz	a5,.L48
 799              		.loc 1 165 35
 800 02cc 13050000 		li	a0,0
 801              	.LVL69:
 802              	.L46:
 166:src/syscall_c.cpp ****     else return -1;
 167:src/syscall_c.cpp **** }
 803              		.loc 1 167 1
 804 02d0 03348100 		ld	s0,8(sp)
 805              		.cfi_remember_state
 806              		.cfi_restore 8
 807              		.cfi_def_cfa 2, 16
 808 02d4 13010101 		addi	sp,sp,16
 809              		.cfi_def_cfa_offset 0
 810 02d8 67800000 		jr	ra
 811              	.LVL70:
 812              	.L47:
 813              		.cfi_restore_state
 158:src/syscall_c.cpp **** 
 814              		.loc 1 158 35
 815 02dc 1305E0FF 		li	a0,-2
 816              	.LVL71:
 817 02e0 6FF01FFF 		j	.L46
 818              	.LVL72:
 819              	.L48:
 166:src/syscall_c.cpp ****     else return -1;
GAS LISTING /tmp/ccB6hzH8.s 			page 19


 820              		.loc 1 166 18
 821 02e4 1305F0FF 		li	a0,-1
 822              	.LVL73:
 823 02e8 6FF09FFE 		j	.L46
 824              		.cfi_endproc
 825              	.LFE10:
 827              		.align	2
 828              		.globl	_Z9sem_closeP4_sem
 830              	_Z9sem_closeP4_sem:
 831              	.LFB11:
 168:src/syscall_c.cpp **** 
 169:src/syscall_c.cpp **** int sem_close (sem_t handle)
 170:src/syscall_c.cpp **** {
 832              		.loc 1 170 1 is_stmt 1
 833              		.cfi_startproc
 834              	.LVL74:
 835 02ec 130101FF 		addi	sp,sp,-16
 836              		.cfi_def_cfa_offset 16
 837 02f0 23348100 		sd	s0,8(sp)
 838              		.cfi_offset 8, -8
 839 02f4 13040101 		addi	s0,sp,16
 840              		.cfi_def_cfa 8, 0
 171:src/syscall_c.cpp ****     if (handle == nullptr) return -2;
 841              		.loc 1 171 5
 842 02f8 63040502 		beqz	a0,.L52
 172:src/syscall_c.cpp **** 
 173:src/syscall_c.cpp ****     __asm__ volatile ("mv a1,%0" : :"r" (handle));
 843              		.loc 1 173 5
 844              		.loc 1 173 50 is_stmt 0
 845              	#APP
 846              	# 173 "src/syscall_c.cpp" 1
 174              	
 175:src/syscall_c.cpp ****     sys_call_preparation(SEM_CLOSE);
 847              		mv a1,a0
 848              	# 0 "" 2
 849              		.loc 1 175 5 is_stmt 1
 850              	.LVL75:
 851              	#NO_APP
 852              	.LBB60:
 853              	.LBB61:
  11:src/syscall_c.cpp ****     __asm__ volatile("ecall");
 854              		.loc 1 11 5
  11:src/syscall_c.cpp ****     __asm__ volatile("ecall");
 855              		.loc 1 11 48 is_stmt 0
 856 0300 93072002 		li	a5,34
 857              	#APP
 858              	# 11 "src/syscall_c.cpp" 1
  12:src/syscall_c.cpp **** }
 859              		mv a0,a5
 860              	# 0 "" 2
 861              		.loc 1 12 5 is_stmt 1
  12:src/syscall_c.cpp **** }
 862              		.loc 1 12 30 is_stmt 0
 863              	# 12 "src/syscall_c.cpp" 1
 864              		ecall
 865              	# 0 "" 2
 866              	.LVL76:
GAS LISTING /tmp/ccB6hzH8.s 			page 20


 867              	#NO_APP
 868              	.LBE61:
 869              	.LBE60:
 176:src/syscall_c.cpp **** 
 177:src/syscall_c.cpp ****     int result;
 870              		.loc 1 177 5 is_stmt 1
 178:src/syscall_c.cpp ****     __asm__ volatile ("mv %0,a0" :"=r"(result));
 871              		.loc 1 178 5
 872              		.loc 1 178 48 is_stmt 0
 873              	#APP
 874              	# 178 "src/syscall_c.cpp" 1
 179              	    return result;
 875              		mv a0,a0
 876              	# 0 "" 2
 877              	.LVL77:
 878              	#NO_APP
 879 0310 1B050500 		sext.w	a0,a0
 880              	.LVL78:
 881              		.loc 1 179 5 is_stmt 1
 882              	.L51:
 180:src/syscall_c.cpp **** }
 883              		.loc 1 180 1 is_stmt 0
 884 0314 03348100 		ld	s0,8(sp)
 885              		.cfi_remember_state
 886              		.cfi_restore 8
 887              		.cfi_def_cfa 2, 16
 888 0318 13010101 		addi	sp,sp,16
 889              		.cfi_def_cfa_offset 0
 890 031c 67800000 		jr	ra
 891              	.LVL79:
 892              	.L52:
 893              		.cfi_restore_state
 171:src/syscall_c.cpp **** 
 894              		.loc 1 171 36
 895 0320 1305E0FF 		li	a0,-2
 896              	.LVL80:
 897 0324 6FF01FFF 		j	.L51
 898              		.cfi_endproc
 899              	.LFE11:
 901              		.align	2
 902              		.globl	_Z8sem_waitP4_sem
 904              	_Z8sem_waitP4_sem:
 905              	.LFB12:
 181:src/syscall_c.cpp **** 
 182:src/syscall_c.cpp **** int sem_wait (sem_t id)
 183:src/syscall_c.cpp **** {
 906              		.loc 1 183 1 is_stmt 1
 907              		.cfi_startproc
 908              	.LVL81:
 909 0328 130101FF 		addi	sp,sp,-16
 910              		.cfi_def_cfa_offset 16
 911 032c 23348100 		sd	s0,8(sp)
 912              		.cfi_offset 8, -8
 913 0330 13040101 		addi	s0,sp,16
 914              		.cfi_def_cfa 8, 0
 184:src/syscall_c.cpp ****     if (id== nullptr)return -2;
 915              		.loc 1 184 5
GAS LISTING /tmp/ccB6hzH8.s 			page 21


 916 0334 63040502 		beqz	a0,.L56
 185:src/syscall_c.cpp **** 
 186:src/syscall_c.cpp ****     __asm__ volatile ("mv a1,%0" : :"r" (id));
 917              		.loc 1 186 5
 918              		.loc 1 186 46 is_stmt 0
 919              	#APP
 920              	# 186 "src/syscall_c.cpp" 1
 187              	
 188:src/syscall_c.cpp ****     sys_call_preparation(SEM_WAIT);
 921              		mv a1,a0
 922              	# 0 "" 2
 923              		.loc 1 188 5 is_stmt 1
 924              	.LVL82:
 925              	#NO_APP
 926              	.LBB62:
 927              	.LBB63:
  11:src/syscall_c.cpp ****     __asm__ volatile("ecall");
 928              		.loc 1 11 5
  11:src/syscall_c.cpp ****     __asm__ volatile("ecall");
 929              		.loc 1 11 48 is_stmt 0
 930 033c 93073002 		li	a5,35
 931              	#APP
 932              	# 11 "src/syscall_c.cpp" 1
  12:src/syscall_c.cpp **** }
 933              		mv a0,a5
 934              	# 0 "" 2
 935              		.loc 1 12 5 is_stmt 1
  12:src/syscall_c.cpp **** }
 936              		.loc 1 12 30 is_stmt 0
 937              	# 12 "src/syscall_c.cpp" 1
 938              		ecall
 939              	# 0 "" 2
 940              	.LVL83:
 941              	#NO_APP
 942              	.LBE63:
 943              	.LBE62:
 189:src/syscall_c.cpp **** 
 190:src/syscall_c.cpp ****     int result;
 944              		.loc 1 190 5 is_stmt 1
 191:src/syscall_c.cpp ****     __asm__ volatile ("mv %0,a0" :"=r"(result));
 945              		.loc 1 191 5
 946              		.loc 1 191 48 is_stmt 0
 947              	#APP
 948              	# 191 "src/syscall_c.cpp" 1
 192              	    return result;
 949              		mv a0,a0
 950              	# 0 "" 2
 951              	.LVL84:
 952              	#NO_APP
 953 034c 1B050500 		sext.w	a0,a0
 954              	.LVL85:
 955              		.loc 1 192 5 is_stmt 1
 956              	.L55:
 193:src/syscall_c.cpp **** 
 194:src/syscall_c.cpp **** }
 957              		.loc 1 194 1 is_stmt 0
 958 0350 03348100 		ld	s0,8(sp)
GAS LISTING /tmp/ccB6hzH8.s 			page 22


 959              		.cfi_remember_state
 960              		.cfi_restore 8
 961              		.cfi_def_cfa 2, 16
 962 0354 13010101 		addi	sp,sp,16
 963              		.cfi_def_cfa_offset 0
 964 0358 67800000 		jr	ra
 965              	.LVL86:
 966              	.L56:
 967              		.cfi_restore_state
 184:src/syscall_c.cpp **** 
 968              		.loc 1 184 30
 969 035c 1305E0FF 		li	a0,-2
 970              	.LVL87:
 971 0360 6FF01FFF 		j	.L55
 972              		.cfi_endproc
 973              	.LFE12:
 975              		.align	2
 976              		.globl	_Z10sem_signalP4_sem
 978              	_Z10sem_signalP4_sem:
 979              	.LFB13:
 195:src/syscall_c.cpp **** 
 196:src/syscall_c.cpp **** int sem_signal (sem_t id)
 197:src/syscall_c.cpp **** {
 980              		.loc 1 197 1 is_stmt 1
 981              		.cfi_startproc
 982              	.LVL88:
 983 0364 130101FF 		addi	sp,sp,-16
 984              		.cfi_def_cfa_offset 16
 985 0368 23348100 		sd	s0,8(sp)
 986              		.cfi_offset 8, -8
 987 036c 13040101 		addi	s0,sp,16
 988              		.cfi_def_cfa 8, 0
 198:src/syscall_c.cpp ****     if (id== nullptr)return -2;
 989              		.loc 1 198 5
 990 0370 63040502 		beqz	a0,.L60
 199:src/syscall_c.cpp **** 
 200:src/syscall_c.cpp ****     __asm__ volatile ("mv a1,%0" : :"r" (id));
 991              		.loc 1 200 5
 992              		.loc 1 200 46 is_stmt 0
 993              	#APP
 994              	# 200 "src/syscall_c.cpp" 1
 201              	
 202:src/syscall_c.cpp ****     sys_call_preparation(SEM_SIGNAL);
 995              		mv a1,a0
 996              	# 0 "" 2
 997              		.loc 1 202 5 is_stmt 1
 998              	.LVL89:
 999              	#NO_APP
 1000              	.LBB64:
 1001              	.LBB65:
  11:src/syscall_c.cpp ****     __asm__ volatile("ecall");
 1002              		.loc 1 11 5
  11:src/syscall_c.cpp ****     __asm__ volatile("ecall");
 1003              		.loc 1 11 48 is_stmt 0
 1004 0378 93074002 		li	a5,36
 1005              	#APP
 1006              	# 11 "src/syscall_c.cpp" 1
GAS LISTING /tmp/ccB6hzH8.s 			page 23


  12:src/syscall_c.cpp **** }
 1007              		mv a0,a5
 1008              	# 0 "" 2
 1009              		.loc 1 12 5 is_stmt 1
  12:src/syscall_c.cpp **** }
 1010              		.loc 1 12 30 is_stmt 0
 1011              	# 12 "src/syscall_c.cpp" 1
 1012              		ecall
 1013              	# 0 "" 2
 1014              	.LVL90:
 1015              	#NO_APP
 1016              	.LBE65:
 1017              	.LBE64:
 203:src/syscall_c.cpp **** 
 204:src/syscall_c.cpp ****     int result;
 1018              		.loc 1 204 5 is_stmt 1
 205:src/syscall_c.cpp ****     __asm__ volatile ("mv %0,a0" :"=r"(result));
 1019              		.loc 1 205 5
 1020              		.loc 1 205 48 is_stmt 0
 1021              	#APP
 1022              	# 205 "src/syscall_c.cpp" 1
 206              	    return result;
 1023              		mv a0,a0
 1024              	# 0 "" 2
 1025              	.LVL91:
 1026              	#NO_APP
 1027 0388 1B050500 		sext.w	a0,a0
 1028              	.LVL92:
 1029              		.loc 1 206 5 is_stmt 1
 1030              	.L59:
 207:src/syscall_c.cpp **** 
 208:src/syscall_c.cpp **** }
 1031              		.loc 1 208 1 is_stmt 0
 1032 038c 03348100 		ld	s0,8(sp)
 1033              		.cfi_remember_state
 1034              		.cfi_restore 8
 1035              		.cfi_def_cfa 2, 16
 1036 0390 13010101 		addi	sp,sp,16
 1037              		.cfi_def_cfa_offset 0
 1038 0394 67800000 		jr	ra
 1039              	.LVL93:
 1040              	.L60:
 1041              		.cfi_restore_state
 198:src/syscall_c.cpp **** 
 1042              		.loc 1 198 30
 1043 0398 1305E0FF 		li	a0,-2
 1044              	.LVL94:
 1045 039c 6FF01FFF 		j	.L59
 1046              		.cfi_endproc
 1047              	.LFE13:
 1049              		.align	2
 1050              		.globl	_Z10time_sleepm
 1052              	_Z10time_sleepm:
 1053              	.LFB14:
 209:src/syscall_c.cpp **** 
 210:src/syscall_c.cpp **** int time_sleep (time_t vreme)
 211:src/syscall_c.cpp **** {
GAS LISTING /tmp/ccB6hzH8.s 			page 24


 1054              		.loc 1 211 1 is_stmt 1
 1055              		.cfi_startproc
 1056              	.LVL95:
 1057 03a0 130101FF 		addi	sp,sp,-16
 1058              		.cfi_def_cfa_offset 16
 1059 03a4 23348100 		sd	s0,8(sp)
 1060              		.cfi_offset 8, -8
 1061 03a8 13040101 		addi	s0,sp,16
 1062              		.cfi_def_cfa 8, 0
 212:src/syscall_c.cpp ****     if (vreme==0)return -1; //Ovo je jedini moguci izvor greske,tako da ako on prodje onda sigurno 
 1063              		.loc 1 212 5
 1064 03ac 63020502 		beqz	a0,.L64
 213:src/syscall_c.cpp **** 
 214:src/syscall_c.cpp ****     __asm__ volatile ("mv a1,%0" : :"r" (vreme));
 1065              		.loc 1 214 5
 1066              		.loc 1 214 49 is_stmt 0
 1067              	#APP
 1068              	# 214 "src/syscall_c.cpp" 1
 215              	
 216:src/syscall_c.cpp ****     sys_call_preparation(TIME_SLEEP);
 1069              		mv a1,a0
 1070              	# 0 "" 2
 1071              		.loc 1 216 5 is_stmt 1
 1072              	.LVL96:
 1073              	#NO_APP
 1074              	.LBB66:
 1075              	.LBB67:
  11:src/syscall_c.cpp ****     __asm__ volatile("ecall");
 1076              		.loc 1 11 5
  11:src/syscall_c.cpp ****     __asm__ volatile("ecall");
 1077              		.loc 1 11 48 is_stmt 0
 1078 03b4 93071003 		li	a5,49
 1079              	#APP
 1080              	# 11 "src/syscall_c.cpp" 1
  12:src/syscall_c.cpp **** }
 1081              		mv a0,a5
 1082              	# 0 "" 2
 1083              		.loc 1 12 5 is_stmt 1
  12:src/syscall_c.cpp **** }
 1084              		.loc 1 12 30 is_stmt 0
 1085              	# 12 "src/syscall_c.cpp" 1
 1086              		ecall
 1087              	# 0 "" 2
 1088              	.LVL97:
 1089              	#NO_APP
 1090              	.LBE67:
 1091              	.LBE66:
 217:src/syscall_c.cpp **** 
 218:src/syscall_c.cpp ****    return 0;
 1092              		.loc 1 218 4 is_stmt 1
 1093              		.loc 1 218 11 is_stmt 0
 1094 03c0 13050000 		li	a0,0
 1095              	.LVL98:
 1096              	.L63:
 219:src/syscall_c.cpp **** 
 220:src/syscall_c.cpp **** 
 221:src/syscall_c.cpp **** }
GAS LISTING /tmp/ccB6hzH8.s 			page 25


 1097              		.loc 1 221 1
 1098 03c4 03348100 		ld	s0,8(sp)
 1099              		.cfi_remember_state
 1100              		.cfi_restore 8
 1101              		.cfi_def_cfa 2, 16
 1102 03c8 13010101 		addi	sp,sp,16
 1103              		.cfi_def_cfa_offset 0
 1104 03cc 67800000 		jr	ra
 1105              	.LVL99:
 1106              	.L64:
 1107              		.cfi_restore_state
 212:src/syscall_c.cpp **** 
 1108              		.loc 1 212 26
 1109 03d0 1305F0FF 		li	a0,-1
 1110              	.LVL100:
 1111 03d4 6FF01FFF 		j	.L63
 1112              		.cfi_endproc
 1113              	.LFE14:
 1115              		.align	2
 1116              		.globl	_Z4getcv
 1118              	_Z4getcv:
 1119              	.LFB15:
 222:src/syscall_c.cpp **** 
 223:src/syscall_c.cpp **** 
 224:src/syscall_c.cpp **** char getc ()
 225:src/syscall_c.cpp **** {
 1120              		.loc 1 225 1 is_stmt 1
 1121              		.cfi_startproc
 1122 03d8 130101FF 		addi	sp,sp,-16
 1123              		.cfi_def_cfa_offset 16
 1124 03dc 23348100 		sd	s0,8(sp)
 1125              		.cfi_offset 8, -8
 1126 03e0 13040101 		addi	s0,sp,16
 1127              		.cfi_def_cfa 8, 0
 226:src/syscall_c.cpp **** 
 227:src/syscall_c.cpp ****     sys_call_preparation(GETC);
 1128              		.loc 1 227 5
 1129              	.LVL101:
 1130              	.LBB68:
 1131              	.LBB69:
  11:src/syscall_c.cpp ****     __asm__ volatile("ecall");
 1132              		.loc 1 11 5
  11:src/syscall_c.cpp ****     __asm__ volatile("ecall");
 1133              		.loc 1 11 48 is_stmt 0
 1134 03e4 93071004 		li	a5,65
 1135              	#APP
 1136              	# 11 "src/syscall_c.cpp" 1
  12:src/syscall_c.cpp **** }
 1137              		mv a0,a5
 1138              	# 0 "" 2
 1139              		.loc 1 12 5 is_stmt 1
  12:src/syscall_c.cpp **** }
 1140              		.loc 1 12 30 is_stmt 0
 1141              	# 12 "src/syscall_c.cpp" 1
 1142              		ecall
 1143              	# 0 "" 2
 1144              	.LVL102:
GAS LISTING /tmp/ccB6hzH8.s 			page 26


 1145              	#NO_APP
 1146              	.LBE69:
 1147              	.LBE68:
 228:src/syscall_c.cpp **** 
 229:src/syscall_c.cpp ****     char karakter;
 1148              		.loc 1 229 5 is_stmt 1
 230:src/syscall_c.cpp ****     __asm__ volatile ("mv %0,a0" :"=r"(karakter));
 1149              		.loc 1 230 5
 1150              		.loc 1 230 50 is_stmt 0
 1151              	#APP
 1152              	# 230 "src/syscall_c.cpp" 1
 231              	    return karakter;
 1153              		mv a0,a0
 1154              	# 0 "" 2
 1155              	.LVL103:
 1156              		.loc 1 231 5 is_stmt 1
 232:src/syscall_c.cpp **** }
 1157              		.loc 1 232 1 is_stmt 0
 1158              	#NO_APP
 1159 03f4 1375F50F 		andi	a0,a0,0xff
 1160 03f8 03348100 		ld	s0,8(sp)
 1161              		.cfi_restore 8
 1162              		.cfi_def_cfa 2, 16
 1163 03fc 13010101 		addi	sp,sp,16
 1164              		.cfi_def_cfa_offset 0
 1165 0400 67800000 		jr	ra
 1166              		.cfi_endproc
 1167              	.LFE15:
 1169              		.align	2
 1170              		.globl	_Z4putcc
 1172              	_Z4putcc:
 1173              	.LFB16:
 233:src/syscall_c.cpp **** 
 234:src/syscall_c.cpp **** 
 235:src/syscall_c.cpp **** void putc (char c)
 236:src/syscall_c.cpp **** {
 1174              		.loc 1 236 1 is_stmt 1
 1175              		.cfi_startproc
 1176              	.LVL104:
 1177 0404 130101FF 		addi	sp,sp,-16
 1178              		.cfi_def_cfa_offset 16
 1179 0408 23348100 		sd	s0,8(sp)
 1180              		.cfi_offset 8, -8
 1181 040c 13040101 		addi	s0,sp,16
 1182              		.cfi_def_cfa 8, 0
 237:src/syscall_c.cpp ****     __asm__ volatile ("mv a1,%0" : :"r" (c));
 1183              		.loc 1 237 5
 1184              		.loc 1 237 45 is_stmt 0
 1185              	#APP
 1186              	# 237 "src/syscall_c.cpp" 1
 238              	
 239:src/syscall_c.cpp ****     sys_call_preparation(PUTC);
 1187              		mv a1,a0
 1188              	# 0 "" 2
 1189              		.loc 1 239 5 is_stmt 1
 1190              	.LVL105:
 1191              	#NO_APP
GAS LISTING /tmp/ccB6hzH8.s 			page 27


 1192              	.LBB70:
 1193              	.LBB71:
  11:src/syscall_c.cpp ****     __asm__ volatile("ecall");
 1194              		.loc 1 11 5
  11:src/syscall_c.cpp ****     __asm__ volatile("ecall");
 1195              		.loc 1 11 48 is_stmt 0
 1196 0414 93072004 		li	a5,66
 1197              	#APP
 1198              	# 11 "src/syscall_c.cpp" 1
  12:src/syscall_c.cpp **** }
 1199              		mv a0,a5
 1200              	# 0 "" 2
 1201              		.loc 1 12 5 is_stmt 1
  12:src/syscall_c.cpp **** }
 1202              		.loc 1 12 30 is_stmt 0
 1203              	# 12 "src/syscall_c.cpp" 1
 1204              		ecall
 1205              	# 0 "" 2
 1206              	.LVL106:
 1207              	#NO_APP
 1208              	.LBE71:
 1209              	.LBE70:
 240:src/syscall_c.cpp **** 
 241:src/syscall_c.cpp **** }...
 1210              		.loc 1 241 1
 1211 0420 03348100 		ld	s0,8(sp)
 1212              		.cfi_restore 8
 1213              		.cfi_def_cfa 2, 16
 1214 0424 13010101 		addi	sp,sp,16
 1215              		.cfi_def_cfa_offset 0
 1216 0428 67800000 		jr	ra
 1217              		.cfi_endproc
 1218              	.LFE16:
 1220              	.Letext0:
 1221              		.file 2 "src/../h/../lib/hw.h"
 1222              		.file 3 "src/../h/syscall_c.h"
GAS LISTING /tmp/ccB6hzH8.s 			page 28


DEFINED SYMBOLS
                            *ABS*:0000000000000000 syscall_c.cpp
     /tmp/ccB6hzH8.s:9      .text:0000000000000000 _Z9mem_allocm
     /tmp/ccB6hzH8.s:13     .text:0000000000000000 .L0 
     /tmp/ccB6hzH8.s:15     .text:0000000000000000 .L0 
     /tmp/ccB6hzH8.s:16     .text:0000000000000004 .L0 
     /tmp/ccB6hzH8.s:18     .text:0000000000000008 .L0 
     /tmp/ccB6hzH8.s:20     .text:000000000000000c .L0 
     /tmp/ccB6hzH8.s:23     .text:000000000000000c .L0 
     /tmp/ccB6hzH8.s:24     .text:000000000000000c .L0 
     /tmp/ccB6hzH8.s:25     .text:000000000000000c .L0 
     /tmp/ccB6hzH8.s:27     .text:0000000000000010 .L0 
     /tmp/ccB6hzH8.s:29     .text:0000000000000014 .L0 
     /tmp/ccB6hzH8.s:30     .text:0000000000000014 .L0 
     /tmp/ccB6hzH8.s:34     .text:0000000000000018 .L0 
   src/syscall_c.cpp:28     .text:0000000000000018 .L0 
     /tmp/ccB6hzH8.s:44     .text:000000000000001c .L0 
     /tmp/ccB6hzH8.s:45     .text:000000000000001c .L0 
     /tmp/ccB6hzH8.s:46     .text:000000000000001c .L0 
     /tmp/ccB6hzH8.s:52     .text:0000000000000024 .L0 
   src/syscall_c.cpp:12     .text:0000000000000024 .L0 
     /tmp/ccB6hzH8.s:61     .text:0000000000000028 .L0 
     /tmp/ccB6hzH8.s:62     .text:0000000000000028 .L0 
   src/syscall_c.cpp:35     .text:0000000000000028 .L0 
     /tmp/ccB6hzH8.s:69     .text:000000000000002c .L0 
     /tmp/ccB6hzH8.s:71     .text:000000000000002c .L0 
     /tmp/ccB6hzH8.s:72     .text:0000000000000030 .L0 
     /tmp/ccB6hzH8.s:73     .text:0000000000000030 .L0 
     /tmp/ccB6hzH8.s:74     .text:0000000000000030 .L0 
     /tmp/ccB6hzH8.s:76     .text:0000000000000034 .L0 
     /tmp/ccB6hzH8.s:80     .text:0000000000000038 .L0 
     /tmp/ccB6hzH8.s:82     .text:0000000000000038 .L0 
     /tmp/ccB6hzH8.s:83     .text:0000000000000038 .L0 
     /tmp/ccB6hzH8.s:86     .text:000000000000003c .L0 
     /tmp/ccB6hzH8.s:87     .text:000000000000003c .L0 
     /tmp/ccB6hzH8.s:90     .text:0000000000000044 .L0 
     /tmp/ccB6hzH8.s:96     .text:0000000000000044 _Z8mem_freePv
     /tmp/ccB6hzH8.s:99     .text:0000000000000044 .L0 
     /tmp/ccB6hzH8.s:101    .text:0000000000000044 .L0 
     /tmp/ccB6hzH8.s:102    .text:0000000000000048 .L0 
     /tmp/ccB6hzH8.s:104    .text:000000000000004c .L0 
     /tmp/ccB6hzH8.s:106    .text:0000000000000050 .L0 
     /tmp/ccB6hzH8.s:108    .text:0000000000000050 .L0 
   src/syscall_c.cpp:43     .text:0000000000000050 .L0 
     /tmp/ccB6hzH8.s:118    .text:0000000000000054 .L0 
     /tmp/ccB6hzH8.s:119    .text:0000000000000054 .L0 
     /tmp/ccB6hzH8.s:120    .text:0000000000000054 .L0 
     /tmp/ccB6hzH8.s:126    .text:000000000000005c .L0 
   src/syscall_c.cpp:12     .text:000000000000005c .L0 
     /tmp/ccB6hzH8.s:135    .text:0000000000000060 .L0 
     /tmp/ccB6hzH8.s:136    .text:0000000000000060 .L0 
   src/syscall_c.cpp:50     .text:0000000000000060 .L0 
     /tmp/ccB6hzH8.s:143    .text:0000000000000064 .L0 
     /tmp/ccB6hzH8.s:145    .text:0000000000000064 .L0 
     /tmp/ccB6hzH8.s:147    .text:000000000000006c .L0 
     /tmp/ccB6hzH8.s:148    .text:000000000000006c .L0 
     /tmp/ccB6hzH8.s:150    .text:0000000000000070 .L0 
GAS LISTING /tmp/ccB6hzH8.s 			page 29


     /tmp/ccB6hzH8.s:152    .text:0000000000000074 .L0 
     /tmp/ccB6hzH8.s:158    .text:0000000000000074 _Z13thread_createPP3TCBPFvPvES2_
     /tmp/ccB6hzH8.s:161    .text:0000000000000074 .L0 
     /tmp/ccB6hzH8.s:163    .text:0000000000000074 .L0 
     /tmp/ccB6hzH8.s:164    .text:0000000000000074 .L0 
     /tmp/ccB6hzH8.s:165    .text:0000000000000074 .L0 
     /tmp/ccB6hzH8.s:167    .text:0000000000000078 .L0 
     /tmp/ccB6hzH8.s:168    .text:000000000000007c .L0 
     /tmp/ccB6hzH8.s:174    .text:0000000000000090 .L0 
     /tmp/ccB6hzH8.s:175    .text:0000000000000090 .L0 
     /tmp/ccB6hzH8.s:176    .text:0000000000000090 .L0 
     /tmp/ccB6hzH8.s:177    .text:0000000000000090 .L0 
     /tmp/ccB6hzH8.s:178    .text:0000000000000090 .L0 
     /tmp/ccB6hzH8.s:180    .text:0000000000000094 .L0 
     /tmp/ccB6hzH8.s:186    .text:00000000000000a0 .L0 
     /tmp/ccB6hzH8.s:190    .text:00000000000000a4 .L0 
     /tmp/ccB6hzH8.s:191    .text:00000000000000a4 .L0 
     /tmp/ccB6hzH8.s:192    .text:00000000000000a4 .L0 
     /tmp/ccB6hzH8.s:197    .text:00000000000000b0 .L0 
     /tmp/ccB6hzH8.s:203    .text:00000000000000b4 .L0 
   src/syscall_c.cpp:70     .text:00000000000000b4 .L0 
     /tmp/ccB6hzH8.s:209    .text:00000000000000b8 .L0 
   src/syscall_c.cpp:71     .text:00000000000000b8 .L0 
     /tmp/ccB6hzH8.s:214    .text:00000000000000bc .L0 
   src/syscall_c.cpp:72     .text:00000000000000bc .L0 
     /tmp/ccB6hzH8.s:219    .text:00000000000000c0 .L0 
   src/syscall_c.cpp:73     .text:00000000000000c0 .L0 
     /tmp/ccB6hzH8.s:228    .text:00000000000000c4 .L0 
     /tmp/ccB6hzH8.s:229    .text:00000000000000c4 .L0 
     /tmp/ccB6hzH8.s:230    .text:00000000000000c4 .L0 
     /tmp/ccB6hzH8.s:236    .text:00000000000000cc .L0 
   src/syscall_c.cpp:12     .text:00000000000000cc .L0 
     /tmp/ccB6hzH8.s:245    .text:00000000000000d0 .L0 
     /tmp/ccB6hzH8.s:246    .text:00000000000000d0 .L0 
     /tmp/ccB6hzH8.s:248    .text:00000000000000d4 .L0 
     /tmp/ccB6hzH8.s:250    .text:00000000000000d8 .L0 
     /tmp/ccB6hzH8.s:254    .text:00000000000000dc .L0 
     /tmp/ccB6hzH8.s:255    .text:00000000000000e0 .L0 
     /tmp/ccB6hzH8.s:256    .text:00000000000000e0 .L0 
     /tmp/ccB6hzH8.s:258    .text:00000000000000e4 .L0 
     /tmp/ccB6hzH8.s:259    .text:00000000000000e4 .L0 
     /tmp/ccB6hzH8.s:261    .text:00000000000000e8 .L0 
     /tmp/ccB6hzH8.s:264    .text:00000000000000ec .L0 
     /tmp/ccB6hzH8.s:267    .text:00000000000000f0 .L0 
     /tmp/ccB6hzH8.s:270    .text:00000000000000f4 .L0 
     /tmp/ccB6hzH8.s:274    .text:00000000000000f8 .L0 
     /tmp/ccB6hzH8.s:276    .text:00000000000000f8 .L0 
     /tmp/ccB6hzH8.s:280    .text:0000000000000100 .L0 
     /tmp/ccB6hzH8.s:281    .text:0000000000000100 .L0 
     /tmp/ccB6hzH8.s:282    .text:0000000000000100 .L0 
     /tmp/ccB6hzH8.s:283    .text:0000000000000100 .L0 
     /tmp/ccB6hzH8.s:284    .text:0000000000000100 .L0 
     /tmp/ccB6hzH8.s:285    .text:0000000000000100 .L0 
     /tmp/ccB6hzH8.s:287    .text:0000000000000100 .L0 
     /tmp/ccB6hzH8.s:290    .text:0000000000000104 .L0 
     /tmp/ccB6hzH8.s:293    .text:0000000000000108 .L0 
     /tmp/ccB6hzH8.s:294    .text:0000000000000108 .L0 
GAS LISTING /tmp/ccB6hzH8.s 			page 30


     /tmp/ccB6hzH8.s:295    .text:0000000000000108 .L0 
     /tmp/ccB6hzH8.s:296    .text:0000000000000108 .L0 
     /tmp/ccB6hzH8.s:297    .text:0000000000000108 .L0 
     /tmp/ccB6hzH8.s:298    .text:0000000000000108 .L0 
     /tmp/ccB6hzH8.s:302    .text:0000000000000108 .L0 
     /tmp/ccB6hzH8.s:310    .text:0000000000000110 .L0 
     /tmp/ccB6hzH8.s:313    .text:0000000000000118 .L0 
     /tmp/ccB6hzH8.s:319    .text:0000000000000118 _Z11thread_exitv
     /tmp/ccB6hzH8.s:322    .text:0000000000000118 .L0 
     /tmp/ccB6hzH8.s:323    .text:0000000000000118 .L0 
     /tmp/ccB6hzH8.s:324    .text:000000000000011c .L0 
     /tmp/ccB6hzH8.s:326    .text:0000000000000120 .L0 
     /tmp/ccB6hzH8.s:328    .text:0000000000000124 .L0 
     /tmp/ccB6hzH8.s:333    .text:0000000000000124 .L0 
     /tmp/ccB6hzH8.s:334    .text:0000000000000124 .L0 
     /tmp/ccB6hzH8.s:335    .text:0000000000000124 .L0 
     /tmp/ccB6hzH8.s:341    .text:000000000000012c .L0 
   src/syscall_c.cpp:12     .text:000000000000012c .L0 
     /tmp/ccB6hzH8.s:350    .text:0000000000000130 .L0 
     /tmp/ccB6hzH8.s:351    .text:0000000000000130 .L0 
   src/syscall_c.cpp:89     .text:0000000000000130 .L0 
     /tmp/ccB6hzH8.s:358    .text:0000000000000134 .L0 
     /tmp/ccB6hzH8.s:360    .text:0000000000000134 .L0 
     /tmp/ccB6hzH8.s:362    .text:000000000000013c .L0 
     /tmp/ccB6hzH8.s:363    .text:000000000000013c .L0 
     /tmp/ccB6hzH8.s:365    .text:0000000000000140 .L0 
     /tmp/ccB6hzH8.s:367    .text:0000000000000144 .L0 
     /tmp/ccB6hzH8.s:373    .text:0000000000000144 _Z15thread_dispatchv
     /tmp/ccB6hzH8.s:376    .text:0000000000000144 .L0 
     /tmp/ccB6hzH8.s:377    .text:0000000000000144 .L0 
     /tmp/ccB6hzH8.s:378    .text:0000000000000148 .L0 
     /tmp/ccB6hzH8.s:380    .text:000000000000014c .L0 
     /tmp/ccB6hzH8.s:382    .text:0000000000000150 .L0 
     /tmp/ccB6hzH8.s:387    .text:0000000000000150 .L0 
     /tmp/ccB6hzH8.s:388    .text:0000000000000150 .L0 
     /tmp/ccB6hzH8.s:389    .text:0000000000000150 .L0 
     /tmp/ccB6hzH8.s:395    .text:0000000000000158 .L0 
   src/syscall_c.cpp:12     .text:0000000000000158 .L0 
     /tmp/ccB6hzH8.s:404    .text:000000000000015c .L0 
     /tmp/ccB6hzH8.s:405    .text:0000000000000160 .L0 
     /tmp/ccB6hzH8.s:406    .text:0000000000000160 .L0 
     /tmp/ccB6hzH8.s:408    .text:0000000000000164 .L0 
     /tmp/ccB6hzH8.s:410    .text:0000000000000168 .L0 
     /tmp/ccB6hzH8.s:416    .text:0000000000000168 _Z11thread_joinP3TCB
     /tmp/ccB6hzH8.s:419    .text:0000000000000168 .L0 
     /tmp/ccB6hzH8.s:421    .text:0000000000000168 .L0 
     /tmp/ccB6hzH8.s:422    .text:000000000000016c .L0 
     /tmp/ccB6hzH8.s:424    .text:0000000000000170 .L0 
     /tmp/ccB6hzH8.s:426    .text:0000000000000174 .L0 
     /tmp/ccB6hzH8.s:428    .text:0000000000000174 .L0 
     /tmp/ccB6hzH8.s:430    .text:0000000000000178 .L0 
   src/syscall_c.cpp:102    .text:0000000000000178 .L0 
     /tmp/ccB6hzH8.s:440    .text:000000000000017c .L0 
     /tmp/ccB6hzH8.s:441    .text:000000000000017c .L0 
     /tmp/ccB6hzH8.s:442    .text:000000000000017c .L0 
     /tmp/ccB6hzH8.s:448    .text:0000000000000184 .L0 
   src/syscall_c.cpp:12     .text:0000000000000184 .L0 
GAS LISTING /tmp/ccB6hzH8.s 			page 31


     /tmp/ccB6hzH8.s:458    .text:0000000000000188 .L0 
     /tmp/ccB6hzH8.s:459    .text:000000000000018c .L0 
     /tmp/ccB6hzH8.s:460    .text:000000000000018c .L0 
     /tmp/ccB6hzH8.s:462    .text:0000000000000190 .L0 
     /tmp/ccB6hzH8.s:464    .text:0000000000000194 .L0 
     /tmp/ccB6hzH8.s:470    .text:0000000000000194 _Z12thread_startP3TCB
     /tmp/ccB6hzH8.s:473    .text:0000000000000194 .L0 
     /tmp/ccB6hzH8.s:475    .text:0000000000000194 .L0 
     /tmp/ccB6hzH8.s:476    .text:0000000000000198 .L0 
     /tmp/ccB6hzH8.s:478    .text:000000000000019c .L0 
     /tmp/ccB6hzH8.s:480    .text:00000000000001a0 .L0 
     /tmp/ccB6hzH8.s:482    .text:00000000000001a0 .L0 
     /tmp/ccB6hzH8.s:484    .text:00000000000001a4 .L0 
   src/syscall_c.cpp:112    .text:00000000000001a4 .L0 
     /tmp/ccB6hzH8.s:494    .text:00000000000001a8 .L0 
     /tmp/ccB6hzH8.s:495    .text:00000000000001a8 .L0 
     /tmp/ccB6hzH8.s:496    .text:00000000000001a8 .L0 
     /tmp/ccB6hzH8.s:502    .text:00000000000001b0 .L0 
   src/syscall_c.cpp:12     .text:00000000000001b0 .L0 
     /tmp/ccB6hzH8.s:511    .text:00000000000001b4 .L0 
     /tmp/ccB6hzH8.s:512    .text:00000000000001b4 .L0 
   src/syscall_c.cpp:118    .text:00000000000001b4 .L0 
     /tmp/ccB6hzH8.s:523    .text:00000000000001bc .L0 
     /tmp/ccB6hzH8.s:524    .text:00000000000001bc .L0 
     /tmp/ccB6hzH8.s:525    .text:00000000000001c0 .L0 
     /tmp/ccB6hzH8.s:526    .text:00000000000001c0 .L0 
     /tmp/ccB6hzH8.s:527    .text:00000000000001c0 .L0 
     /tmp/ccB6hzH8.s:529    .text:00000000000001c4 .L0 
     /tmp/ccB6hzH8.s:533    .text:00000000000001c8 .L0 
     /tmp/ccB6hzH8.s:535    .text:00000000000001c8 .L0 
     /tmp/ccB6hzH8.s:538    .text:00000000000001d0 .L0 
     /tmp/ccB6hzH8.s:544    .text:00000000000001d0 _Z11thread_makePP3TCBPFvPvES2_
     /tmp/ccB6hzH8.s:547    .text:00000000000001d0 .L0 
     /tmp/ccB6hzH8.s:549    .text:00000000000001d0 .L0 
     /tmp/ccB6hzH8.s:550    .text:00000000000001d0 .L0 
     /tmp/ccB6hzH8.s:551    .text:00000000000001d0 .L0 
     /tmp/ccB6hzH8.s:553    .text:00000000000001d4 .L0 
     /tmp/ccB6hzH8.s:554    .text:00000000000001d8 .L0 
     /tmp/ccB6hzH8.s:560    .text:00000000000001ec .L0 
     /tmp/ccB6hzH8.s:561    .text:00000000000001ec .L0 
     /tmp/ccB6hzH8.s:562    .text:00000000000001ec .L0 
     /tmp/ccB6hzH8.s:563    .text:00000000000001ec .L0 
     /tmp/ccB6hzH8.s:564    .text:00000000000001ec .L0 
     /tmp/ccB6hzH8.s:566    .text:00000000000001f0 .L0 
     /tmp/ccB6hzH8.s:571    .text:00000000000001fc .L0 
     /tmp/ccB6hzH8.s:573    .text:0000000000000200 .L0 
     /tmp/ccB6hzH8.s:574    .text:0000000000000200 .L0 
     /tmp/ccB6hzH8.s:579    .text:000000000000020c .L0 
     /tmp/ccB6hzH8.s:583    .text:0000000000000210 .L0 
   src/syscall_c.cpp:134    .text:0000000000000210 .L0 
     /tmp/ccB6hzH8.s:589    .text:0000000000000214 .L0 
   src/syscall_c.cpp:135    .text:0000000000000214 .L0 
     /tmp/ccB6hzH8.s:594    .text:0000000000000218 .L0 
   src/syscall_c.cpp:136    .text:0000000000000218 .L0 
     /tmp/ccB6hzH8.s:599    .text:000000000000021c .L0 
   src/syscall_c.cpp:137    .text:000000000000021c .L0 
     /tmp/ccB6hzH8.s:608    .text:0000000000000220 .L0 
GAS LISTING /tmp/ccB6hzH8.s 			page 32


     /tmp/ccB6hzH8.s:609    .text:0000000000000220 .L0 
     /tmp/ccB6hzH8.s:610    .text:0000000000000220 .L0 
     /tmp/ccB6hzH8.s:616    .text:0000000000000228 .L0 
   src/syscall_c.cpp:12     .text:0000000000000228 .L0 
     /tmp/ccB6hzH8.s:625    .text:000000000000022c .L0 
     /tmp/ccB6hzH8.s:626    .text:000000000000022c .L0 
     /tmp/ccB6hzH8.s:628    .text:0000000000000230 .L0 
     /tmp/ccB6hzH8.s:630    .text:0000000000000234 .L0 
     /tmp/ccB6hzH8.s:634    .text:0000000000000238 .L0 
     /tmp/ccB6hzH8.s:635    .text:000000000000023c .L0 
     /tmp/ccB6hzH8.s:636    .text:000000000000023c .L0 
     /tmp/ccB6hzH8.s:638    .text:0000000000000240 .L0 
     /tmp/ccB6hzH8.s:639    .text:0000000000000240 .L0 
     /tmp/ccB6hzH8.s:641    .text:0000000000000244 .L0 
     /tmp/ccB6hzH8.s:644    .text:0000000000000248 .L0 
     /tmp/ccB6hzH8.s:647    .text:000000000000024c .L0 
     /tmp/ccB6hzH8.s:650    .text:0000000000000250 .L0 
     /tmp/ccB6hzH8.s:654    .text:0000000000000254 .L0 
     /tmp/ccB6hzH8.s:656    .text:0000000000000254 .L0 
     /tmp/ccB6hzH8.s:660    .text:000000000000025c .L0 
     /tmp/ccB6hzH8.s:661    .text:000000000000025c .L0 
     /tmp/ccB6hzH8.s:662    .text:000000000000025c .L0 
     /tmp/ccB6hzH8.s:663    .text:000000000000025c .L0 
     /tmp/ccB6hzH8.s:664    .text:000000000000025c .L0 
     /tmp/ccB6hzH8.s:665    .text:000000000000025c .L0 
     /tmp/ccB6hzH8.s:667    .text:000000000000025c .L0 
     /tmp/ccB6hzH8.s:670    .text:0000000000000260 .L0 
     /tmp/ccB6hzH8.s:673    .text:0000000000000264 .L0 
     /tmp/ccB6hzH8.s:674    .text:0000000000000264 .L0 
     /tmp/ccB6hzH8.s:675    .text:0000000000000264 .L0 
     /tmp/ccB6hzH8.s:676    .text:0000000000000264 .L0 
     /tmp/ccB6hzH8.s:677    .text:0000000000000264 .L0 
     /tmp/ccB6hzH8.s:678    .text:0000000000000264 .L0 
     /tmp/ccB6hzH8.s:680    .text:0000000000000264 .L0 
     /tmp/ccB6hzH8.s:686    .text:000000000000026c .L0 
     /tmp/ccB6hzH8.s:689    .text:0000000000000274 .L0 
     /tmp/ccB6hzH8.s:695    .text:0000000000000274 _Z13thread_deleteP3TCB
     /tmp/ccB6hzH8.s:698    .text:0000000000000274 .L0 
     /tmp/ccB6hzH8.s:700    .text:0000000000000274 .L0 
     /tmp/ccB6hzH8.s:701    .text:0000000000000278 .L0 
     /tmp/ccB6hzH8.s:703    .text:000000000000027c .L0 
     /tmp/ccB6hzH8.s:705    .text:0000000000000280 .L0 
     /tmp/ccB6hzH8.s:707    .text:0000000000000280 .L0 
     /tmp/ccB6hzH8.s:709    .text:0000000000000284 .L0 
   src/syscall_c.cpp:149    .text:0000000000000284 .L0 
     /tmp/ccB6hzH8.s:719    .text:0000000000000288 .L0 
     /tmp/ccB6hzH8.s:720    .text:0000000000000288 .L0 
     /tmp/ccB6hzH8.s:721    .text:0000000000000288 .L0 
     /tmp/ccB6hzH8.s:727    .text:0000000000000290 .L0 
   src/syscall_c.cpp:12     .text:0000000000000290 .L0 
     /tmp/ccB6hzH8.s:737    .text:0000000000000294 .L0 
     /tmp/ccB6hzH8.s:738    .text:0000000000000298 .L0 
     /tmp/ccB6hzH8.s:739    .text:0000000000000298 .L0 
     /tmp/ccB6hzH8.s:741    .text:000000000000029c .L0 
     /tmp/ccB6hzH8.s:743    .text:00000000000002a0 .L0 
     /tmp/ccB6hzH8.s:749    .text:00000000000002a0 _Z8sem_openPP4_semj
     /tmp/ccB6hzH8.s:752    .text:00000000000002a0 .L0 
GAS LISTING /tmp/ccB6hzH8.s 			page 33


     /tmp/ccB6hzH8.s:754    .text:00000000000002a0 .L0 
     /tmp/ccB6hzH8.s:755    .text:00000000000002a4 .L0 
     /tmp/ccB6hzH8.s:757    .text:00000000000002a8 .L0 
     /tmp/ccB6hzH8.s:759    .text:00000000000002ac .L0 
     /tmp/ccB6hzH8.s:761    .text:00000000000002ac .L0 
     /tmp/ccB6hzH8.s:763    .text:00000000000002b0 .L0 
   src/syscall_c.cpp:160    .text:00000000000002b0 .L0 
     /tmp/ccB6hzH8.s:769    .text:00000000000002b4 .L0 
   src/syscall_c.cpp:161    .text:00000000000002b4 .L0 
     /tmp/ccB6hzH8.s:778    .text:00000000000002b8 .L0 
     /tmp/ccB6hzH8.s:779    .text:00000000000002b8 .L0 
     /tmp/ccB6hzH8.s:780    .text:00000000000002b8 .L0 
     /tmp/ccB6hzH8.s:786    .text:00000000000002c0 .L0 
   src/syscall_c.cpp:12     .text:00000000000002c0 .L0 
     /tmp/ccB6hzH8.s:795    .text:00000000000002c4 .L0 
     /tmp/ccB6hzH8.s:796    .text:00000000000002c4 .L0 
     /tmp/ccB6hzH8.s:798    .text:00000000000002c8 .L0 
     /tmp/ccB6hzH8.s:800    .text:00000000000002cc .L0 
     /tmp/ccB6hzH8.s:804    .text:00000000000002d0 .L0 
     /tmp/ccB6hzH8.s:805    .text:00000000000002d4 .L0 
     /tmp/ccB6hzH8.s:806    .text:00000000000002d4 .L0 
     /tmp/ccB6hzH8.s:807    .text:00000000000002d4 .L0 
     /tmp/ccB6hzH8.s:809    .text:00000000000002d8 .L0 
     /tmp/ccB6hzH8.s:813    .text:00000000000002dc .L0 
     /tmp/ccB6hzH8.s:815    .text:00000000000002dc .L0 
     /tmp/ccB6hzH8.s:821    .text:00000000000002e4 .L0 
     /tmp/ccB6hzH8.s:824    .text:00000000000002ec .L0 
     /tmp/ccB6hzH8.s:830    .text:00000000000002ec _Z9sem_closeP4_sem
     /tmp/ccB6hzH8.s:833    .text:00000000000002ec .L0 
     /tmp/ccB6hzH8.s:835    .text:00000000000002ec .L0 
     /tmp/ccB6hzH8.s:836    .text:00000000000002f0 .L0 
     /tmp/ccB6hzH8.s:838    .text:00000000000002f4 .L0 
     /tmp/ccB6hzH8.s:840    .text:00000000000002f8 .L0 
     /tmp/ccB6hzH8.s:842    .text:00000000000002f8 .L0 
     /tmp/ccB6hzH8.s:844    .text:00000000000002fc .L0 
   src/syscall_c.cpp:173    .text:00000000000002fc .L0 
     /tmp/ccB6hzH8.s:854    .text:0000000000000300 .L0 
     /tmp/ccB6hzH8.s:855    .text:0000000000000300 .L0 
     /tmp/ccB6hzH8.s:856    .text:0000000000000300 .L0 
     /tmp/ccB6hzH8.s:862    .text:0000000000000308 .L0 
   src/syscall_c.cpp:12     .text:0000000000000308 .L0 
     /tmp/ccB6hzH8.s:871    .text:000000000000030c .L0 
     /tmp/ccB6hzH8.s:872    .text:000000000000030c .L0 
   src/syscall_c.cpp:178    .text:000000000000030c .L0 
     /tmp/ccB6hzH8.s:883    .text:0000000000000314 .L0 
     /tmp/ccB6hzH8.s:884    .text:0000000000000314 .L0 
     /tmp/ccB6hzH8.s:885    .text:0000000000000318 .L0 
     /tmp/ccB6hzH8.s:886    .text:0000000000000318 .L0 
     /tmp/ccB6hzH8.s:887    .text:0000000000000318 .L0 
     /tmp/ccB6hzH8.s:889    .text:000000000000031c .L0 
     /tmp/ccB6hzH8.s:893    .text:0000000000000320 .L0 
     /tmp/ccB6hzH8.s:895    .text:0000000000000320 .L0 
     /tmp/ccB6hzH8.s:898    .text:0000000000000328 .L0 
     /tmp/ccB6hzH8.s:904    .text:0000000000000328 _Z8sem_waitP4_sem
     /tmp/ccB6hzH8.s:907    .text:0000000000000328 .L0 
     /tmp/ccB6hzH8.s:909    .text:0000000000000328 .L0 
     /tmp/ccB6hzH8.s:910    .text:000000000000032c .L0 
GAS LISTING /tmp/ccB6hzH8.s 			page 34


     /tmp/ccB6hzH8.s:912    .text:0000000000000330 .L0 
     /tmp/ccB6hzH8.s:914    .text:0000000000000334 .L0 
     /tmp/ccB6hzH8.s:916    .text:0000000000000334 .L0 
     /tmp/ccB6hzH8.s:918    .text:0000000000000338 .L0 
   src/syscall_c.cpp:186    .text:0000000000000338 .L0 
     /tmp/ccB6hzH8.s:928    .text:000000000000033c .L0 
     /tmp/ccB6hzH8.s:929    .text:000000000000033c .L0 
     /tmp/ccB6hzH8.s:930    .text:000000000000033c .L0 
     /tmp/ccB6hzH8.s:936    .text:0000000000000344 .L0 
   src/syscall_c.cpp:12     .text:0000000000000344 .L0 
     /tmp/ccB6hzH8.s:945    .text:0000000000000348 .L0 
     /tmp/ccB6hzH8.s:946    .text:0000000000000348 .L0 
   src/syscall_c.cpp:191    .text:0000000000000348 .L0 
     /tmp/ccB6hzH8.s:957    .text:0000000000000350 .L0 
     /tmp/ccB6hzH8.s:958    .text:0000000000000350 .L0 
     /tmp/ccB6hzH8.s:959    .text:0000000000000354 .L0 
     /tmp/ccB6hzH8.s:960    .text:0000000000000354 .L0 
     /tmp/ccB6hzH8.s:961    .text:0000000000000354 .L0 
     /tmp/ccB6hzH8.s:963    .text:0000000000000358 .L0 
     /tmp/ccB6hzH8.s:967    .text:000000000000035c .L0 
     /tmp/ccB6hzH8.s:969    .text:000000000000035c .L0 
     /tmp/ccB6hzH8.s:972    .text:0000000000000364 .L0 
     /tmp/ccB6hzH8.s:978    .text:0000000000000364 _Z10sem_signalP4_sem
     /tmp/ccB6hzH8.s:981    .text:0000000000000364 .L0 
     /tmp/ccB6hzH8.s:983    .text:0000000000000364 .L0 
     /tmp/ccB6hzH8.s:984    .text:0000000000000368 .L0 
     /tmp/ccB6hzH8.s:986    .text:000000000000036c .L0 
     /tmp/ccB6hzH8.s:988    .text:0000000000000370 .L0 
     /tmp/ccB6hzH8.s:990    .text:0000000000000370 .L0 
     /tmp/ccB6hzH8.s:992    .text:0000000000000374 .L0 
   src/syscall_c.cpp:200    .text:0000000000000374 .L0 
     /tmp/ccB6hzH8.s:1002   .text:0000000000000378 .L0 
     /tmp/ccB6hzH8.s:1003   .text:0000000000000378 .L0 
     /tmp/ccB6hzH8.s:1004   .text:0000000000000378 .L0 
     /tmp/ccB6hzH8.s:1010   .text:0000000000000380 .L0 
   src/syscall_c.cpp:12     .text:0000000000000380 .L0 
     /tmp/ccB6hzH8.s:1019   .text:0000000000000384 .L0 
     /tmp/ccB6hzH8.s:1020   .text:0000000000000384 .L0 
   src/syscall_c.cpp:205    .text:0000000000000384 .L0 
     /tmp/ccB6hzH8.s:1031   .text:000000000000038c .L0 
     /tmp/ccB6hzH8.s:1032   .text:000000000000038c .L0 
     /tmp/ccB6hzH8.s:1033   .text:0000000000000390 .L0 
     /tmp/ccB6hzH8.s:1034   .text:0000000000000390 .L0 
     /tmp/ccB6hzH8.s:1035   .text:0000000000000390 .L0 
     /tmp/ccB6hzH8.s:1037   .text:0000000000000394 .L0 
     /tmp/ccB6hzH8.s:1041   .text:0000000000000398 .L0 
     /tmp/ccB6hzH8.s:1043   .text:0000000000000398 .L0 
     /tmp/ccB6hzH8.s:1046   .text:00000000000003a0 .L0 
     /tmp/ccB6hzH8.s:1052   .text:00000000000003a0 _Z10time_sleepm
     /tmp/ccB6hzH8.s:1055   .text:00000000000003a0 .L0 
     /tmp/ccB6hzH8.s:1057   .text:00000000000003a0 .L0 
     /tmp/ccB6hzH8.s:1058   .text:00000000000003a4 .L0 
     /tmp/ccB6hzH8.s:1060   .text:00000000000003a8 .L0 
     /tmp/ccB6hzH8.s:1062   .text:00000000000003ac .L0 
     /tmp/ccB6hzH8.s:1064   .text:00000000000003ac .L0 
     /tmp/ccB6hzH8.s:1066   .text:00000000000003b0 .L0 
   src/syscall_c.cpp:214    .text:00000000000003b0 .L0 
GAS LISTING /tmp/ccB6hzH8.s 			page 35


     /tmp/ccB6hzH8.s:1076   .text:00000000000003b4 .L0 
     /tmp/ccB6hzH8.s:1077   .text:00000000000003b4 .L0 
     /tmp/ccB6hzH8.s:1078   .text:00000000000003b4 .L0 
     /tmp/ccB6hzH8.s:1084   .text:00000000000003bc .L0 
   src/syscall_c.cpp:12     .text:00000000000003bc .L0 
     /tmp/ccB6hzH8.s:1093   .text:00000000000003c0 .L0 
     /tmp/ccB6hzH8.s:1094   .text:00000000000003c0 .L0 
     /tmp/ccB6hzH8.s:1098   .text:00000000000003c4 .L0 
     /tmp/ccB6hzH8.s:1099   .text:00000000000003c8 .L0 
     /tmp/ccB6hzH8.s:1100   .text:00000000000003c8 .L0 
     /tmp/ccB6hzH8.s:1101   .text:00000000000003c8 .L0 
     /tmp/ccB6hzH8.s:1103   .text:00000000000003cc .L0 
     /tmp/ccB6hzH8.s:1107   .text:00000000000003d0 .L0 
     /tmp/ccB6hzH8.s:1109   .text:00000000000003d0 .L0 
     /tmp/ccB6hzH8.s:1112   .text:00000000000003d8 .L0 
     /tmp/ccB6hzH8.s:1118   .text:00000000000003d8 _Z4getcv
     /tmp/ccB6hzH8.s:1121   .text:00000000000003d8 .L0 
     /tmp/ccB6hzH8.s:1122   .text:00000000000003d8 .L0 
     /tmp/ccB6hzH8.s:1123   .text:00000000000003dc .L0 
     /tmp/ccB6hzH8.s:1125   .text:00000000000003e0 .L0 
     /tmp/ccB6hzH8.s:1127   .text:00000000000003e4 .L0 
     /tmp/ccB6hzH8.s:1132   .text:00000000000003e4 .L0 
     /tmp/ccB6hzH8.s:1133   .text:00000000000003e4 .L0 
     /tmp/ccB6hzH8.s:1134   .text:00000000000003e4 .L0 
     /tmp/ccB6hzH8.s:1140   .text:00000000000003ec .L0 
   src/syscall_c.cpp:12     .text:00000000000003ec .L0 
     /tmp/ccB6hzH8.s:1149   .text:00000000000003f0 .L0 
     /tmp/ccB6hzH8.s:1150   .text:00000000000003f0 .L0 
   src/syscall_c.cpp:230    .text:00000000000003f0 .L0 
     /tmp/ccB6hzH8.s:1157   .text:00000000000003f4 .L0 
     /tmp/ccB6hzH8.s:1159   .text:00000000000003f4 .L0 
     /tmp/ccB6hzH8.s:1161   .text:00000000000003fc .L0 
     /tmp/ccB6hzH8.s:1162   .text:00000000000003fc .L0 
     /tmp/ccB6hzH8.s:1164   .text:0000000000000400 .L0 
     /tmp/ccB6hzH8.s:1166   .text:0000000000000404 .L0 
     /tmp/ccB6hzH8.s:1172   .text:0000000000000404 _Z4putcc
     /tmp/ccB6hzH8.s:1175   .text:0000000000000404 .L0 
     /tmp/ccB6hzH8.s:1177   .text:0000000000000404 .L0 
     /tmp/ccB6hzH8.s:1178   .text:0000000000000408 .L0 
     /tmp/ccB6hzH8.s:1180   .text:000000000000040c .L0 
     /tmp/ccB6hzH8.s:1182   .text:0000000000000410 .L0 
     /tmp/ccB6hzH8.s:1184   .text:0000000000000410 .L0 
   src/syscall_c.cpp:237    .text:0000000000000410 .L0 
     /tmp/ccB6hzH8.s:1194   .text:0000000000000414 .L0 
     /tmp/ccB6hzH8.s:1195   .text:0000000000000414 .L0 
     /tmp/ccB6hzH8.s:1196   .text:0000000000000414 .L0 
     /tmp/ccB6hzH8.s:1202   .text:000000000000041c .L0 
   src/syscall_c.cpp:12     .text:000000000000041c .L0 
     /tmp/ccB6hzH8.s:1211   .text:0000000000000420 .L0 
     /tmp/ccB6hzH8.s:1212   .text:0000000000000424 .L0 
     /tmp/ccB6hzH8.s:1213   .text:0000000000000424 .L0 
     /tmp/ccB6hzH8.s:1215   .text:0000000000000428 .L0 
     /tmp/ccB6hzH8.s:1217   .text:000000000000042c .L0 
     /tmp/ccB6hzH8.s:1223   .text:000000000000042c .L0 
     /tmp/ccB6hzH8.s:79     .text:0000000000000038 .L2
     /tmp/ccB6hzH8.s:32     .text:0000000000000018 .L3
     /tmp/ccB6hzH8.s:279    .text:0000000000000100 .L10
GAS LISTING /tmp/ccB6hzH8.s 			page 36


     /tmp/ccB6hzH8.s:273    .text:00000000000000f8 .L11
     /tmp/ccB6hzH8.s:292    .text:0000000000000108 .L18
     /tmp/ccB6hzH8.s:306    .text:0000000000000110 .L13
     /tmp/ccB6hzH8.s:199    .text:00000000000000b4 .L9
     /tmp/ccB6hzH8.s:252    .text:00000000000000dc .L8
     /tmp/ccB6hzH8.s:454    .text:0000000000000188 .L23
     /tmp/ccB6hzH8.s:532    .text:00000000000001c8 .L28
     /tmp/ccB6hzH8.s:522    .text:00000000000001bc .L27
     /tmp/ccB6hzH8.s:659    .text:000000000000025c .L33
     /tmp/ccB6hzH8.s:653    .text:0000000000000254 .L34
     /tmp/ccB6hzH8.s:672    .text:0000000000000264 .L41
     /tmp/ccB6hzH8.s:684    .text:000000000000026c .L36
     /tmp/ccB6hzH8.s:581    .text:0000000000000210 .L32
     /tmp/ccB6hzH8.s:632    .text:0000000000000238 .L31
     /tmp/ccB6hzH8.s:733    .text:0000000000000294 .L42
     /tmp/ccB6hzH8.s:812    .text:00000000000002dc .L47
     /tmp/ccB6hzH8.s:819    .text:00000000000002e4 .L48
     /tmp/ccB6hzH8.s:802    .text:00000000000002d0 .L46
     /tmp/ccB6hzH8.s:892    .text:0000000000000320 .L52
     /tmp/ccB6hzH8.s:882    .text:0000000000000314 .L51
     /tmp/ccB6hzH8.s:966    .text:000000000000035c .L56
     /tmp/ccB6hzH8.s:956    .text:0000000000000350 .L55
     /tmp/ccB6hzH8.s:1040   .text:0000000000000398 .L60
     /tmp/ccB6hzH8.s:1030   .text:000000000000038c .L59
     /tmp/ccB6hzH8.s:1106   .text:00000000000003d0 .L64
     /tmp/ccB6hzH8.s:1096   .text:00000000000003c4 .L63
     /tmp/ccB6hzH8.s:2152   .debug_abbrev:0000000000000000 .Ldebug_abbrev0
     /tmp/ccB6hzH8.s:3396   .debug_str:0000000000000406 .LASF81
     /tmp/ccB6hzH8.s:3320   .debug_str:00000000000001eb .LASF82
     /tmp/ccB6hzH8.s:3278   .debug_str:00000000000000df .LASF83
     /tmp/ccB6hzH8.s:5      .text:0000000000000000 .Ltext0
     /tmp/ccB6hzH8.s:1220   .text:000000000000042c .Letext0
     /tmp/ccB6hzH8.s:3238   .debug_line:0000000000000000 .Ldebug_line0
     /tmp/ccB6hzH8.s:3344   .debug_str:0000000000000294 .LASF0
     /tmp/ccB6hzH8.s:3348   .debug_str:00000000000002ad .LASF1
     /tmp/ccB6hzH8.s:3334   .debug_str:0000000000000246 .LASF2
     /tmp/ccB6hzH8.s:3318   .debug_str:00000000000001e4 .LASF4
     /tmp/ccB6hzH8.s:3380   .debug_str:00000000000003b2 .LASF3
     /tmp/ccB6hzH8.s:3256   .debug_str:0000000000000048 .LASF5
     /tmp/ccB6hzH8.s:3284   .debug_str:0000000000000123 .LASF6
     /tmp/ccB6hzH8.s:3352   .debug_str:00000000000002d1 .LASF7
     /tmp/ccB6hzH8.s:3342   .debug_str:0000000000000281 .LASF8
     /tmp/ccB6hzH8.s:3404   .debug_str:00000000000004f9 .LASF9
     /tmp/ccB6hzH8.s:3308   .debug_str:000000000000019e .LASF10
     /tmp/ccB6hzH8.s:3362   .debug_str:0000000000000317 .LASF11
     /tmp/ccB6hzH8.s:3398   .debug_str:00000000000004ca .LASF12
     /tmp/ccB6hzH8.s:3258   .debug_str:000000000000004f .LASF13
     /tmp/ccB6hzH8.s:3244   .debug_str:0000000000000010 .LASF14
     /tmp/ccB6hzH8.s:3266   .debug_str:000000000000008a .LASF15
     /tmp/ccB6hzH8.s:3376   .debug_str:0000000000000391 .LASF16
     /tmp/ccB6hzH8.s:3280   .debug_str:0000000000000102 .LASF17
     /tmp/ccB6hzH8.s:3386   .debug_str:00000000000003d7 .LASF18
     /tmp/ccB6hzH8.s:3372   .debug_str:000000000000037a .LASF19
     /tmp/ccB6hzH8.s:3240   .debug_str:0000000000000000 .LASF20
     /tmp/ccB6hzH8.s:3328   .debug_str:000000000000021c .LASF21
     /tmp/ccB6hzH8.s:3290   .debug_str:0000000000000141 .LASF22
     /tmp/ccB6hzH8.s:3268   .debug_str:0000000000000096 .LASF23
GAS LISTING /tmp/ccB6hzH8.s 			page 37


     /tmp/ccB6hzH8.s:3346   .debug_str:00000000000002a1 .LASF24
     /tmp/ccB6hzH8.s:3388   .debug_str:00000000000003e1 .LASF25
     /tmp/ccB6hzH8.s:3332   .debug_str:000000000000023a .LASF26
     /tmp/ccB6hzH8.s:3374   .debug_str:0000000000000383 .LASF27
     /tmp/ccB6hzH8.s:3292   .debug_str:000000000000014d .LASF28
     /tmp/ccB6hzH8.s:3316   .debug_str:00000000000001df .LASF29
     /tmp/ccB6hzH8.s:3402   .debug_str:00000000000004f0 .LASF30
     /tmp/ccB6hzH8.s:3326   .debug_str:0000000000000212 .LASF31
     /tmp/ccB6hzH8.s:3384   .debug_str:00000000000003ce .LASF32
     /tmp/ccB6hzH8.s:3260   .debug_str:000000000000005f .LASF33
     /tmp/ccB6hzH8.s:3322   .debug_str:00000000000001fd .LASF34
     /tmp/ccB6hzH8.s:3254   .debug_str:0000000000000043 .LASF35
     /tmp/ccB6hzH8.s:3408   .debug_str:0000000000000517 .LASF36
     /tmp/ccB6hzH8.s:3338   .debug_str:0000000000000262 .LASF55
     /tmp/ccB6hzH8.s:3302   .debug_str:000000000000017b .LASF57
     /tmp/ccB6hzH8.s:1173   .text:0000000000000404 .LFB16
     /tmp/ccB6hzH8.s:1218   .text:000000000000042c .LFE16
     /tmp/ccB6hzH8.s:1192   .text:0000000000000414 .LBB70
     /tmp/ccB6hzH8.s:1209   .text:0000000000000420 .LBE70
     /tmp/ccB6hzH8.s:2621   .debug_loc:0000000000000000 .LLST34
     /tmp/ccB6hzH8.s:3354   .debug_str:00000000000002e4 .LASF37
     /tmp/ccB6hzH8.s:3246   .debug_str:0000000000000020 .LASF39
     /tmp/ccB6hzH8.s:3252   .debug_str:000000000000003a .LASF41
     /tmp/ccB6hzH8.s:1119   .text:00000000000003d8 .LFB15
     /tmp/ccB6hzH8.s:1167   .text:0000000000000404 .LFE15
     /tmp/ccB6hzH8.s:3248   .debug_str:0000000000000025 .LASF38
     /tmp/ccB6hzH8.s:1130   .text:00000000000003e4 .LBB68
     /tmp/ccB6hzH8.s:1147   .text:00000000000003f0 .LBE68
     /tmp/ccB6hzH8.s:2630   .debug_loc:0000000000000025 .LLST33
     /tmp/ccB6hzH8.s:3378   .debug_str:00000000000003a7 .LASF40
     /tmp/ccB6hzH8.s:3366   .debug_str:000000000000033b .LASF42
     /tmp/ccB6hzH8.s:1053   .text:00000000000003a0 .LFB14
     /tmp/ccB6hzH8.s:1113   .text:00000000000003d8 .LFE14
     /tmp/ccB6hzH8.s:3300   .debug_str:0000000000000175 .LASF43
     /tmp/ccB6hzH8.s:2639   .debug_loc:000000000000004a .LLST31
     /tmp/ccB6hzH8.s:1074   .text:00000000000003b4 .LBB66
     /tmp/ccB6hzH8.s:1091   .text:00000000000003c0 .LBE66
     /tmp/ccB6hzH8.s:2664   .debug_loc:00000000000000ac .LLST32
     /tmp/ccB6hzH8.s:3282   .debug_str:0000000000000118 .LASF44
     /tmp/ccB6hzH8.s:3304   .debug_str:0000000000000184 .LASF45
     /tmp/ccB6hzH8.s:979    .text:0000000000000364 .LFB13
     /tmp/ccB6hzH8.s:1047   .text:00000000000003a0 .LFE13
     /tmp/ccB6hzH8.s:2673   .debug_loc:00000000000000d1 .LLST29
     /tmp/ccB6hzH8.s:3242   .debug_str:0000000000000009 .LASF48
     /tmp/ccB6hzH8.s:1000   .text:0000000000000378 .LBB64
     /tmp/ccB6hzH8.s:1017   .text:0000000000000384 .LBE64
     /tmp/ccB6hzH8.s:2698   .debug_loc:0000000000000133 .LLST30
     /tmp/ccB6hzH8.s:3270   .debug_str:00000000000000a6 .LASF46
     /tmp/ccB6hzH8.s:3262   .debug_str:000000000000006a .LASF47
     /tmp/ccB6hzH8.s:905    .text:0000000000000328 .LFB12
     /tmp/ccB6hzH8.s:973    .text:0000000000000364 .LFE12
     /tmp/ccB6hzH8.s:2707   .debug_loc:0000000000000158 .LLST27
     /tmp/ccB6hzH8.s:926    .text:000000000000033c .LBB62
     /tmp/ccB6hzH8.s:943    .text:0000000000000348 .LBE62
     /tmp/ccB6hzH8.s:2732   .debug_loc:00000000000001ba .LLST28
     /tmp/ccB6hzH8.s:3324   .debug_str:0000000000000208 .LASF49
     /tmp/ccB6hzH8.s:3360   .debug_str:0000000000000304 .LASF50
GAS LISTING /tmp/ccB6hzH8.s 			page 38


     /tmp/ccB6hzH8.s:831    .text:00000000000002ec .LFB11
     /tmp/ccB6hzH8.s:899    .text:0000000000000328 .LFE11
     /tmp/ccB6hzH8.s:3390   .debug_str:00000000000003ee .LASF51
     /tmp/ccB6hzH8.s:2741   .debug_loc:00000000000001df .LLST25
     /tmp/ccB6hzH8.s:852    .text:0000000000000300 .LBB60
     /tmp/ccB6hzH8.s:869    .text:000000000000030c .LBE60
     /tmp/ccB6hzH8.s:2766   .debug_loc:0000000000000241 .LLST26
     /tmp/ccB6hzH8.s:3298   .debug_str:000000000000016c .LASF52
     /tmp/ccB6hzH8.s:3276   .debug_str:00000000000000cb .LASF53
     /tmp/ccB6hzH8.s:750    .text:00000000000002a0 .LFB10
     /tmp/ccB6hzH8.s:825    .text:00000000000002ec .LFE10
     /tmp/ccB6hzH8.s:2775   .debug_loc:0000000000000266 .LLST23
     /tmp/ccB6hzH8.s:3356   .debug_str:00000000000002e9 .LASF54
     /tmp/ccB6hzH8.s:776    .text:00000000000002b8 .LBB58
     /tmp/ccB6hzH8.s:793    .text:00000000000002c4 .LBE58
     /tmp/ccB6hzH8.s:2811   .debug_loc:00000000000002f1 .LLST24
     /tmp/ccB6hzH8.s:3336   .debug_str:0000000000000254 .LASF56
     /tmp/ccB6hzH8.s:3400   .debug_str:00000000000004d9 .LASF58
     /tmp/ccB6hzH8.s:696    .text:0000000000000274 .LFB9
     /tmp/ccB6hzH8.s:744    .text:00000000000002a0 .LFE9
     /tmp/ccB6hzH8.s:717    .text:0000000000000288 .LBB56
     /tmp/ccB6hzH8.s:735    .text:0000000000000294 .LBE56
     /tmp/ccB6hzH8.s:2820   .debug_loc:0000000000000316 .LLST22
     /tmp/ccB6hzH8.s:3294   .debug_str:0000000000000153 .LASF59
     /tmp/ccB6hzH8.s:3410   .debug_str:000000000000051c .LASF60
     /tmp/ccB6hzH8.s:545    .text:00000000000001d0 .LFB8
     /tmp/ccB6hzH8.s:690    .text:0000000000000274 .LFE8
     /tmp/ccB6hzH8.s:2828   .debug_loc:000000000000033a .LLST17
     /tmp/ccB6hzH8.s:3368   .debug_str:000000000000034b .LASF61
     /tmp/ccB6hzH8.s:2865   .debug_loc:00000000000003d5 .LLST18
     /tmp/ccB6hzH8.s:2891   .debug_loc:0000000000000447 .LLST19
     /tmp/ccB6hzH8.s:3412   .debug_str:000000000000053b .LASF62
     /tmp/ccB6hzH8.s:2917   .debug_loc:00000000000004b9 .LLST20
     /tmp/ccB6hzH8.s:606    .text:0000000000000220 .LBB54
     /tmp/ccB6hzH8.s:623    .text:000000000000022c .LBE54
     /tmp/ccB6hzH8.s:2942   .debug_loc:000000000000052a .LLST21
     /tmp/ccB6hzH8.s:577    .text:000000000000020c .LVL48
     /tmp/ccB6hzH8.s:3296   .debug_str:000000000000015f .LASF63
     /tmp/ccB6hzH8.s:3358   .debug_str:00000000000002ee .LASF64
     /tmp/ccB6hzH8.s:471    .text:0000000000000194 .LFB7
     /tmp/ccB6hzH8.s:539    .text:00000000000001d0 .LFE7
     /tmp/ccB6hzH8.s:2950   .debug_loc:000000000000054e .LLST15
     /tmp/ccB6hzH8.s:492    .text:00000000000001a8 .LBB52
     /tmp/ccB6hzH8.s:509    .text:00000000000001b4 .LBE52
     /tmp/ccB6hzH8.s:2975   .debug_loc:00000000000005b0 .LLST16
     /tmp/ccB6hzH8.s:3394   .debug_str:00000000000003fa .LASF65
     /tmp/ccB6hzH8.s:3310   .debug_str:00000000000001ac .LASF66
     /tmp/ccB6hzH8.s:417    .text:0000000000000168 .LFB6
     /tmp/ccB6hzH8.s:465    .text:0000000000000194 .LFE6
     /tmp/ccB6hzH8.s:438    .text:000000000000017c .LBB50
     /tmp/ccB6hzH8.s:456    .text:0000000000000188 .LBE50
     /tmp/ccB6hzH8.s:2983   .debug_loc:00000000000005d4 .LLST14
     /tmp/ccB6hzH8.s:3330   .debug_str:000000000000022a .LASF67
     /tmp/ccB6hzH8.s:3364   .debug_str:0000000000000326 .LASF68
     /tmp/ccB6hzH8.s:374    .text:0000000000000144 .LFB5
     /tmp/ccB6hzH8.s:411    .text:0000000000000168 .LFE5
     /tmp/ccB6hzH8.s:385    .text:0000000000000150 .LBB48
GAS LISTING /tmp/ccB6hzH8.s 			page 39


     /tmp/ccB6hzH8.s:402    .text:000000000000015c .LBE48
     /tmp/ccB6hzH8.s:2991   .debug_loc:00000000000005f8 .LLST13
     /tmp/ccB6hzH8.s:3250   .debug_str:000000000000002e .LASF69
     /tmp/ccB6hzH8.s:3350   .debug_str:00000000000002c0 .LASF70
     /tmp/ccB6hzH8.s:320    .text:0000000000000118 .LFB4
     /tmp/ccB6hzH8.s:368    .text:0000000000000144 .LFE4
     /tmp/ccB6hzH8.s:331    .text:0000000000000124 .LBB46
     /tmp/ccB6hzH8.s:348    .text:0000000000000130 .LBE46
     /tmp/ccB6hzH8.s:2999   .debug_loc:000000000000061c .LLST12
     /tmp/ccB6hzH8.s:3286   .debug_str:000000000000012a .LASF71
     /tmp/ccB6hzH8.s:3370   .debug_str:0000000000000359 .LASF72
     /tmp/ccB6hzH8.s:159    .text:0000000000000074 .LFB3
     /tmp/ccB6hzH8.s:314    .text:0000000000000118 .LFE3
     /tmp/ccB6hzH8.s:3007   .debug_loc:0000000000000640 .LLST6
     /tmp/ccB6hzH8.s:3044   .debug_loc:00000000000006db .LLST7
     /tmp/ccB6hzH8.s:3070   .debug_loc:000000000000074d .LLST8
     /tmp/ccB6hzH8.s:3096   .debug_loc:00000000000007bf .LLST9
     /tmp/ccB6hzH8.s:3230   .debug_ranges:0000000000000000 .Ldebug_ranges0
     /tmp/ccB6hzH8.s:3314   .debug_str:00000000000001d6 .LASF73
     /tmp/ccB6hzH8.s:3121   .debug_loc:0000000000000830 .LLST10
     /tmp/ccB6hzH8.s:195    .text:00000000000000b0 .LVL16
     /tmp/ccB6hzH8.s:226    .text:00000000000000c4 .LBB43
     /tmp/ccB6hzH8.s:243    .text:00000000000000d0 .LBE43
     /tmp/ccB6hzH8.s:3136   .debug_loc:000000000000086c .LLST11
     /tmp/ccB6hzH8.s:3288   .debug_str:0000000000000138 .LASF74
     /tmp/ccB6hzH8.s:3406   .debug_str:0000000000000509 .LASF75
     /tmp/ccB6hzH8.s:97     .text:0000000000000044 .LFB2
     /tmp/ccB6hzH8.s:153    .text:0000000000000074 .LFE2
     /tmp/ccB6hzH8.s:3144   .debug_loc:0000000000000890 .LLST4
     /tmp/ccB6hzH8.s:116    .text:0000000000000054 .LBB38
     /tmp/ccB6hzH8.s:133    .text:0000000000000060 .LBE38
     /tmp/ccB6hzH8.s:3158   .debug_loc:00000000000008c9 .LLST5
     /tmp/ccB6hzH8.s:3382   .debug_str:00000000000003c4 .LASF76
     /tmp/ccB6hzH8.s:3274   .debug_str:00000000000000bd .LASF77
     /tmp/ccB6hzH8.s:10     .text:0000000000000000 .LFB1
     /tmp/ccB6hzH8.s:91     .text:0000000000000044 .LFE1
     /tmp/ccB6hzH8.s:3392   .debug_str:00000000000003f5 .LASF78
     /tmp/ccB6hzH8.s:3166   .debug_loc:00000000000008ed .LLST0
     /tmp/ccB6hzH8.s:3272   .debug_str:00000000000000af .LASF79
     /tmp/ccB6hzH8.s:3191   .debug_loc:000000000000094f .LLST1
     /tmp/ccB6hzH8.s:3264   .debug_str:000000000000007c .LASF80
     /tmp/ccB6hzH8.s:3202   .debug_loc:0000000000000985 .LLST2
     /tmp/ccB6hzH8.s:42     .text:000000000000001c .LBB36
     /tmp/ccB6hzH8.s:59     .text:0000000000000028 .LBE36
     /tmp/ccB6hzH8.s:3209   .debug_loc:00000000000009a8 .LLST3
     /tmp/ccB6hzH8.s:3312   .debug_str:00000000000001c1 .LASF84
     /tmp/ccB6hzH8.s:3340   .debug_str:0000000000000267 .LASF85
     /tmp/ccB6hzH8.s:3306   .debug_str:0000000000000199 .LASF86
     /tmp/ccB6hzH8.s:1190   .text:0000000000000414 .LVL105
     /tmp/ccB6hzH8.s:1206   .text:0000000000000420 .LVL106
     /tmp/ccB6hzH8.s:1129   .text:00000000000003e4 .LVL101
     /tmp/ccB6hzH8.s:1144   .text:00000000000003f0 .LVL102
     /tmp/ccB6hzH8.s:1056   .text:00000000000003a0 .LVL95
     /tmp/ccB6hzH8.s:1095   .text:00000000000003c4 .LVL98
     /tmp/ccB6hzH8.s:1105   .text:00000000000003d0 .LVL99
     /tmp/ccB6hzH8.s:1110   .text:00000000000003d4 .LVL100
     /tmp/ccB6hzH8.s:1072   .text:00000000000003b4 .LVL96
GAS LISTING /tmp/ccB6hzH8.s 			page 40


     /tmp/ccB6hzH8.s:1088   .text:00000000000003c0 .LVL97
     /tmp/ccB6hzH8.s:982    .text:0000000000000364 .LVL88
     /tmp/ccB6hzH8.s:1025   .text:0000000000000388 .LVL91
     /tmp/ccB6hzH8.s:1039   .text:0000000000000398 .LVL93
     /tmp/ccB6hzH8.s:1044   .text:000000000000039c .LVL94
     /tmp/ccB6hzH8.s:998    .text:0000000000000378 .LVL89
     /tmp/ccB6hzH8.s:1014   .text:0000000000000384 .LVL90
     /tmp/ccB6hzH8.s:908    .text:0000000000000328 .LVL81
     /tmp/ccB6hzH8.s:951    .text:000000000000034c .LVL84
     /tmp/ccB6hzH8.s:965    .text:000000000000035c .LVL86
     /tmp/ccB6hzH8.s:970    .text:0000000000000360 .LVL87
     /tmp/ccB6hzH8.s:924    .text:000000000000033c .LVL82
     /tmp/ccB6hzH8.s:940    .text:0000000000000348 .LVL83
     /tmp/ccB6hzH8.s:834    .text:00000000000002ec .LVL74
     /tmp/ccB6hzH8.s:877    .text:0000000000000310 .LVL77
     /tmp/ccB6hzH8.s:891    .text:0000000000000320 .LVL79
     /tmp/ccB6hzH8.s:896    .text:0000000000000324 .LVL80
     /tmp/ccB6hzH8.s:850    .text:0000000000000300 .LVL75
     /tmp/ccB6hzH8.s:866    .text:000000000000030c .LVL76
     /tmp/ccB6hzH8.s:753    .text:00000000000002a0 .LVL66
     /tmp/ccB6hzH8.s:801    .text:00000000000002d0 .LVL69
     /tmp/ccB6hzH8.s:811    .text:00000000000002dc .LVL70
     /tmp/ccB6hzH8.s:816    .text:00000000000002e0 .LVL71
     /tmp/ccB6hzH8.s:818    .text:00000000000002e4 .LVL72
     /tmp/ccB6hzH8.s:822    .text:00000000000002e8 .LVL73
     /tmp/ccB6hzH8.s:774    .text:00000000000002b8 .LVL67
     /tmp/ccB6hzH8.s:790    .text:00000000000002c4 .LVL68
     /tmp/ccB6hzH8.s:715    .text:0000000000000288 .LVL64
     /tmp/ccB6hzH8.s:731    .text:0000000000000294 .LVL65
     /tmp/ccB6hzH8.s:548    .text:00000000000001d0 .LVL46
     /tmp/ccB6hzH8.s:575    .text:0000000000000204 .LVL47
     /tmp/ccB6hzH8.s:642    .text:0000000000000244 .LVL53
     /tmp/ccB6hzH8.s:652    .text:0000000000000254 .LVL56
     /tmp/ccB6hzH8.s:658    .text:000000000000025c .LVL57
     /tmp/ccB6hzH8.s:668    .text:0000000000000260 .LVL58
     /tmp/ccB6hzH8.s:671    .text:0000000000000264 .LVL59
     /tmp/ccB6hzH8.s:645    .text:0000000000000248 .LVL54
     /tmp/ccB6hzH8.s:648    .text:000000000000024c .LVL55
     /tmp/ccB6hzH8.s:631    .text:0000000000000238 .LVL52
     /tmp/ccB6hzH8.s:681    .text:0000000000000268 .LVL60
     /tmp/ccB6hzH8.s:683    .text:000000000000026c .LVL61
     /tmp/ccB6hzH8.s:687    .text:0000000000000270 .LVL62
     /tmp/ccB6hzH8.s:604    .text:0000000000000220 .LVL50
     /tmp/ccB6hzH8.s:620    .text:000000000000022c .LVL51
     /tmp/ccB6hzH8.s:474    .text:0000000000000194 .LVL39
     /tmp/ccB6hzH8.s:517    .text:00000000000001b8 .LVL42
     /tmp/ccB6hzH8.s:531    .text:00000000000001c8 .LVL44
     /tmp/ccB6hzH8.s:536    .text:00000000000001cc .LVL45
     /tmp/ccB6hzH8.s:490    .text:00000000000001a8 .LVL40
     /tmp/ccB6hzH8.s:506    .text:00000000000001b4 .LVL41
     /tmp/ccB6hzH8.s:436    .text:000000000000017c .LVL37
     /tmp/ccB6hzH8.s:452    .text:0000000000000188 .LVL38
     /tmp/ccB6hzH8.s:384    .text:0000000000000150 .LVL34
     /tmp/ccB6hzH8.s:399    .text:000000000000015c .LVL35
     /tmp/ccB6hzH8.s:330    .text:0000000000000124 .LVL31
     /tmp/ccB6hzH8.s:345    .text:0000000000000130 .LVL32
     /tmp/ccB6hzH8.s:162    .text:0000000000000074 .LVL13
GAS LISTING /tmp/ccB6hzH8.s 			page 41


     /tmp/ccB6hzH8.s:193    .text:00000000000000a8 .LVL15
     /tmp/ccB6hzH8.s:262    .text:00000000000000e8 .LVL21
     /tmp/ccB6hzH8.s:272    .text:00000000000000f8 .LVL24
     /tmp/ccB6hzH8.s:278    .text:0000000000000100 .LVL25
     /tmp/ccB6hzH8.s:288    .text:0000000000000104 .LVL26
     /tmp/ccB6hzH8.s:291    .text:0000000000000108 .LVL27
     /tmp/ccB6hzH8.s:265    .text:00000000000000ec .LVL22
     /tmp/ccB6hzH8.s:268    .text:00000000000000f0 .LVL23
     /tmp/ccB6hzH8.s:251    .text:00000000000000dc .LVL20
     /tmp/ccB6hzH8.s:303    .text:000000000000010c .LVL28
     /tmp/ccB6hzH8.s:305    .text:0000000000000110 .LVL29
     /tmp/ccB6hzH8.s:311    .text:0000000000000114 .LVL30
     /tmp/ccB6hzH8.s:189    .text:00000000000000a4 .LVL14
     /tmp/ccB6hzH8.s:198    .text:00000000000000b4 .LVL17
     /tmp/ccB6hzH8.s:224    .text:00000000000000c4 .LVL18
     /tmp/ccB6hzH8.s:240    .text:00000000000000d0 .LVL19
     /tmp/ccB6hzH8.s:100    .text:0000000000000044 .LVL9
     /tmp/ccB6hzH8.s:141    .text:0000000000000064 .LVL12
     /tmp/ccB6hzH8.s:114    .text:0000000000000054 .LVL10
     /tmp/ccB6hzH8.s:130    .text:0000000000000060 .LVL11
     /tmp/ccB6hzH8.s:14     .text:0000000000000000 .LVL0
     /tmp/ccB6hzH8.s:31     .text:0000000000000018 .LVL2
     /tmp/ccB6hzH8.s:78     .text:0000000000000038 .LVL6
     /tmp/ccB6hzH8.s:84     .text:000000000000003c .LVL7
     /tmp/ccB6hzH8.s:22     .text:000000000000000c .LVL1
     /tmp/ccB6hzH8.s:67     .text:000000000000002c .LVL5
     /tmp/ccB6hzH8.s:40     .text:000000000000001c .LVL3
     /tmp/ccB6hzH8.s:56     .text:0000000000000028 .LVL4
     /tmp/ccB6hzH8.s:1224   .debug_info:0000000000000000 .Ldebug_info0
     /tmp/ccB6hzH8.s:187    .text:00000000000000a4 .LBB41
     /tmp/ccB6hzH8.s:200    .text:00000000000000b4 .LBE41
     /tmp/ccB6hzH8.s:300    .text:0000000000000108 .LBB42
     /tmp/ccB6hzH8.s:307    .text:0000000000000110 .LBE42

NO UNDEFINED SYMBOLS
