GAS LISTING /tmp/ccluXRJq.s 			page 1


   1              		.file	"TCB.cpp"
   2              		.option pic
   3              		.option norelax
   4              		.text
   5              	.Ltext0:
   6              		.align	2
   7              		.globl	_ZN3TCB13threadWrapperEv
   9              	_ZN3TCB13threadWrapperEv:
  10              	.LFB42:
  11              		.file 1 "src/TCB.cpp"
   1:src/TCB.cpp   **** //
   2:src/TCB.cpp   **** // Created by os on 4/28/23.
   3:src/TCB.cpp   **** //
   4:src/TCB.cpp   **** 
   5:src/TCB.cpp   **** //
   6:src/TCB.cpp   **** // Created by marko on 20.4.22..
   7:src/TCB.cpp   **** //
   8:src/TCB.cpp   **** 
   9:src/TCB.cpp   **** #include "../h/TCB.hpp"
  10:src/TCB.cpp   **** #include "../h/riscv.hpp"
  11:src/TCB.cpp   **** 
  12:src/TCB.cpp   **** 
  13:src/TCB.cpp   **** 
  14:src/TCB.cpp   **** TCB *TCB::running = nullptr;
  15:src/TCB.cpp   **** TCB *TCB::idle= nullptr;
  16:src/TCB.cpp   **** TCB *TCB::out= nullptr;
  17:src/TCB.cpp   **** uint64 TCB::timeSliceCounter = 0;
  18:src/TCB.cpp   **** 
  19:src/TCB.cpp   **** TCB *TCB::createIdleThread(TCB::Body body, void *arg, uint64 *stack, bool system_thread)
  20:src/TCB.cpp   **** {
  21:src/TCB.cpp   ****     TCB* curr = new TCB(body,arg,stack,system_thread);
  22:src/TCB.cpp   ****     return curr;
  23:src/TCB.cpp   **** }
  24:src/TCB.cpp   **** 
  25:src/TCB.cpp   **** TCB *TCB::createThread(Body body,void* arg,uint64* stack,bool system_thread)
  26:src/TCB.cpp   **** {
  27:src/TCB.cpp   ****     TCB* curr = new TCB(body,arg,stack,system_thread);
  28:src/TCB.cpp   ****     if (curr->body!= nullptr){Scheduler::put(curr);}
  29:src/TCB.cpp   ****     return curr;
  30:src/TCB.cpp   **** }
  31:src/TCB.cpp   **** 
  32:src/TCB.cpp   **** 
  33:src/TCB.cpp   **** void TCB::dispatch()
  34:src/TCB.cpp   **** {
  35:src/TCB.cpp   ****     TCB::timeSliceCounter=0; // reset za vreme zauzetosti jedne niti
  36:src/TCB.cpp   ****     TCB *old = running;
  37:src/TCB.cpp   ****     if (!old->isFinished() && !old->isBlocked() && old->started && old!=idle) { Scheduler::put(old)
  38:src/TCB.cpp   ****     running = Scheduler::get();
  39:src/TCB.cpp   ****     if (running== nullptr)running=idle;
  40:src/TCB.cpp   **** 
  41:src/TCB.cpp   ****     Riscv::setThreadMode();
  42:src/TCB.cpp   ****     TCB::contextSwitch(&old->context, &running->context);
  43:src/TCB.cpp   **** }
  44:src/TCB.cpp   **** 
  45:src/TCB.cpp   **** void TCB::threadWrapper()
  46:src/TCB.cpp   **** {
  12              		.loc 1 46 1
GAS LISTING /tmp/ccluXRJq.s 			page 2


  13              		.cfi_startproc
  14 0000 130101FF 		addi	sp,sp,-16
  15              		.cfi_def_cfa_offset 16
  16 0004 23341100 		sd	ra,8(sp)
  17 0008 23308100 		sd	s0,0(sp)
  18              		.cfi_offset 1, -8
  19              		.cfi_offset 8, -16
  20 000c 13040101 		addi	s0,sp,16
  21              		.cfi_def_cfa 8, 0
  47:src/TCB.cpp   ****     Riscv::setThreadMode();
  22              		.loc 1 47 5
  23              		.loc 1 47 25 is_stmt 0
  24 0010 97000000 		call	_ZN5Riscv13setThreadModeEv@plt
  24      E7800000 
  25              	.LVL0:
  48:src/TCB.cpp   ****     Riscv::popSppSpie();
  26              		.loc 1 48 5 is_stmt 1
  27              		.loc 1 48 22 is_stmt 0
  28 0018 97000000 		call	_ZN5Riscv10popSppSpieEv@plt
  28      E7800000 
  29              	.LVL1:
  49:src/TCB.cpp   ****     running->body(running->arg);
  30              		.loc 1 49 5 is_stmt 1
  31              		.loc 1 49 14 is_stmt 0
  32 0020 97070000 		ld	a5,.LANCHOR0
  32      83B70700 
  33 0028 03B70700 		ld	a4,0(a5)
  34              		.loc 1 49 18
  35 002c 03B58700 		ld	a0,8(a5)
  36 0030 E7000700 		jalr	a4
  37              	.LVL2:
  50:src/TCB.cpp   ****     thread_exit();
  38              		.loc 1 50 5 is_stmt 1
  39              		.loc 1 50 16 is_stmt 0
  40 0034 97000000 		call	_Z11thread_exitv@plt
  40      E7800000 
  41              	.LVL3:
  51:src/TCB.cpp   **** }
  42              		.loc 1 51 1
  43 003c 83308100 		ld	ra,8(sp)
  44              		.cfi_restore 1
  45 0040 03340100 		ld	s0,0(sp)
  46              		.cfi_restore 8
  47              		.cfi_def_cfa 2, 16
  48 0044 13010101 		addi	sp,sp,16
  49              		.cfi_def_cfa_offset 0
  50 0048 67800000 		jr	ra
  51              		.cfi_endproc
  52              	.LFE42:
  54              		.align	2
  55              		.globl	_ZN3TCB8dispatchEv
  57              	_ZN3TCB8dispatchEv:
  58              	.LFB41:
  34:src/TCB.cpp   ****     TCB::timeSliceCounter=0; // reset za vreme zauzetosti jedne niti
  59              		.loc 1 34 1 is_stmt 1
  60              		.cfi_startproc
  61 004c 130101FE 		addi	sp,sp,-32
GAS LISTING /tmp/ccluXRJq.s 			page 3


  62              		.cfi_def_cfa_offset 32
  63 0050 233C1100 		sd	ra,24(sp)
  64 0054 23388100 		sd	s0,16(sp)
  65 0058 23349100 		sd	s1,8(sp)
  66              		.cfi_offset 1, -8
  67              		.cfi_offset 8, -16
  68              		.cfi_offset 9, -24
  69 005c 13040102 		addi	s0,sp,32
  70              		.cfi_def_cfa 8, 0
  35:src/TCB.cpp   ****     TCB *old = running;
  71              		.loc 1 35 5
  35:src/TCB.cpp   ****     TCB *old = running;
  72              		.loc 1 35 26 is_stmt 0
  73 0060 97070000 		lla	a5,.LANCHOR0
  73      93870700 
  74 0068 23B40700 		sd	zero,8(a5)
  36:src/TCB.cpp   ****     if (!old->isFinished() && !old->isBlocked() && old->started && old!=idle) { Scheduler::put(old)
  75              		.loc 1 36 5 is_stmt 1
  36:src/TCB.cpp   ****     if (!old->isFinished() && !old->isBlocked() && old->started && old!=idle) { Scheduler::put(old)
  76              		.loc 1 36 10 is_stmt 0
  77 006c 83B40700 		ld	s1,0(a5)
  78              	.LVL4:
  37:src/TCB.cpp   ****     running = Scheduler::get();
  79              		.loc 1 37 5 is_stmt 1
  80              	.LBB31:
  81              	.LBB32:
  82              		.file 2 "src/../h/TCB.hpp"
   1:src/../h/TCB.hpp **** //
   2:src/../h/TCB.hpp **** // Created by os on 4/28/23.
   3:src/../h/TCB.hpp **** //
   4:src/../h/TCB.hpp **** 
   5:src/../h/TCB.hpp **** 
   6:src/../h/TCB.hpp **** #ifndef OS1_VEZBE07_RISCV_CONTEXT_SWITCH_2_INTERRUPT_TCB_HPP
   7:src/../h/TCB.hpp **** #define OS1_VEZBE07_RISCV_CONTEXT_SWITCH_2_INTERRUPT_TCB_HPP
   8:src/../h/TCB.hpp **** 
   9:src/../h/TCB.hpp **** #include "../lib/hw.h"
  10:src/../h/TCB.hpp **** 
  11:src/../h/TCB.hpp **** #include "../h/MemoryAllocator.hpp"
  12:src/../h/TCB.hpp **** #include "../h/syscall_c.h"
  13:src/../h/TCB.hpp **** 
  14:src/../h/TCB.hpp **** 
  15:src/../h/TCB.hpp **** 
  16:src/../h/TCB.hpp **** // Thread Control Block
  17:src/../h/TCB.hpp **** class TCB
  18:src/../h/TCB.hpp **** {
  19:src/../h/TCB.hpp **** public:
  20:src/../h/TCB.hpp **** 
  21:src/../h/TCB.hpp **** 
  22:src/../h/TCB.hpp ****     ~TCB() {
  23:src/../h/TCB.hpp ****         delete[] stack;
  24:src/../h/TCB.hpp ****         }
  25:src/../h/TCB.hpp **** 
  26:src/../h/TCB.hpp ****     bool isFinished() const { return finished; }
  83              		.loc 2 26 31
  84              		.loc 2 26 38 is_stmt 0
  85 0070 83C70403 		lbu	a5,48(s1)
  86              	.LVL5:
GAS LISTING /tmp/ccluXRJq.s 			page 4


  87              	.LBE32:
  88              	.LBE31:
  37:src/TCB.cpp   ****     running = Scheduler::get();
  89              		.loc 1 37 65
  90 0074 63960702 		bnez	a5,.L4
  91              	.LVL6:
  92              	.LBB33:
  93              	.LBB34:
  27:src/../h/TCB.hpp **** 
  28:src/../h/TCB.hpp ****     bool isBlocked() const { return blocked; }
  94              		.loc 2 28 30 is_stmt 1
  95              		.loc 2 28 37 is_stmt 0
  96 0078 83C71403 		lbu	a5,49(s1)
  97              	.LVL7:
  98              	.LBE34:
  99              	.LBE33:
  37:src/TCB.cpp   ****     running = Scheduler::get();
 100              		.loc 1 37 28
 101 007c 63920702 		bnez	a5,.L4
  37:src/TCB.cpp   ****     running = Scheduler::get();
 102              		.loc 1 37 57 discriminator 3
 103 0080 83C72403 		lbu	a5,50(s1)
  37:src/TCB.cpp   ****     running = Scheduler::get();
 104              		.loc 1 37 49 discriminator 3
 105 0084 638E0700 		beqz	a5,.L4
  37:src/TCB.cpp   ****     running = Scheduler::get();
 106              		.loc 1 37 71 discriminator 5
 107 0088 97070000 		ld	a5,.LANCHOR0+16
 107      83B70700 
  37:src/TCB.cpp   ****     running = Scheduler::get();
 108              		.loc 1 37 65 discriminator 5
 109 0090 63889700 		beq	a5,s1,.L4
  37:src/TCB.cpp   ****     running = Scheduler::get();
 110              		.loc 1 37 81 is_stmt 1
  37:src/TCB.cpp   ****     running = Scheduler::get();
 111              		.loc 1 37 95 is_stmt 0
 112 0094 13850400 		mv	a0,s1
 113 0098 97000000 		call	_ZN9Scheduler3putEP3TCB@plt
 113      E7800000 
 114              	.LVL8:
 115              	.L4:
  38:src/TCB.cpp   ****     if (running== nullptr)running=idle;
 116              		.loc 1 38 5 is_stmt 1
  38:src/TCB.cpp   ****     if (running== nullptr)running=idle;
 117              		.loc 1 38 29 is_stmt 0
 118 00a0 97000000 		call	_ZN9Scheduler3getEv@plt
 118      E7800000 
 119              	.LVL9:
  38:src/TCB.cpp   ****     if (running== nullptr)running=idle;
 120              		.loc 1 38 13
 121 00a8 97070000 		sd	a0,.LANCHOR0,a5
 121      23B0A700 
  39:src/TCB.cpp   **** 
 122              		.loc 1 39 5 is_stmt 1
 123 00b0 630C0502 		beqz	a0,.L7
 124              	.L5:
  41:src/TCB.cpp   ****     TCB::contextSwitch(&old->context, &running->context);
GAS LISTING /tmp/ccluXRJq.s 			page 5


 125              		.loc 1 41 5
  41:src/TCB.cpp   ****     TCB::contextSwitch(&old->context, &running->context);
 126              		.loc 1 41 25 is_stmt 0
 127 00b4 97000000 		call	_ZN5Riscv13setThreadModeEv@plt
 127      E7800000 
 128              	.LVL10:
  42:src/TCB.cpp   **** }
 129              		.loc 1 42 5 is_stmt 1
  42:src/TCB.cpp   **** }
 130              		.loc 1 42 23 is_stmt 0
 131 00bc 97050000 		ld	a1,.LANCHOR0
 131      83B50500 
 132 00c4 93858501 		addi	a1,a1,24
 133 00c8 13858401 		addi	a0,s1,24
 134 00cc 97000000 		call	_ZN3TCB13contextSwitchEPNS_7ContextES1_@plt
 134      E7800000 
 135              	.LVL11:
  43:src/TCB.cpp   **** 
 136              		.loc 1 43 1
 137 00d4 83308101 		ld	ra,24(sp)
 138              		.cfi_remember_state
 139              		.cfi_restore 1
 140 00d8 03340101 		ld	s0,16(sp)
 141              		.cfi_restore 8
 142              		.cfi_def_cfa 2, 32
 143 00dc 83348100 		ld	s1,8(sp)
 144              		.cfi_restore 9
 145              	.LVL12:
 146 00e0 13010102 		addi	sp,sp,32
 147              		.cfi_def_cfa_offset 0
 148 00e4 67800000 		jr	ra
 149              	.LVL13:
 150              	.L7:
 151              		.cfi_restore_state
  39:src/TCB.cpp   **** 
 152              		.loc 1 39 27 is_stmt 1 discriminator 1
  39:src/TCB.cpp   **** 
 153              		.loc 1 39 34 is_stmt 0 discriminator 1
 154 00e8 97070000 		lla	a5,.LANCHOR0
 154      93870700 
 155 00f0 03B70701 		ld	a4,16(a5)
 156 00f4 23B0E700 		sd	a4,0(a5)
 157 00f8 6FF0DFFB 		j	.L5
 158              		.cfi_endproc
 159              	.LFE41:
 161              		.align	2
 162              		.globl	_ZN3TCBnwEm
 164              	_ZN3TCBnwEm:
 165              	.LFB43:
  52:src/TCB.cpp   **** 
  53:src/TCB.cpp   **** void* TCB::operator new(size_t size) {
 166              		.loc 1 53 38 is_stmt 1
 167              		.cfi_startproc
 168              	.LVL14:
 169 00fc 130101FF 		addi	sp,sp,-16
 170              		.cfi_def_cfa_offset 16
 171 0100 23341100 		sd	ra,8(sp)
GAS LISTING /tmp/ccluXRJq.s 			page 6


 172 0104 23308100 		sd	s0,0(sp)
 173              		.cfi_offset 1, -8
 174              		.cfi_offset 8, -16
 175 0108 13040101 		addi	s0,sp,16
 176              		.cfi_def_cfa 8, 0
  54:src/TCB.cpp   ****     size_t block = size;
 177              		.loc 1 54 5
 178              	.LVL15:
  55:src/TCB.cpp   ****     if (block % MEM_BLOCK_SIZE==0)block=size/MEM_BLOCK_SIZE;
 179              		.loc 1 55 5
 180              		.loc 1 55 15 is_stmt 0
 181 010c 9377F503 		andi	a5,a0,63
 182              		.loc 1 55 5
 183 0110 63900702 		bnez	a5,.L9
 184              		.loc 1 55 35 is_stmt 1 discriminator 1
 185              		.loc 1 55 40 is_stmt 0 discriminator 1
 186 0114 13556500 		srli	a0,a0,6
 187              	.LVL16:
 188              	.L10:
  56:src/TCB.cpp   ****     else block=(size/MEM_BLOCK_SIZE)+1;
  57:src/TCB.cpp   ****     void* pointer = MemoryAllocator::mem_alloc(block);
 189              		.loc 1 57 5 is_stmt 1
 190              		.loc 1 57 47 is_stmt 0
 191 0118 97000000 		call	_ZN15MemoryAllocator9mem_allocEm@plt
 191      E7800000 
 192              	.LVL17:
  58:src/TCB.cpp   ****     return pointer;
 193              		.loc 1 58 5 is_stmt 1
  59:src/TCB.cpp   **** }
 194              		.loc 1 59 1 is_stmt 0
 195 0120 83308100 		ld	ra,8(sp)
 196              		.cfi_remember_state
 197              		.cfi_restore 1
 198 0124 03340100 		ld	s0,0(sp)
 199              		.cfi_restore 8
 200              		.cfi_def_cfa 2, 16
 201 0128 13010101 		addi	sp,sp,16
 202              		.cfi_def_cfa_offset 0
 203 012c 67800000 		jr	ra
 204              	.LVL18:
 205              	.L9:
 206              		.cfi_restore_state
  56:src/TCB.cpp   ****     else block=(size/MEM_BLOCK_SIZE)+1;
 207              		.loc 1 56 10 is_stmt 1
  56:src/TCB.cpp   ****     else block=(size/MEM_BLOCK_SIZE)+1;
 208              		.loc 1 56 21 is_stmt 0
 209 0130 13556500 		srli	a0,a0,6
 210              	.LVL19:
  56:src/TCB.cpp   ****     else block=(size/MEM_BLOCK_SIZE)+1;
 211              		.loc 1 56 15
 212 0134 13051500 		addi	a0,a0,1
 213              	.LVL20:
 214 0138 6FF01FFE 		j	.L10
 215              		.cfi_endproc
 216              	.LFE43:
 218              		.align	2
 219              		.globl	_ZN3TCB16createIdleThreadEPFvPvES0_Pmb
GAS LISTING /tmp/ccluXRJq.s 			page 7


 221              	_ZN3TCB16createIdleThreadEPFvPvES0_Pmb:
 222              	.LFB39:
  20:src/TCB.cpp   ****     TCB* curr = new TCB(body,arg,stack,system_thread);
 223              		.loc 1 20 1 is_stmt 1
 224              		.cfi_startproc
 225              	.LVL21:
 226 013c 130101FD 		addi	sp,sp,-48
 227              		.cfi_def_cfa_offset 48
 228 0140 23341102 		sd	ra,40(sp)
 229 0144 23308102 		sd	s0,32(sp)
 230 0148 233C9100 		sd	s1,24(sp)
 231 014c 23382101 		sd	s2,16(sp)
 232 0150 23343101 		sd	s3,8(sp)
 233 0154 23304101 		sd	s4,0(sp)
 234              		.cfi_offset 1, -8
 235              		.cfi_offset 8, -16
 236              		.cfi_offset 9, -24
 237              		.cfi_offset 18, -32
 238              		.cfi_offset 19, -40
 239              		.cfi_offset 20, -48
 240 0158 13040103 		addi	s0,sp,48
 241              		.cfi_def_cfa 8, 0
 242 015c 13090500 		mv	s2,a0
 243 0160 138A0500 		mv	s4,a1
 244 0164 93040600 		mv	s1,a2
 245 0168 93890600 		mv	s3,a3
  21:src/TCB.cpp   ****     return curr;
 246              		.loc 1 21 5
  21:src/TCB.cpp   ****     return curr;
 247              		.loc 1 21 53 is_stmt 0
 248 016c 13058004 		li	a0,72
 249              	.LVL22:
 250 0170 97000000 		call	_ZN3TCBnwEm
 250      E7800000 
 251              	.LVL23:
 252              	.LBB35:
 253              	.LBB36:
  29:src/../h/TCB.hpp **** 
  30:src/../h/TCB.hpp ****     bool isStarted() const { return started; }
  31:src/../h/TCB.hpp **** 
  32:src/../h/TCB.hpp ****     bool isSystemThread() { return system_thread;}
  33:src/../h/TCB.hpp **** 
  34:src/../h/TCB.hpp ****     void setFinished(bool value) { finished = value; }
  35:src/../h/TCB.hpp **** 
  36:src/../h/TCB.hpp ****     void setBlocked (bool value) { blocked=value; }
  37:src/../h/TCB.hpp **** 
  38:src/../h/TCB.hpp ****     void setStarted(bool value) { started = value; }
  39:src/../h/TCB.hpp **** 
  40:src/../h/TCB.hpp **** 
  41:src/../h/TCB.hpp **** 
  42:src/../h/TCB.hpp ****     uint64 getTimeSlice() const { return timeSlice; }
  43:src/../h/TCB.hpp **** 
  44:src/../h/TCB.hpp ****     using Body = void (*)(void*);
  45:src/../h/TCB.hpp **** 
  46:src/../h/TCB.hpp ****     static TCB *createIdleThread(Body body,void* arg,uint64* stack,bool system_thread);
  47:src/../h/TCB.hpp **** 
  48:src/../h/TCB.hpp ****     static TCB *createThread(Body body,void* arg,uint64* stack,bool system_thread);
GAS LISTING /tmp/ccluXRJq.s 			page 8


  49:src/../h/TCB.hpp **** 
  50:src/../h/TCB.hpp ****     static TCB *makeThread(Body body,void* arg,uint64* stack,bool system_thread);
  51:src/../h/TCB.hpp **** 
  52:src/../h/TCB.hpp ****     static TCB *running;
  53:src/../h/TCB.hpp **** 
  54:src/../h/TCB.hpp ****     static TCB *idle;
  55:src/../h/TCB.hpp **** 
  56:src/../h/TCB.hpp ****     static TCB *out;
  57:src/../h/TCB.hpp **** 
  58:src/../h/TCB.hpp ****     void join(TCB* handle);
  59:src/../h/TCB.hpp **** 
  60:src/../h/TCB.hpp ****     static void dispatch();
  61:src/../h/TCB.hpp **** 
  62:src/../h/TCB.hpp ****     int start(TCB* handle);
  63:src/../h/TCB.hpp **** 
  64:src/../h/TCB.hpp ****     void *operator new(size_t size);
  65:src/../h/TCB.hpp **** 
  66:src/../h/TCB.hpp ****     void operator delete(void *adress) ;
  67:src/../h/TCB.hpp **** 
  68:src/../h/TCB.hpp **** 
  69:src/../h/TCB.hpp **** private:
  70:src/../h/TCB.hpp **** 
  71:src/../h/TCB.hpp **** 
  72:src/../h/TCB.hpp ****     TCB(Body body,void* a,uint64* stack_space, bool kernel_thread) :
  73:src/../h/TCB.hpp ****             body(body),
  74:src/../h/TCB.hpp ****             arg(a),
  75:src/../h/TCB.hpp ****             stack(stack_space),
  76:src/../h/TCB.hpp ****             timeSlice(DEFAULT_TIME_SLICE)
 254              		.loc 2 76 41
 255 0178 23302501 		sd	s2,0(a0)
 256 017c 23344501 		sd	s4,8(a0)
 257 0180 23389500 		sd	s1,16(a0)
 258 0184 93072000 		li	a5,2
 259 0188 2334F502 		sd	a5,40(a0)
  77:src/../h/TCB.hpp **** 
  78:src/../h/TCB.hpp ****             {
  79:src/../h/TCB.hpp ****                 finished=false;
 260              		.loc 2 79 17 is_stmt 1
 261              		.loc 2 79 25 is_stmt 0
 262 018c 23080502 		sb	zero,48(a0)
  80:src/../h/TCB.hpp ****                 blocked=false;
 263              		.loc 2 80 17 is_stmt 1
 264              		.loc 2 80 24 is_stmt 0
 265 0190 A3080502 		sb	zero,49(a0)
  81:src/../h/TCB.hpp ****                 started=true;
 266              		.loc 2 81 17 is_stmt 1
 267              		.loc 2 81 24 is_stmt 0
 268 0194 93071000 		li	a5,1
 269 0198 2309F502 		sb	a5,50(a0)
  82:src/../h/TCB.hpp ****                 system_thread=kernel_thread;
 270              		.loc 2 82 17 is_stmt 1
 271              		.loc 2 82 30 is_stmt 0
 272 019c A3093503 		sb	s3,51(a0)
  83:src/../h/TCB.hpp ****                 next=nullptr;
 273              		.loc 2 83 17 is_stmt 1
 274              		.loc 2 83 21 is_stmt 0
 275 01a0 233C0502 		sd	zero,56(a0)
GAS LISTING /tmp/ccluXRJq.s 			page 9


  84:src/../h/TCB.hpp ****                 blokirani_head=nullptr;
 276              		.loc 2 84 17 is_stmt 1
 277              		.loc 2 84 31 is_stmt 0
 278 01a4 23300504 		sd	zero,64(a0)
  85:src/../h/TCB.hpp ****                 if (body!= nullptr)
 279              		.loc 2 85 17 is_stmt 1
 280 01a8 630E0902 		beqz	s2,.L13
  86:src/../h/TCB.hpp ****                 {
  87:src/../h/TCB.hpp ****                     context = {(uint64) &threadWrapper,(uint64) &stack[DEFAULT_STACK_SIZE]};
 281              		.loc 2 87 21
 282              		.loc 2 87 65 is_stmt 0
 283 01ac 37860000 		li	a2,32768
 284 01b0 B384C400 		add	s1,s1,a2
 285              	.LVL24:
 286              		.loc 2 87 29
 287 01b4 97070000 		lla	a5,_ZN3TCB13threadWrapperEv
 287      93870700 
 288 01bc 233CF500 		sd	a5,24(a0)
 289 01c0 23309502 		sd	s1,32(a0)
 290              	.LVL25:
 291              	.L12:
 292              	.LBE36:
 293              	.LBE35:
  23:src/TCB.cpp   **** 
 294              		.loc 1 23 1
 295 01c4 83308102 		ld	ra,40(sp)
 296              		.cfi_remember_state
 297              		.cfi_restore 1
 298 01c8 03340102 		ld	s0,32(sp)
 299              		.cfi_restore 8
 300              		.cfi_def_cfa 2, 48
 301 01cc 83348101 		ld	s1,24(sp)
 302              		.cfi_restore 9
 303 01d0 03390101 		ld	s2,16(sp)
 304              		.cfi_restore 18
 305              	.LVL26:
 306 01d4 83398100 		ld	s3,8(sp)
 307              		.cfi_restore 19
 308 01d8 033A0100 		ld	s4,0(sp)
 309              		.cfi_restore 20
 310              	.LVL27:
 311 01dc 13010103 		addi	sp,sp,48
 312              		.cfi_def_cfa_offset 0
 313 01e0 67800000 		jr	ra
 314              	.LVL28:
 315              	.L13:
 316              		.cfi_restore_state
 317              	.LBB38:
 318              	.LBB37:
  88:src/../h/TCB.hpp ****                 }
  89:src/../h/TCB.hpp ****                 else
  90:src/../h/TCB.hpp ****                 {
  91:src/../h/TCB.hpp ****                   context = {0,0};
 319              		.loc 2 91 19 is_stmt 1
 320              		.loc 2 91 27 is_stmt 0
 321 01e4 233C0500 		sd	zero,24(a0)
 322 01e8 23300502 		sd	zero,32(a0)
GAS LISTING /tmp/ccluXRJq.s 			page 10


 323              	.LVL29:
 324              	.LBE37:
 325              	.LBE38:
  22:src/TCB.cpp   **** }
 326              		.loc 1 22 5 is_stmt 1
  22:src/TCB.cpp   **** }
 327              		.loc 1 22 12 is_stmt 0
 328 01ec 6FF09FFD 		j	.L12
 329              		.cfi_endproc
 330              	.LFE39:
 332              		.align	2
 333              		.globl	_ZN3TCB12createThreadEPFvPvES0_Pmb
 335              	_ZN3TCB12createThreadEPFvPvES0_Pmb:
 336              	.LFB40:
  26:src/TCB.cpp   ****     TCB* curr = new TCB(body,arg,stack,system_thread);
 337              		.loc 1 26 1 is_stmt 1
 338              		.cfi_startproc
 339              	.LVL30:
 340 01f0 130101FC 		addi	sp,sp,-64
 341              		.cfi_def_cfa_offset 64
 342 01f4 233C1102 		sd	ra,56(sp)
 343 01f8 23388102 		sd	s0,48(sp)
 344 01fc 23349102 		sd	s1,40(sp)
 345 0200 23302103 		sd	s2,32(sp)
 346 0204 233C3101 		sd	s3,24(sp)
 347 0208 23384101 		sd	s4,16(sp)
 348 020c 23345101 		sd	s5,8(sp)
 349              		.cfi_offset 1, -8
 350              		.cfi_offset 8, -16
 351              		.cfi_offset 9, -24
 352              		.cfi_offset 18, -32
 353              		.cfi_offset 19, -40
 354              		.cfi_offset 20, -48
 355              		.cfi_offset 21, -56
 356 0210 13040104 		addi	s0,sp,64
 357              		.cfi_def_cfa 8, 0
 358 0214 93090500 		mv	s3,a0
 359 0218 938A0500 		mv	s5,a1
 360 021c 13090600 		mv	s2,a2
 361 0220 138A0600 		mv	s4,a3
  27:src/TCB.cpp   ****     if (curr->body!= nullptr){Scheduler::put(curr);}
 362              		.loc 1 27 5
  27:src/TCB.cpp   ****     if (curr->body!= nullptr){Scheduler::put(curr);}
 363              		.loc 1 27 53 is_stmt 0
 364 0224 13058004 		li	a0,72
 365              	.LVL31:
 366 0228 97000000 		call	_ZN3TCBnwEm
 366      E7800000 
 367              	.LVL32:
 368 0230 93040500 		mv	s1,a0
 369              	.LVL33:
 370              	.LBB39:
 371              	.LBB40:
  76:src/../h/TCB.hpp **** 
 372              		.loc 2 76 41
 373 0234 23303501 		sd	s3,0(a0)
 374 0238 23345501 		sd	s5,8(a0)
GAS LISTING /tmp/ccluXRJq.s 			page 11


 375 023c 23382501 		sd	s2,16(a0)
 376 0240 93072000 		li	a5,2
 377 0244 2334F502 		sd	a5,40(a0)
  79:src/../h/TCB.hpp ****                 blocked=false;
 378              		.loc 2 79 17 is_stmt 1
  79:src/../h/TCB.hpp ****                 blocked=false;
 379              		.loc 2 79 25 is_stmt 0
 380 0248 23080502 		sb	zero,48(a0)
  80:src/../h/TCB.hpp ****                 started=true;
 381              		.loc 2 80 17 is_stmt 1
  80:src/../h/TCB.hpp ****                 started=true;
 382              		.loc 2 80 24 is_stmt 0
 383 024c A3080502 		sb	zero,49(a0)
  81:src/../h/TCB.hpp ****                 system_thread=kernel_thread;
 384              		.loc 2 81 17 is_stmt 1
  81:src/../h/TCB.hpp ****                 system_thread=kernel_thread;
 385              		.loc 2 81 24 is_stmt 0
 386 0250 93071000 		li	a5,1
 387 0254 2309F502 		sb	a5,50(a0)
  82:src/../h/TCB.hpp ****                 next=nullptr;
 388              		.loc 2 82 17 is_stmt 1
  82:src/../h/TCB.hpp ****                 next=nullptr;
 389              		.loc 2 82 30 is_stmt 0
 390 0258 A3094503 		sb	s4,51(a0)
  83:src/../h/TCB.hpp ****                 blokirani_head=nullptr;
 391              		.loc 2 83 17 is_stmt 1
  83:src/../h/TCB.hpp ****                 blokirani_head=nullptr;
 392              		.loc 2 83 21 is_stmt 0
 393 025c 233C0502 		sd	zero,56(a0)
  84:src/../h/TCB.hpp ****                 if (body!= nullptr)
 394              		.loc 2 84 17 is_stmt 1
  84:src/../h/TCB.hpp ****                 if (body!= nullptr)
 395              		.loc 2 84 31 is_stmt 0
 396 0260 23300504 		sd	zero,64(a0)
  85:src/../h/TCB.hpp ****                 {
 397              		.loc 2 85 17 is_stmt 1
 398 0264 638A0904 		beqz	s3,.L17
  87:src/../h/TCB.hpp ****                 }
 399              		.loc 2 87 21
  87:src/../h/TCB.hpp ****                 }
 400              		.loc 2 87 65 is_stmt 0
 401 0268 37860000 		li	a2,32768
 402 026c 3309C900 		add	s2,s2,a2
 403              	.LVL34:
  87:src/../h/TCB.hpp ****                 }
 404              		.loc 2 87 29
 405 0270 97070000 		lla	a5,_ZN3TCB13threadWrapperEv
 405      93870700 
 406 0278 233CF500 		sd	a5,24(a0)
 407 027c 23302503 		sd	s2,32(a0)
 408              	.L18:
 409              	.LVL35:
 410              	.LBE40:
 411              	.LBE39:
  28:src/TCB.cpp   ****     return curr;
 412              		.loc 1 28 5 is_stmt 1
 413 0280 63880900 		beqz	s3,.L16
GAS LISTING /tmp/ccluXRJq.s 			page 12


  28:src/TCB.cpp   ****     return curr;
 414              		.loc 1 28 31 discriminator 1
  28:src/TCB.cpp   ****     return curr;
 415              		.loc 1 28 45 is_stmt 0 discriminator 1
 416 0284 13850400 		mv	a0,s1
 417 0288 97000000 		call	_ZN9Scheduler3putEP3TCB@plt
 417      E7800000 
 418              	.LVL36:
  29:src/TCB.cpp   **** }
 419              		.loc 1 29 5 is_stmt 1 discriminator 1
 420              	.L16:
  30:src/TCB.cpp   **** 
 421              		.loc 1 30 1 is_stmt 0
 422 0290 13850400 		mv	a0,s1
 423 0294 83308103 		ld	ra,56(sp)
 424              		.cfi_remember_state
 425              		.cfi_restore 1
 426 0298 03340103 		ld	s0,48(sp)
 427              		.cfi_restore 8
 428              		.cfi_def_cfa 2, 64
 429 029c 83348102 		ld	s1,40(sp)
 430              		.cfi_restore 9
 431              	.LVL37:
 432 02a0 03390102 		ld	s2,32(sp)
 433              		.cfi_restore 18
 434 02a4 83398101 		ld	s3,24(sp)
 435              		.cfi_restore 19
 436              	.LVL38:
 437 02a8 033A0101 		ld	s4,16(sp)
 438              		.cfi_restore 20
 439 02ac 833A8100 		ld	s5,8(sp)
 440              		.cfi_restore 21
 441              	.LVL39:
 442 02b0 13010104 		addi	sp,sp,64
 443              		.cfi_def_cfa_offset 0
 444 02b4 67800000 		jr	ra
 445              	.LVL40:
 446              	.L17:
 447              		.cfi_restore_state
 448              	.LBB42:
 449              	.LBB41:
 450              		.loc 2 91 19 is_stmt 1
 451              		.loc 2 91 27 is_stmt 0
 452 02b8 233C0500 		sd	zero,24(a0)
 453 02bc 23300502 		sd	zero,32(a0)
 454 02c0 6FF01FFC 		j	.L18
 455              	.LBE41:
 456              	.LBE42:
 457              		.cfi_endproc
 458              	.LFE40:
 460              		.align	2
 461              		.globl	_ZN3TCBdlEPv
 463              	_ZN3TCBdlEPv:
 464              	.LFB44:
  60:src/TCB.cpp   **** 
  61:src/TCB.cpp   **** 
  62:src/TCB.cpp   **** void TCB::operator delete(void *adress) {
GAS LISTING /tmp/ccluXRJq.s 			page 13


 465              		.loc 1 62 41 is_stmt 1
 466              		.cfi_startproc
 467              	.LVL41:
 468 02c4 130101FF 		addi	sp,sp,-16
 469              		.cfi_def_cfa_offset 16
 470 02c8 23341100 		sd	ra,8(sp)
 471 02cc 23308100 		sd	s0,0(sp)
 472              		.cfi_offset 1, -8
 473              		.cfi_offset 8, -16
 474 02d0 13040101 		addi	s0,sp,16
 475              		.cfi_def_cfa 8, 0
  63:src/TCB.cpp   ****     MemoryAllocator::mem_free(adress);
 476              		.loc 1 63 5
 477              		.loc 1 63 30 is_stmt 0
 478 02d4 97000000 		call	_ZN15MemoryAllocator8mem_freeEPv@plt
 478      E7800000 
 479              	.LVL42:
  64:src/TCB.cpp   **** }
 480              		.loc 1 64 1
 481 02dc 83308100 		ld	ra,8(sp)
 482              		.cfi_restore 1
 483 02e0 03340100 		ld	s0,0(sp)
 484              		.cfi_restore 8
 485              		.cfi_def_cfa 2, 16
 486 02e4 13010101 		addi	sp,sp,16
 487              		.cfi_def_cfa_offset 0
 488 02e8 67800000 		jr	ra
 489              		.cfi_endproc
 490              	.LFE44:
 492              		.align	2
 493              		.globl	_ZN3TCB11add_blockedEPS_
 495              	_ZN3TCB11add_blockedEPS_:
 496              	.LFB47:
  65:src/TCB.cpp   **** 
  66:src/TCB.cpp   **** void TCB::join(TCB *handle) {
  67:src/TCB.cpp   ****     if (!handle->isFinished()) {
  68:src/TCB.cpp   ****         setBlocked(true);
  69:src/TCB.cpp   ****         handle->add_blocked(TCB::running);
  70:src/TCB.cpp   ****         dispatch();
  71:src/TCB.cpp   ****     }
  72:src/TCB.cpp   **** }
  73:src/TCB.cpp   **** 
  74:src/TCB.cpp   **** int TCB::exit() {
  75:src/TCB.cpp   ****     if (TCB::running->isFinished() || TCB::running==nullptr){return -1;}
  76:src/TCB.cpp   ****     TCB::running->setFinished(true);
  77:src/TCB.cpp   ****     TCB* curr;
  78:src/TCB.cpp   ****     while(1)
  79:src/TCB.cpp   ****     {
  80:src/TCB.cpp   ****         curr = TCB::running->remove_blocked();
  81:src/TCB.cpp   ****         if (curr== nullptr)break;
  82:src/TCB.cpp   ****         curr->setBlocked(false);
  83:src/TCB.cpp   ****         Scheduler::put(curr);
  84:src/TCB.cpp   ****     }
  85:src/TCB.cpp   **** 
  86:src/TCB.cpp   ****     dispatch();
  87:src/TCB.cpp   ****     return 0;
  88:src/TCB.cpp   **** }
GAS LISTING /tmp/ccluXRJq.s 			page 14


  89:src/TCB.cpp   **** 
  90:src/TCB.cpp   **** void TCB::add_blocked(TCB* thread) {
 497              		.loc 1 90 36 is_stmt 1
 498              		.cfi_startproc
 499              	.LVL43:
 500 02ec 130101FF 		addi	sp,sp,-16
 501              		.cfi_def_cfa_offset 16
 502 02f0 23348100 		sd	s0,8(sp)
 503              		.cfi_offset 8, -8
 504 02f4 13040101 		addi	s0,sp,16
 505              		.cfi_def_cfa 8, 0
  91:src/TCB.cpp   ****     TCB* curr = blokirani_head;
 506              		.loc 1 91 5
 507              		.loc 1 91 10 is_stmt 0
 508 02f8 83370504 		ld	a5,64(a0)
 509              	.LVL44:
  92:src/TCB.cpp   ****     if (curr== nullptr)
 510              		.loc 1 92 5 is_stmt 1
 511 02fc 63800702 		beqz	a5,.L27
 512              	.LVL45:
 513              	.L24:
  93:src/TCB.cpp   ****     {
  94:src/TCB.cpp   ****         blokirani_head=thread;
  95:src/TCB.cpp   ****     }
  96:src/TCB.cpp   ****     else
  97:src/TCB.cpp   ****     {
  98:src/TCB.cpp   ****         while (curr->next!= nullptr)
 514              		.loc 1 98 9
 515              		.loc 1 98 26
 516 0300 13870700 		mv	a4,a5
 517              		.loc 1 98 22 is_stmt 0
 518 0304 83B78703 		ld	a5,56(a5)
 519              	.LVL46:
 520              		.loc 1 98 26
 521 0308 E39C07FE 		bnez	a5,.L24
  99:src/TCB.cpp   ****         {
 100:src/TCB.cpp   ****             curr = curr->next;
 101:src/TCB.cpp   ****         }
 102:src/TCB.cpp   ****         curr->next=thread;
 522              		.loc 1 102 9 is_stmt 1
 523              		.loc 1 102 19 is_stmt 0
 524 030c 233CB702 		sd	a1,56(a4)
 525              	.LVL47:
 526              	.L23:
 103:src/TCB.cpp   ****     }
 104:src/TCB.cpp   **** 
 105:src/TCB.cpp   **** }
 527              		.loc 1 105 1
 528 0310 03348100 		ld	s0,8(sp)
 529              		.cfi_remember_state
 530              		.cfi_restore 8
 531              		.cfi_def_cfa 2, 16
 532 0314 13010101 		addi	sp,sp,16
 533              		.cfi_def_cfa_offset 0
 534 0318 67800000 		jr	ra
 535              	.LVL48:
 536              	.L27:
GAS LISTING /tmp/ccluXRJq.s 			page 15


 537              		.cfi_restore_state
  94:src/TCB.cpp   ****     }
 538              		.loc 1 94 9 is_stmt 1
  94:src/TCB.cpp   ****     }
 539              		.loc 1 94 23 is_stmt 0
 540 031c 2330B504 		sd	a1,64(a0)
 541 0320 6FF01FFF 		j	.L23
 542              		.cfi_endproc
 543              	.LFE47:
 545              		.align	2
 546              		.globl	_ZN3TCB4joinEPS_
 548              	_ZN3TCB4joinEPS_:
 549              	.LFB45:
  66:src/TCB.cpp   ****     if (!handle->isFinished()) {
 550              		.loc 1 66 29 is_stmt 1
 551              		.cfi_startproc
 552              	.LVL49:
  67:src/TCB.cpp   ****         setBlocked(true);
 553              		.loc 1 67 5
 554              	.LBB43:
 555              	.LBB44:
  26:src/../h/TCB.hpp **** 
 556              		.loc 2 26 31
  26:src/../h/TCB.hpp **** 
 557              		.loc 2 26 38 is_stmt 0
 558 0324 03C70503 		lbu	a4,48(a1)
 559              	.LVL50:
 560              	.LBE44:
 561              	.LBE43:
  67:src/TCB.cpp   ****         setBlocked(true);
 562              		.loc 1 67 5
 563 0328 63040700 		beqz	a4,.L34
 564 032c 67800000 		ret
 565              	.L34:
  66:src/TCB.cpp   ****     if (!handle->isFinished()) {
 566              		.loc 1 66 29
 567 0330 130101FF 		addi	sp,sp,-16
 568              		.cfi_def_cfa_offset 16
 569 0334 23341100 		sd	ra,8(sp)
 570 0338 23308100 		sd	s0,0(sp)
 571              		.cfi_offset 1, -8
 572              		.cfi_offset 8, -16
 573 033c 13040101 		addi	s0,sp,16
 574              		.cfi_def_cfa 8, 0
 575 0340 93070500 		mv	a5,a0
 576 0344 13850500 		mv	a0,a1
 577              	.LVL51:
  68:src/TCB.cpp   ****         handle->add_blocked(TCB::running);
 578              		.loc 1 68 9 is_stmt 1
 579              	.LBB45:
 580              	.LBB46:
  36:src/../h/TCB.hpp **** 
 581              		.loc 2 36 36
  36:src/../h/TCB.hpp **** 
 582              		.loc 2 36 43 is_stmt 0
 583 0348 13071000 		li	a4,1
 584 034c A388E702 		sb	a4,49(a5)
GAS LISTING /tmp/ccluXRJq.s 			page 16


 585              	.LVL52:
 586              	.LBE46:
 587              	.LBE45:
  69:src/TCB.cpp   ****         dispatch();
 588              		.loc 1 69 9 is_stmt 1
  69:src/TCB.cpp   ****         dispatch();
 589              		.loc 1 69 28 is_stmt 0
 590 0350 97050000 		ld	a1,.LANCHOR0
 590      83B50500 
 591              	.LVL53:
 592 0358 97000000 		call	_ZN3TCB11add_blockedEPS_
 592      E7800000 
 593              	.LVL54:
  70:src/TCB.cpp   ****     }
 594              		.loc 1 70 9 is_stmt 1
  70:src/TCB.cpp   ****     }
 595              		.loc 1 70 17 is_stmt 0
 596 0360 97000000 		call	_ZN3TCB8dispatchEv
 596      E7800000 
 597              	.LVL55:
  72:src/TCB.cpp   **** 
 598              		.loc 1 72 1
 599 0368 83308100 		ld	ra,8(sp)
 600              		.cfi_restore 1
 601 036c 03340100 		ld	s0,0(sp)
 602              		.cfi_restore 8
 603              		.cfi_def_cfa 2, 16
 604 0370 13010101 		addi	sp,sp,16
 605              		.cfi_def_cfa_offset 0
 606 0374 67800000 		jr	ra
 607              		.cfi_endproc
 608              	.LFE45:
 610              		.align	2
 611              		.globl	_ZN3TCB14remove_blockedEv
 613              	_ZN3TCB14remove_blockedEv:
 614              	.LFB48:
 106:src/TCB.cpp   **** 
 107:src/TCB.cpp   **** TCB* TCB::remove_blocked()
 108:src/TCB.cpp   **** {
 615              		.loc 1 108 1 is_stmt 1
 616              		.cfi_startproc
 617              	.LVL56:
 618 0378 130101FF 		addi	sp,sp,-16
 619              		.cfi_def_cfa_offset 16
 620 037c 23348100 		sd	s0,8(sp)
 621              		.cfi_offset 8, -8
 622 0380 13040101 		addi	s0,sp,16
 623              		.cfi_def_cfa 8, 0
 624 0384 93070500 		mv	a5,a0
 109:src/TCB.cpp   ****     TCB* curr = blokirani_head;
 625              		.loc 1 109 5
 626              		.loc 1 109 10 is_stmt 0
 627 0388 03350504 		ld	a0,64(a0)
 628              	.LVL57:
 110:src/TCB.cpp   ****     if (curr== nullptr)return nullptr;
 629              		.loc 1 110 5 is_stmt 1
 630 038c 63080500 		beqz	a0,.L35
GAS LISTING /tmp/ccluXRJq.s 			page 17


 111:src/TCB.cpp   ****     blokirani_head = blokirani_head->next;
 631              		.loc 1 111 5
 632              		.loc 1 111 38 is_stmt 0
 633 0390 03378503 		ld	a4,56(a0)
 634              		.loc 1 111 20
 635 0394 23B0E704 		sd	a4,64(a5)
 112:src/TCB.cpp   ****     curr->next= nullptr;
 636              		.loc 1 112 5 is_stmt 1
 637              		.loc 1 112 15 is_stmt 0
 638 0398 233C0502 		sd	zero,56(a0)
 113:src/TCB.cpp   ****     return curr;
 639              		.loc 1 113 5 is_stmt 1
 640              	.L35:
 114:src/TCB.cpp   **** }
 641              		.loc 1 114 1 is_stmt 0
 642 039c 03348100 		ld	s0,8(sp)
 643              		.cfi_restore 8
 644              		.cfi_def_cfa 2, 16
 645 03a0 13010101 		addi	sp,sp,16
 646              		.cfi_def_cfa_offset 0
 647 03a4 67800000 		jr	ra
 648              		.cfi_endproc
 649              	.LFE48:
 651              		.align	2
 652              		.globl	_ZN3TCB4exitEv
 654              	_ZN3TCB4exitEv:
 655              	.LFB46:
  74:src/TCB.cpp   ****     if (TCB::running->isFinished() || TCB::running==nullptr){return -1;}
 656              		.loc 1 74 17 is_stmt 1
 657              		.cfi_startproc
  75:src/TCB.cpp   ****     TCB::running->setFinished(true);
 658              		.loc 1 75 5
  75:src/TCB.cpp   ****     TCB::running->setFinished(true);
 659              		.loc 1 75 33 is_stmt 0
 660 03a8 97070000 		ld	a5,.LANCHOR0
 660      83B70700 
 661              	.LVL58:
 662              	.LBB47:
 663              	.LBB48:
  26:src/../h/TCB.hpp **** 
 664              		.loc 2 26 31 is_stmt 1
  26:src/../h/TCB.hpp **** 
 665              		.loc 2 26 38 is_stmt 0
 666 03b0 03C70703 		lbu	a4,48(a5)
 667              	.LVL59:
 668              	.LBE48:
 669              	.LBE47:
  75:src/TCB.cpp   ****     TCB::running->setFinished(true);
 670              		.loc 1 75 36
 671 03b4 63100706 		bnez	a4,.L42
  75:src/TCB.cpp   ****     TCB::running->setFinished(true);
 672              		.loc 1 75 36 discriminator 2
 673 03b8 63820706 		beqz	a5,.L43
  74:src/TCB.cpp   ****     if (TCB::running->isFinished() || TCB::running==nullptr){return -1;}
 674              		.loc 1 74 17
 675 03bc 130101FF 		addi	sp,sp,-16
 676              		.cfi_def_cfa_offset 16
GAS LISTING /tmp/ccluXRJq.s 			page 18


 677 03c0 23341100 		sd	ra,8(sp)
 678 03c4 23308100 		sd	s0,0(sp)
 679              		.cfi_offset 1, -8
 680              		.cfi_offset 8, -16
 681 03c8 13040101 		addi	s0,sp,16
 682              		.cfi_def_cfa 8, 0
  76:src/TCB.cpp   ****     TCB* curr;
 683              		.loc 1 76 5 is_stmt 1
 684              	.LVL60:
 685              	.LBB49:
 686              	.LBB50:
  34:src/../h/TCB.hpp **** 
 687              		.loc 2 34 36
  34:src/../h/TCB.hpp **** 
 688              		.loc 2 34 45 is_stmt 0
 689 03cc 13071000 		li	a4,1
 690 03d0 2388E702 		sb	a4,48(a5)
 691              	.LVL61:
 692              	.L41:
 693              	.LBE50:
 694              	.LBE49:
  77:src/TCB.cpp   ****     while(1)
 695              		.loc 1 77 5 is_stmt 1
  78:src/TCB.cpp   ****     {
 696              		.loc 1 78 5
  80:src/TCB.cpp   ****         if (curr== nullptr)break;
 697              		.loc 1 80 9
  80:src/TCB.cpp   ****         if (curr== nullptr)break;
 698              		.loc 1 80 44 is_stmt 0
 699 03d4 17050000 		ld	a0,.LANCHOR0
 699      03350500 
 700 03dc 97000000 		call	_ZN3TCB14remove_blockedEv
 700      E7800000 
 701              	.LVL62:
  81:src/TCB.cpp   ****         curr->setBlocked(false);
 702              		.loc 1 81 9 is_stmt 1
 703 03e4 630A0500 		beqz	a0,.L40
  82:src/TCB.cpp   ****         Scheduler::put(curr);
 704              		.loc 1 82 9
 705              	.LVL63:
 706              	.LBB51:
 707              	.LBB52:
  36:src/../h/TCB.hpp **** 
 708              		.loc 2 36 36
  36:src/../h/TCB.hpp **** 
 709              		.loc 2 36 43 is_stmt 0
 710 03e8 A3080502 		sb	zero,49(a0)
 711              	.LVL64:
 712              	.LBE52:
 713              	.LBE51:
  83:src/TCB.cpp   ****     }
 714              		.loc 1 83 9 is_stmt 1
  83:src/TCB.cpp   ****     }
 715              		.loc 1 83 23 is_stmt 0
 716 03ec 97000000 		call	_ZN9Scheduler3putEP3TCB@plt
 716      E7800000 
 717              	.LVL65:
GAS LISTING /tmp/ccluXRJq.s 			page 19


  78:src/TCB.cpp   ****     {
 718              		.loc 1 78 5 is_stmt 1
  80:src/TCB.cpp   ****         if (curr== nullptr)break;
 719              		.loc 1 80 14 is_stmt 0
 720 03f4 6FF01FFE 		j	.L41
 721              	.LVL66:
 722              	.L40:
  86:src/TCB.cpp   ****     return 0;
 723              		.loc 1 86 5 is_stmt 1
  86:src/TCB.cpp   ****     return 0;
 724              		.loc 1 86 13 is_stmt 0
 725 03f8 97000000 		call	_ZN3TCB8dispatchEv
 725      E7800000 
 726              	.LVL67:
  87:src/TCB.cpp   **** }
 727              		.loc 1 87 5 is_stmt 1
  87:src/TCB.cpp   **** }
 728              		.loc 1 87 12 is_stmt 0
 729 0400 13050000 		li	a0,0
  88:src/TCB.cpp   **** 
 730              		.loc 1 88 1
 731 0404 83308100 		ld	ra,8(sp)
 732              		.cfi_restore 1
 733 0408 03340100 		ld	s0,0(sp)
 734              		.cfi_restore 8
 735              		.cfi_def_cfa 2, 16
 736 040c 13010101 		addi	sp,sp,16
 737              		.cfi_def_cfa_offset 0
 738 0410 67800000 		jr	ra
 739              	.L42:
  75:src/TCB.cpp   ****     TCB::running->setFinished(true);
 740              		.loc 1 75 70
 741 0414 1305F0FF 		li	a0,-1
 742 0418 67800000 		ret
 743              	.L43:
 744 041c 1305F0FF 		li	a0,-1
  88:src/TCB.cpp   **** 
 745              		.loc 1 88 1
 746 0420 67800000 		ret
 747              		.cfi_endproc
 748              	.LFE46:
 750              		.align	2
 751              		.globl	_ZN3TCB5startEPS_
 753              	_ZN3TCB5startEPS_:
 754              	.LFB49:
 115:src/TCB.cpp   **** 
 116:src/TCB.cpp   **** int TCB::start(TCB *handle)
 117:src/TCB.cpp   **** {
 755              		.loc 1 117 1 is_stmt 1
 756              		.cfi_startproc
 757              	.LVL68:
 118:src/TCB.cpp   ****     if (!handle->isStarted()) {
 758              		.loc 1 118 5
 759              	.LBB53:
 760              	.LBB54:
  30:src/../h/TCB.hpp **** 
 761              		.loc 2 30 30
GAS LISTING /tmp/ccluXRJq.s 			page 20


  30:src/../h/TCB.hpp **** 
 762              		.loc 2 30 37 is_stmt 0
 763 0424 83C72503 		lbu	a5,50(a1)
 764              	.LVL69:
 765              	.LBE54:
 766              	.LBE53:
 767              		.loc 1 118 5
 768 0428 639E0702 		bnez	a5,.L50
 117:src/TCB.cpp   ****     if (!handle->isStarted()) {
 769              		.loc 1 117 1
 770 042c 130101FF 		addi	sp,sp,-16
 771              		.cfi_def_cfa_offset 16
 772 0430 23341100 		sd	ra,8(sp)
 773 0434 23308100 		sd	s0,0(sp)
 774              		.cfi_offset 1, -8
 775              		.cfi_offset 8, -16
 776 0438 13040101 		addi	s0,sp,16
 777              		.cfi_def_cfa 8, 0
 778 043c 13850500 		mv	a0,a1
 779              	.LVL70:
 119:src/TCB.cpp   ****         handle->setStarted(true);
 780              		.loc 1 119 9 is_stmt 1
 781              	.LBB55:
 782              	.LBB56:
  38:src/../h/TCB.hpp **** 
 783              		.loc 2 38 35
  38:src/../h/TCB.hpp **** 
 784              		.loc 2 38 43 is_stmt 0
 785 0440 93071000 		li	a5,1
 786 0444 2389F502 		sb	a5,50(a1)
 787              	.LVL71:
 788              	.LBE56:
 789              	.LBE55:
 120:src/TCB.cpp   ****         Scheduler::put(handle);
 790              		.loc 1 120 9 is_stmt 1
 791              		.loc 1 120 23 is_stmt 0
 792 0448 97000000 		call	_ZN9Scheduler3putEP3TCB@plt
 792      E7800000 
 793              	.LVL72:
 121:src/TCB.cpp   ****         return 0;
 794              		.loc 1 121 9 is_stmt 1
 795              		.loc 1 121 16 is_stmt 0
 796 0450 13050000 		li	a0,0
 122:src/TCB.cpp   ****     }
 123:src/TCB.cpp   ****     return -1;
 124:src/TCB.cpp   **** }
 797              		.loc 1 124 1
 798 0454 83308100 		ld	ra,8(sp)
 799              		.cfi_restore 1
 800 0458 03340100 		ld	s0,0(sp)
 801              		.cfi_restore 8
 802              		.cfi_def_cfa 2, 16
 803 045c 13010101 		addi	sp,sp,16
 804              		.cfi_def_cfa_offset 0
 805 0460 67800000 		jr	ra
 806              	.LVL73:
 807              	.L50:
GAS LISTING /tmp/ccluXRJq.s 			page 21


 123:src/TCB.cpp   **** }
 808              		.loc 1 123 13
 809 0464 1305F0FF 		li	a0,-1
 810              	.LVL74:
 811              		.loc 1 124 1
 812 0468 67800000 		ret
 813              		.cfi_endproc
 814              	.LFE49:
 816              		.align	2
 817              		.globl	_ZN3TCB10makeThreadEPFvPvES0_Pmb
 819              	_ZN3TCB10makeThreadEPFvPvES0_Pmb:
 820              	.LFB50:
 125:src/TCB.cpp   **** 
 126:src/TCB.cpp   **** TCB *TCB::makeThread(TCB::Body body, void *arg, uint64 *stack, bool system_thread) {
 821              		.loc 1 126 84 is_stmt 1
 822              		.cfi_startproc
 823              	.LVL75:
 824 046c 130101FD 		addi	sp,sp,-48
 825              		.cfi_def_cfa_offset 48
 826 0470 23341102 		sd	ra,40(sp)
 827 0474 23308102 		sd	s0,32(sp)
 828 0478 233C9100 		sd	s1,24(sp)
 829 047c 23382101 		sd	s2,16(sp)
 830 0480 23343101 		sd	s3,8(sp)
 831 0484 23304101 		sd	s4,0(sp)
 832              		.cfi_offset 1, -8
 833              		.cfi_offset 8, -16
 834              		.cfi_offset 9, -24
 835              		.cfi_offset 18, -32
 836              		.cfi_offset 19, -40
 837              		.cfi_offset 20, -48
 838 0488 13040103 		addi	s0,sp,48
 839              		.cfi_def_cfa 8, 0
 840 048c 13090500 		mv	s2,a0
 841 0490 138A0500 		mv	s4,a1
 842 0494 93040600 		mv	s1,a2
 843 0498 93890600 		mv	s3,a3
 127:src/TCB.cpp   ****    TCB* curr = new TCB(body,arg,stack,system_thread);
 844              		.loc 1 127 4
 845              		.loc 1 127 52 is_stmt 0
 846 049c 13058004 		li	a0,72
 847              	.LVL76:
 848 04a0 97000000 		call	_ZN3TCBnwEm
 848      E7800000 
 849              	.LVL77:
 850              	.LBB57:
 851              	.LBB58:
  76:src/../h/TCB.hpp **** 
 852              		.loc 2 76 41
 853 04a8 23302501 		sd	s2,0(a0)
 854 04ac 23344501 		sd	s4,8(a0)
 855 04b0 23389500 		sd	s1,16(a0)
 856 04b4 93072000 		li	a5,2
 857 04b8 2334F502 		sd	a5,40(a0)
  79:src/../h/TCB.hpp ****                 blocked=false;
 858              		.loc 2 79 17 is_stmt 1
  79:src/../h/TCB.hpp ****                 blocked=false;
GAS LISTING /tmp/ccluXRJq.s 			page 22


 859              		.loc 2 79 25 is_stmt 0
 860 04bc 23080502 		sb	zero,48(a0)
  80:src/../h/TCB.hpp ****                 started=true;
 861              		.loc 2 80 17 is_stmt 1
  80:src/../h/TCB.hpp ****                 started=true;
 862              		.loc 2 80 24 is_stmt 0
 863 04c0 A3080502 		sb	zero,49(a0)
  81:src/../h/TCB.hpp ****                 system_thread=kernel_thread;
 864              		.loc 2 81 17 is_stmt 1
  81:src/../h/TCB.hpp ****                 system_thread=kernel_thread;
 865              		.loc 2 81 24 is_stmt 0
 866 04c4 93071000 		li	a5,1
 867 04c8 2309F502 		sb	a5,50(a0)
  82:src/../h/TCB.hpp ****                 next=nullptr;
 868              		.loc 2 82 17 is_stmt 1
  82:src/../h/TCB.hpp ****                 next=nullptr;
 869              		.loc 2 82 30 is_stmt 0
 870 04cc A3093503 		sb	s3,51(a0)
  83:src/../h/TCB.hpp ****                 blokirani_head=nullptr;
 871              		.loc 2 83 17 is_stmt 1
  83:src/../h/TCB.hpp ****                 blokirani_head=nullptr;
 872              		.loc 2 83 21 is_stmt 0
 873 04d0 233C0502 		sd	zero,56(a0)
  84:src/../h/TCB.hpp ****                 if (body!= nullptr)
 874              		.loc 2 84 17 is_stmt 1
  84:src/../h/TCB.hpp ****                 if (body!= nullptr)
 875              		.loc 2 84 31 is_stmt 0
 876 04d4 23300504 		sd	zero,64(a0)
  85:src/../h/TCB.hpp ****                 {
 877              		.loc 2 85 17 is_stmt 1
 878 04d8 63000904 		beqz	s2,.L56
  87:src/../h/TCB.hpp ****                 }
 879              		.loc 2 87 21
  87:src/../h/TCB.hpp ****                 }
 880              		.loc 2 87 65 is_stmt 0
 881 04dc 37860000 		li	a2,32768
 882 04e0 B384C400 		add	s1,s1,a2
 883              	.LVL78:
  87:src/../h/TCB.hpp ****                 }
 884              		.loc 2 87 29
 885 04e4 97070000 		lla	a5,_ZN3TCB13threadWrapperEv
 885      93870700 
 886 04ec 233CF500 		sd	a5,24(a0)
 887 04f0 23309502 		sd	s1,32(a0)
 888              	.L57:
 889              	.LVL79:
 890              	.LBE58:
 891              	.LBE57:
 128:src/TCB.cpp   ****     curr->setStarted(false);
 892              		.loc 1 128 5 is_stmt 1
 893              	.LBB60:
 894              	.LBB61:
  38:src/../h/TCB.hpp **** 
 895              		.loc 2 38 35
  38:src/../h/TCB.hpp **** 
 896              		.loc 2 38 43 is_stmt 0
 897 04f4 23090502 		sb	zero,50(a0)
GAS LISTING /tmp/ccluXRJq.s 			page 23


 898              	.LVL80:
 899              	.LBE61:
 900              	.LBE60:
 129:src/TCB.cpp   ****     return curr;
 901              		.loc 1 129 5 is_stmt 1
 130:src/TCB.cpp   **** }
 902              		.loc 1 130 1 is_stmt 0
 903 04f8 83308102 		ld	ra,40(sp)
 904              		.cfi_remember_state
 905              		.cfi_restore 1
 906 04fc 03340102 		ld	s0,32(sp)
 907              		.cfi_restore 8
 908              		.cfi_def_cfa 2, 48
 909 0500 83348101 		ld	s1,24(sp)
 910              		.cfi_restore 9
 911 0504 03390101 		ld	s2,16(sp)
 912              		.cfi_restore 18
 913              	.LVL81:
 914 0508 83398100 		ld	s3,8(sp)
 915              		.cfi_restore 19
 916 050c 033A0100 		ld	s4,0(sp)
 917              		.cfi_restore 20
 918              	.LVL82:
 919 0510 13010103 		addi	sp,sp,48
 920              		.cfi_def_cfa_offset 0
 921 0514 67800000 		jr	ra
 922              	.LVL83:
 923              	.L56:
 924              		.cfi_restore_state
 925              	.LBB62:
 926              	.LBB59:
 927              		.loc 2 91 19 is_stmt 1
 928              		.loc 2 91 27 is_stmt 0
 929 0518 233C0500 		sd	zero,24(a0)
 930 051c 23300502 		sd	zero,32(a0)
 931 0520 6FF05FFD 		j	.L57
 932              	.LBE59:
 933              	.LBE62:
 934              		.cfi_endproc
 935              	.LFE50:
 937              		.globl	_ZN3TCB16timeSliceCounterE
 938              		.globl	_ZN3TCB3outE
 939              		.globl	_ZN3TCB4idleE
 940              		.globl	_ZN3TCB7runningE
 941              		.bss
 942              		.align	3
 943              		.set	.LANCHOR0,. + 0
 946              	_ZN3TCB7runningE:
 947 0000 00000000 		.zero	8
 947      00000000 
 950              	_ZN3TCB16timeSliceCounterE:
 951 0008 00000000 		.zero	8
 951      00000000 
 954              	_ZN3TCB4idleE:
 955 0010 00000000 		.zero	8
 955      00000000 
 958              	_ZN3TCB3outE:
GAS LISTING /tmp/ccluXRJq.s 			page 24


 959 0018 00000000 		.zero	8
 959      00000000 
 960              		.text
 961              	.Letext0:
 962              		.file 3 "src/../h/../lib/hw.h"
 963              		.file 4 "src/../h/../h/MemoryAllocator.hpp"
 964              		.file 5 "src/../h/../h/syscall_c.h"
 965              		.file 6 "src/../h/../h/_sem.hpp"
 966              		.file 7 "src/../h/../h/Scheduler.hpp"
 967              		.file 8 "src/../h/../h/sleeping_list.hpp"
 968              		.file 9 "src/../h/../h/_Buffer.hpp"
 969              		.file 10 "src/../h/riscv.hpp"
GAS LISTING /tmp/ccluXRJq.s 			page 25

