GAS LISTING /tmp/ccU6qz9d.s 			page 1


   1              		.file	"Thread.cpp"
   2              		.option pic
   3              		.option norelax
   4              		.text
   5              	.Ltext0:
   6              		.section	.text._ZN6Thread3runEv,"axG",@progbits,_ZN6Thread3runEv,comdat
   7              		.align	2
   8              		.weak	_ZN6Thread3runEv
  10              	_ZN6Thread3runEv:
  11              	.LFB0:
  12              		.file 1 "src/../h/syscall_cpp.hpp"
   1:src/../h/syscall_cpp.hpp **** #ifndef _syscall_cpp
   2:src/../h/syscall_cpp.hpp **** #define _syscall_cpp
   3:src/../h/syscall_cpp.hpp **** #include "syscall_c.h"
   4:src/../h/syscall_cpp.hpp **** void* operator new (size_t);
   5:src/../h/syscall_cpp.hpp **** void  operator  delete (void*)noexcept;
   6:src/../h/syscall_cpp.hpp **** 
   7:src/../h/syscall_cpp.hpp **** class Thread {
   8:src/../h/syscall_cpp.hpp **** public:
   9:src/../h/syscall_cpp.hpp ****     Thread (void (*body)(void*), void* arg);
  10:src/../h/syscall_cpp.hpp ****     virtual ~Thread ();
  11:src/../h/syscall_cpp.hpp ****     int start ();
  12:src/../h/syscall_cpp.hpp ****     void join();
  13:src/../h/syscall_cpp.hpp ****     static void dispatch ();
  14:src/../h/syscall_cpp.hpp ****     static int sleep (time_t);
  15:src/../h/syscall_cpp.hpp ****     // Omotac kako bi mogao da se aktivira poziv za run() kada se nit pravi;
  16:src/../h/syscall_cpp.hpp ****     static void wrapper(void*);
  17:src/../h/syscall_cpp.hpp **** 
  18:src/../h/syscall_cpp.hpp **** 
  19:src/../h/syscall_cpp.hpp **** protected:
  20:src/../h/syscall_cpp.hpp ****     Thread ();
  21:src/../h/syscall_cpp.hpp ****     virtual void run () {}
  13              		.loc 1 21 18
  14              		.cfi_startproc
  15              	.LVL0:
  16 0000 130101FF 		addi	sp,sp,-16
  17              		.cfi_def_cfa_offset 16
  18 0004 23348100 		sd	s0,8(sp)
  19              		.cfi_offset 8, -8
  20 0008 13040101 		addi	s0,sp,16
  21              		.cfi_def_cfa 8, 0
  22              		.loc 1 21 26 is_stmt 0
  23 000c 03348100 		ld	s0,8(sp)
  24              		.cfi_restore 8
  25              		.cfi_def_cfa 2, 16
  26 0010 13010101 		addi	sp,sp,16
  27              		.cfi_def_cfa_offset 0
  28 0014 67800000 		jr	ra
  29              		.cfi_endproc
  30              	.LFE0:
  32              		.text
  33              		.align	2
  34              		.globl	_ZN6Thread7wrapperEPv
  36              	_ZN6Thread7wrapperEPv:
  37              	.LFB8:
  38              		.file 2 "src/Thread.cpp"
   1:src/Thread.cpp **** //
GAS LISTING /tmp/ccU6qz9d.s 			page 2


   2:src/Thread.cpp **** // Created by os on 5/19/23.
   3:src/Thread.cpp **** //
   4:src/Thread.cpp **** #include "../h/syscall_cpp.hpp"
   5:src/Thread.cpp **** 
   6:src/Thread.cpp **** Thread::Thread(void (*body)(void *), void *arg) :body(body),arg(arg){
   7:src/Thread.cpp ****     //Pravimo nit ali je ne stavljamo u Scheduler, za to imamo posebni sistemski poziv!
   8:src/Thread.cpp ****     thread_make(&myHandle, body, arg);
   9:src/Thread.cpp **** }
  10:src/Thread.cpp **** 
  11:src/Thread.cpp **** Thread::Thread(): Thread(Thread::wrapper, this){}
  12:src/Thread.cpp **** 
  13:src/Thread.cpp **** void Thread::wrapper(void *thr)
  14:src/Thread.cpp **** {
  39              		.loc 2 14 1 is_stmt 1
  40              		.cfi_startproc
  41              	.LVL1:
  42 0000 130101FF 		addi	sp,sp,-16
  43              		.cfi_def_cfa_offset 16
  44 0004 23341100 		sd	ra,8(sp)
  45 0008 23308100 		sd	s0,0(sp)
  46              		.cfi_offset 1, -8
  47              		.cfi_offset 8, -16
  48 000c 13040101 		addi	s0,sp,16
  49              		.cfi_def_cfa 8, 0
  15:src/Thread.cpp ****     ((Thread*)thr)->run();
  50              		.loc 2 15 5
  51              		.loc 2 15 25 is_stmt 0
  52 0010 83370500 		ld	a5,0(a0)
  53 0014 83B70701 		ld	a5,16(a5)
  54              		.loc 2 15 24
  55 0018 E7800700 		jalr	a5
  56              	.LVL2:
  16:src/Thread.cpp **** }
  57              		.loc 2 16 1
  58 001c 83308100 		ld	ra,8(sp)
  59              		.cfi_restore 1
  60 0020 03340100 		ld	s0,0(sp)
  61              		.cfi_restore 8
  62              		.cfi_def_cfa 2, 16
  63 0024 13010101 		addi	sp,sp,16
  64              		.cfi_def_cfa_offset 0
  65 0028 67800000 		jr	ra
  66              		.cfi_endproc
  67              	.LFE8:
  69              		.align	2
  70              		.globl	_ZN6ThreadD2Ev
  72              	_ZN6ThreadD2Ev:
  73              	.LFB14:
  17:src/Thread.cpp **** 
  18:src/Thread.cpp **** int Thread::start ()
  19:src/Thread.cpp **** {
  20:src/Thread.cpp ****     // Sistemski poziv dodat za thread_start()
  21:src/Thread.cpp ****    return thread_start(myHandle);
  22:src/Thread.cpp **** }
  23:src/Thread.cpp **** 
  24:src/Thread.cpp **** void Thread::join()
  25:src/Thread.cpp **** {
GAS LISTING /tmp/ccU6qz9d.s 			page 3


  26:src/Thread.cpp ****     thread_join(myHandle);
  27:src/Thread.cpp **** }
  28:src/Thread.cpp **** 
  29:src/Thread.cpp **** void Thread::dispatch ()
  30:src/Thread.cpp **** {
  31:src/Thread.cpp ****     thread_dispatch();
  32:src/Thread.cpp **** }
  33:src/Thread.cpp **** 
  34:src/Thread.cpp **** int Thread::sleep (time_t vreme)
  35:src/Thread.cpp **** {
  36:src/Thread.cpp ****     return time_sleep(vreme);
  37:src/Thread.cpp **** }
  38:src/Thread.cpp **** 
  39:src/Thread.cpp **** Thread::~Thread() {
  74              		.loc 2 39 1 is_stmt 1
  75              		.cfi_startproc
  76              		.cfi_personality 0x9b,DW.ref.__gxx_personality_v0
  77              		.cfi_lsda 0x1b,.LLSDA14
  78              	.LVL3:
  79 002c 130101FE 		addi	sp,sp,-32
  80              		.cfi_def_cfa_offset 32
  81 0030 233C1100 		sd	ra,24(sp)
  82 0034 23388100 		sd	s0,16(sp)
  83 0038 23349100 		sd	s1,8(sp)
  84              		.cfi_offset 1, -8
  85              		.cfi_offset 8, -16
  86              		.cfi_offset 9, -24
  87 003c 13040102 		addi	s0,sp,32
  88              		.cfi_def_cfa 8, 0
  89 0040 93040500 		mv	s1,a0
  90              	.LBB2:
  91              		.loc 2 39 17 is_stmt 0
  92 0044 97070000 		lla	a5,_ZTV6Thread+16
  92      93870700 
  93 004c 2330F500 		sd	a5,0(a0)
  40:src/Thread.cpp ****     // Ukoliko nit jos uvek radi cekamo nit da zavrsi!
  41:src/Thread.cpp ****     thread_join(myHandle);
  94              		.loc 2 41 5 is_stmt 1
  95              		.loc 2 41 16 is_stmt 0
  96 0050 03358500 		ld	a0,8(a0)
  97              	.LVL4:
  98 0054 97000000 		call	_Z11thread_joinP3TCB@plt
  98      E7800000 
  99              	.LVL5:
  42:src/Thread.cpp ****     thread_delete(myHandle);
 100              		.loc 2 42 5 is_stmt 1
 101              		.loc 2 42 18 is_stmt 0
 102 005c 03B58400 		ld	a0,8(s1)
 103 0060 97000000 		call	_Z13thread_deleteP3TCB@plt
 103      E7800000 
 104              	.LVL6:
 105              	.LBE2:
  43:src/Thread.cpp **** 
  44:src/Thread.cpp **** }
 106              		.loc 2 44 1
 107 0068 83308101 		ld	ra,24(sp)
 108              		.cfi_restore 1
GAS LISTING /tmp/ccU6qz9d.s 			page 4


 109 006c 03340101 		ld	s0,16(sp)
 110              		.cfi_restore 8
 111              		.cfi_def_cfa 2, 32
 112 0070 83348100 		ld	s1,8(sp)
 113              		.cfi_restore 9
 114              	.LVL7:
 115 0074 13010102 		addi	sp,sp,32
 116              		.cfi_def_cfa_offset 0
 117 0078 67800000 		jr	ra
 118              		.cfi_endproc
 119              	.LFE14:
 120              		.globl	__gxx_personality_v0
 121              		.section	.gcc_except_table,"a",@progbits
 122              	.LLSDA14:
 123 0000 FF       		.byte	0xff
 124 0001 FF       		.byte	0xff
 125 0002 03       		.byte	0x3
 126 0003 00       		.byte	0
 127              		.text
 129              		.globl	_ZN6ThreadD1Ev
 130              		.set	_ZN6ThreadD1Ev,_ZN6ThreadD2Ev
 131              		.align	2
 132              		.globl	_ZN6ThreadD0Ev
 134              	_ZN6ThreadD0Ev:
 135              	.LFB16:
  39:src/Thread.cpp ****     // Ukoliko nit jos uvek radi cekamo nit da zavrsi!
 136              		.loc 2 39 1 is_stmt 1
 137              		.cfi_startproc
 138              	.LVL8:
 139 007c 130101FE 		addi	sp,sp,-32
 140              		.cfi_def_cfa_offset 32
 141 0080 233C1100 		sd	ra,24(sp)
 142 0084 23388100 		sd	s0,16(sp)
 143 0088 23349100 		sd	s1,8(sp)
 144              		.cfi_offset 1, -8
 145              		.cfi_offset 8, -16
 146              		.cfi_offset 9, -24
 147 008c 13040102 		addi	s0,sp,32
 148              		.cfi_def_cfa 8, 0
 149 0090 93040500 		mv	s1,a0
 150              		.loc 2 44 1 is_stmt 0
 151 0094 97000000 		call	_ZN6ThreadD1Ev
 151      E7800000 
 152              	.LVL9:
 153 009c 13850400 		mv	a0,s1
 154 00a0 97000000 		call	_ZdlPv@plt
 154      E7800000 
 155              	.LVL10:
 156 00a8 83308101 		ld	ra,24(sp)
 157              		.cfi_restore 1
 158 00ac 03340101 		ld	s0,16(sp)
 159              		.cfi_restore 8
 160              		.cfi_def_cfa 2, 32
 161 00b0 83348100 		ld	s1,8(sp)
 162              		.cfi_restore 9
 163              	.LVL11:
 164 00b4 13010102 		addi	sp,sp,32
GAS LISTING /tmp/ccU6qz9d.s 			page 5


 165              		.cfi_def_cfa_offset 0
 166 00b8 67800000 		jr	ra
 167              		.cfi_endproc
 168              	.LFE16:
 170              		.align	2
 171              		.globl	_ZN6ThreadC2EPFvPvES0_
 173              	_ZN6ThreadC2EPFvPvES0_:
 174              	.LFB3:
   6:src/Thread.cpp ****     //Pravimo nit ali je ne stavljamo u Scheduler, za to imamo posebni sistemski poziv!
 175              		.loc 2 6 1 is_stmt 1
 176              		.cfi_startproc
 177              	.LVL12:
 178 00bc 130101FF 		addi	sp,sp,-16
 179              		.cfi_def_cfa_offset 16
 180 00c0 23341100 		sd	ra,8(sp)
 181 00c4 23308100 		sd	s0,0(sp)
 182              		.cfi_offset 1, -8
 183              		.cfi_offset 8, -16
 184 00c8 13040101 		addi	s0,sp,16
 185              		.cfi_def_cfa 8, 0
 186              	.LBB3:
   6:src/Thread.cpp ****     //Pravimo nit ali je ne stavljamo u Scheduler, za to imamo posebni sistemski poziv!
 187              		.loc 2 6 68 is_stmt 0
 188 00cc 97070000 		lla	a5,_ZTV6Thread+16
 188      93870700 
 189 00d4 2330F500 		sd	a5,0(a0)
 190 00d8 2338B500 		sd	a1,16(a0)
 191 00dc 233CC500 		sd	a2,24(a0)
   8:src/Thread.cpp **** }
 192              		.loc 2 8 5 is_stmt 1
   8:src/Thread.cpp **** }
 193              		.loc 2 8 16 is_stmt 0
 194 00e0 13058500 		addi	a0,a0,8
 195              	.LVL13:
 196 00e4 97000000 		call	_Z11thread_makePP3TCBPFvPvES2_@plt
 196      E7800000 
 197              	.LVL14:
 198              	.LBE3:
   9:src/Thread.cpp **** 
 199              		.loc 2 9 1
 200 00ec 83308100 		ld	ra,8(sp)
 201              		.cfi_restore 1
 202 00f0 03340100 		ld	s0,0(sp)
 203              		.cfi_restore 8
 204              		.cfi_def_cfa 2, 16
 205 00f4 13010101 		addi	sp,sp,16
 206              		.cfi_def_cfa_offset 0
 207 00f8 67800000 		jr	ra
 208              		.cfi_endproc
 209              	.LFE3:
 211              		.globl	_ZN6ThreadC1EPFvPvES0_
 212              		.set	_ZN6ThreadC1EPFvPvES0_,_ZN6ThreadC2EPFvPvES0_
 213              		.align	2
 214              		.globl	_ZN6ThreadC2Ev
 216              	_ZN6ThreadC2Ev:
 217              	.LFB6:
  11:src/Thread.cpp **** 
GAS LISTING /tmp/ccU6qz9d.s 			page 6


 218              		.loc 2 11 1 is_stmt 1
 219              		.cfi_startproc
 220              	.LVL15:
 221 00fc 130101FF 		addi	sp,sp,-16
 222              		.cfi_def_cfa_offset 16
 223 0100 23341100 		sd	ra,8(sp)
 224 0104 23308100 		sd	s0,0(sp)
 225              		.cfi_offset 1, -8
 226              		.cfi_offset 8, -16
 227 0108 13040101 		addi	s0,sp,16
 228              		.cfi_def_cfa 8, 0
 229 010c 13060500 		mv	a2,a0
 230              	.LBB4:
  11:src/Thread.cpp **** 
 231              		.loc 2 11 47 is_stmt 0
 232 0110 97050000 		lla	a1,_ZN6Thread7wrapperEPv
 232      93850500 
 233 0118 97000000 		call	_ZN6ThreadC1EPFvPvES0_
 233      E7800000 
 234              	.LVL16:
 235              	.LBE4:
  11:src/Thread.cpp **** 
 236              		.loc 2 11 49
 237 0120 83308100 		ld	ra,8(sp)
 238              		.cfi_restore 1
 239 0124 03340100 		ld	s0,0(sp)
 240              		.cfi_restore 8
 241              		.cfi_def_cfa 2, 16
 242 0128 13010101 		addi	sp,sp,16
 243              		.cfi_def_cfa_offset 0
 244 012c 67800000 		jr	ra
 245              		.cfi_endproc
 246              	.LFE6:
 248              		.globl	_ZN6ThreadC1Ev
 249              		.set	_ZN6ThreadC1Ev,_ZN6ThreadC2Ev
 250              		.align	2
 251              		.globl	_ZN6Thread5startEv
 253              	_ZN6Thread5startEv:
 254              	.LFB9:
  19:src/Thread.cpp ****     // Sistemski poziv dodat za thread_start()
 255              		.loc 2 19 1 is_stmt 1
 256              		.cfi_startproc
 257              	.LVL17:
 258 0130 130101FF 		addi	sp,sp,-16
 259              		.cfi_def_cfa_offset 16
 260 0134 23341100 		sd	ra,8(sp)
 261 0138 23308100 		sd	s0,0(sp)
 262              		.cfi_offset 1, -8
 263              		.cfi_offset 8, -16
 264 013c 13040101 		addi	s0,sp,16
 265              		.cfi_def_cfa 8, 0
  21:src/Thread.cpp **** }
 266              		.loc 2 21 4
  21:src/Thread.cpp **** }
 267              		.loc 2 21 23 is_stmt 0
 268 0140 03358500 		ld	a0,8(a0)
 269              	.LVL18:
GAS LISTING /tmp/ccU6qz9d.s 			page 7


 270 0144 97000000 		call	_Z12thread_startP3TCB@plt
 270      E7800000 
 271              	.LVL19:
  22:src/Thread.cpp **** 
 272              		.loc 2 22 1
 273 014c 83308100 		ld	ra,8(sp)
 274              		.cfi_restore 1
 275 0150 03340100 		ld	s0,0(sp)
 276              		.cfi_restore 8
 277              		.cfi_def_cfa 2, 16
 278 0154 13010101 		addi	sp,sp,16
 279              		.cfi_def_cfa_offset 0
 280 0158 67800000 		jr	ra
 281              		.cfi_endproc
 282              	.LFE9:
 284              		.align	2
 285              		.globl	_ZN6Thread4joinEv
 287              	_ZN6Thread4joinEv:
 288              	.LFB10:
  25:src/Thread.cpp ****     thread_join(myHandle);
 289              		.loc 2 25 1 is_stmt 1
 290              		.cfi_startproc
 291              	.LVL20:
 292 015c 130101FF 		addi	sp,sp,-16
 293              		.cfi_def_cfa_offset 16
 294 0160 23341100 		sd	ra,8(sp)
 295 0164 23308100 		sd	s0,0(sp)
 296              		.cfi_offset 1, -8
 297              		.cfi_offset 8, -16
 298 0168 13040101 		addi	s0,sp,16
 299              		.cfi_def_cfa 8, 0
  26:src/Thread.cpp **** }
 300              		.loc 2 26 5
  26:src/Thread.cpp **** }
 301              		.loc 2 26 16 is_stmt 0
 302 016c 03358500 		ld	a0,8(a0)
 303              	.LVL21:
 304 0170 97000000 		call	_Z11thread_joinP3TCB@plt
 304      E7800000 
 305              	.LVL22:
  27:src/Thread.cpp **** 
 306              		.loc 2 27 1
 307 0178 83308100 		ld	ra,8(sp)
 308              		.cfi_restore 1
 309 017c 03340100 		ld	s0,0(sp)
 310              		.cfi_restore 8
 311              		.cfi_def_cfa 2, 16
 312 0180 13010101 		addi	sp,sp,16
 313              		.cfi_def_cfa_offset 0
 314 0184 67800000 		jr	ra
 315              		.cfi_endproc
 316              	.LFE10:
 318              		.align	2
 319              		.globl	_ZN6Thread8dispatchEv
 321              	_ZN6Thread8dispatchEv:
 322              	.LFB11:
  30:src/Thread.cpp ****     thread_dispatch();
GAS LISTING /tmp/ccU6qz9d.s 			page 8


 323              		.loc 2 30 1 is_stmt 1
 324              		.cfi_startproc
 325 0188 130101FF 		addi	sp,sp,-16
 326              		.cfi_def_cfa_offset 16
 327 018c 23341100 		sd	ra,8(sp)
 328 0190 23308100 		sd	s0,0(sp)
 329              		.cfi_offset 1, -8
 330              		.cfi_offset 8, -16
 331 0194 13040101 		addi	s0,sp,16
 332              		.cfi_def_cfa 8, 0
  31:src/Thread.cpp **** }
 333              		.loc 2 31 5
  31:src/Thread.cpp **** }
 334              		.loc 2 31 20 is_stmt 0
 335 0198 97000000 		call	_Z15thread_dispatchv@plt
 335      E7800000 
 336              	.LVL23:
  32:src/Thread.cpp **** 
 337              		.loc 2 32 1
 338 01a0 83308100 		ld	ra,8(sp)
 339              		.cfi_restore 1
 340 01a4 03340100 		ld	s0,0(sp)
 341              		.cfi_restore 8
 342              		.cfi_def_cfa 2, 16
 343 01a8 13010101 		addi	sp,sp,16
 344              		.cfi_def_cfa_offset 0
 345 01ac 67800000 		jr	ra
 346              		.cfi_endproc
 347              	.LFE11:
 349              		.align	2
 350              		.globl	_ZN6Thread5sleepEm
 352              	_ZN6Thread5sleepEm:
 353              	.LFB12:
  35:src/Thread.cpp ****     return time_sleep(vreme);
 354              		.loc 2 35 1 is_stmt 1
 355              		.cfi_startproc
 356              	.LVL24:
 357 01b0 130101FF 		addi	sp,sp,-16
 358              		.cfi_def_cfa_offset 16
 359 01b4 23341100 		sd	ra,8(sp)
 360 01b8 23308100 		sd	s0,0(sp)
 361              		.cfi_offset 1, -8
 362              		.cfi_offset 8, -16
 363 01bc 13040101 		addi	s0,sp,16
 364              		.cfi_def_cfa 8, 0
  36:src/Thread.cpp **** }
 365              		.loc 2 36 5
  36:src/Thread.cpp **** }
 366              		.loc 2 36 22 is_stmt 0
 367 01c0 97000000 		call	_Z10time_sleepm@plt
 367      E7800000 
 368              	.LVL25:
  37:src/Thread.cpp **** 
 369              		.loc 2 37 1
 370 01c8 83308100 		ld	ra,8(sp)
 371              		.cfi_restore 1
 372 01cc 03340100 		ld	s0,0(sp)
GAS LISTING /tmp/ccU6qz9d.s 			page 9


 373              		.cfi_restore 8
 374              		.cfi_def_cfa 2, 16
 375 01d0 13010101 		addi	sp,sp,16
 376              		.cfi_def_cfa_offset 0
 377 01d4 67800000 		jr	ra
 378              		.cfi_endproc
 379              	.LFE12:
 381              		.weak	_ZTV6Thread
 382              		.section	.data.rel.ro.local._ZTV6Thread,"awG",@progbits,_ZTV6Thread,comdat
 383              		.align	3
 386              	_ZTV6Thread:
 387 0000 00000000 		.dword	0
 387      00000000 
 388 0008 00000000 		.dword	0
 388      00000000 
 389 0010 00000000 		.dword	_ZN6ThreadD1Ev
 389      00000000 
 390 0018 00000000 		.dword	_ZN6ThreadD0Ev
 390      00000000 
 391 0020 00000000 		.dword	_ZN6Thread3runEv
 391      00000000 
 392              		.text
 393              	.Letext0:
 394              		.file 3 "src/../h/../lib/hw.h"
 395              		.file 4 "src/../h/syscall_c.h"
 2266              		.align	3
 2269              	DW.ref.__gxx_personality_v0:
 2270 0000 00000000 		.dword	__gxx_personality_v0
 2270      00000000 
 2271              		.ident	"GCC: (Ubuntu 9.4.0-1ubuntu1~20.04) 9.4.0"
 2272              		.section	.note.GNU-stack,"",@progbits
GAS LISTING /tmp/ccU6qz9d.s 			page 10

