GAS LISTING /tmp/ccU6qz9d.s 			page 1


   1              		.file	"Thread.cpp"
   2              		.option pic
   3              		.option norelax
   4              		.text
   5              	.Ltext0:
   6              		.section	.text._ZN6Thread3runEv,"axG",@progbits,_ZN6Thread3runEv,comdat
   7              		.align	2
   8              		.weak	_ZN6Thread3runEv
  10              	_ZN6Thread3runEv:
  11              	.LFB0:
  12              		.file 1 "src/../h/syscall_cpp.hpp"
   1:src/../h/syscall_cpp.hpp **** #ifndef _syscall_cpp
   2:src/../h/syscall_cpp.hpp **** #define _syscall_cpp
   3:src/../h/syscall_cpp.hpp **** #include "syscall_c.h"
   4:src/../h/syscall_cpp.hpp **** void* operator new (size_t);
   5:src/../h/syscall_cpp.hpp **** void  operator  delete (void*)noexcept;
   6:src/../h/syscall_cpp.hpp **** 
   7:src/../h/syscall_cpp.hpp **** class Thread {
   8:src/../h/syscall_cpp.hpp **** public:
   9:src/../h/syscall_cpp.hpp ****     Thread (void (*body)(void*), void* arg);
  10:src/../h/syscall_cpp.hpp ****     virtual ~Thread ();
  11:src/../h/syscall_cpp.hpp ****     int start ();
  12:src/../h/syscall_cpp.hpp ****     void join();
  13:src/../h/syscall_cpp.hpp ****     static void dispatch ();
  14:src/../h/syscall_cpp.hpp ****     static int sleep (time_t);
  15:src/../h/syscall_cpp.hpp ****     // Omotac kako bi mogao da se aktivira poziv za run() kada se nit pravi;
  16:src/../h/syscall_cpp.hpp ****     static void wrapper(void*);
  17:src/../h/syscall_cpp.hpp **** 
  18:src/../h/syscall_cpp.hpp **** 
  19:src/../h/syscall_cpp.hpp **** protected:
  20:src/../h/syscall_cpp.hpp ****     Thread ();
  21:src/../h/syscall_cpp.hpp ****     virtual void run () {}
  13              		.loc 1 21 18
  14              		.cfi_startproc
  15              	.LVL0:
  16 0000 130101FF 		addi	sp,sp,-16
  17              		.cfi_def_cfa_offset 16
  18 0004 23348100 		sd	s0,8(sp)
  19              		.cfi_offset 8, -8
  20 0008 13040101 		addi	s0,sp,16
  21              		.cfi_def_cfa 8, 0
  22              		.loc 1 21 26 is_stmt 0
  23 000c 03348100 		ld	s0,8(sp)
  24              		.cfi_restore 8
  25              		.cfi_def_cfa 2, 16
  26 0010 13010101 		addi	sp,sp,16
  27              		.cfi_def_cfa_offset 0
  28 0014 67800000 		jr	ra
  29              		.cfi_endproc
  30              	.LFE0:
  32              		.text
  33              		.align	2
  34              		.globl	_ZN6Thread7wrapperEPv
  36              	_ZN6Thread7wrapperEPv:
  37              	.LFB8:
  38              		.file 2 "src/Thread.cpp"
   1:src/Thread.cpp **** //
GAS LISTING /tmp/ccU6qz9d.s 			page 2


   2:src/Thread.cpp **** // Created by os on 5/19/23.
   3:src/Thread.cpp **** //
   4:src/Thread.cpp **** #include "../h/syscall_cpp.hpp"
   5:src/Thread.cpp **** 
   6:src/Thread.cpp **** Thread::Thread(void (*body)(void *), void *arg) :body(body),arg(arg){
   7:src/Thread.cpp ****     //Pravimo nit ali je ne stavljamo u Scheduler, za to imamo posebni sistemski poziv!
   8:src/Thread.cpp ****     thread_make(&myHandle, body, arg);
   9:src/Thread.cpp **** }
  10:src/Thread.cpp **** 
  11:src/Thread.cpp **** Thread::Thread(): Thread(Thread::wrapper, this){}
  12:src/Thread.cpp **** 
  13:src/Thread.cpp **** void Thread::wrapper(void *thr)
  14:src/Thread.cpp **** {
  39              		.loc 2 14 1 is_stmt 1
  40              		.cfi_startproc
  41              	.LVL1:
  42 0000 130101FF 		addi	sp,sp,-16
  43              		.cfi_def_cfa_offset 16
  44 0004 23341100 		sd	ra,8(sp)
  45 0008 23308100 		sd	s0,0(sp)
  46              		.cfi_offset 1, -8
  47              		.cfi_offset 8, -16
  48 000c 13040101 		addi	s0,sp,16
  49              		.cfi_def_cfa 8, 0
  15:src/Thread.cpp ****     ((Thread*)thr)->run();
  50              		.loc 2 15 5
  51              		.loc 2 15 25 is_stmt 0
  52 0010 83370500 		ld	a5,0(a0)
  53 0014 83B70701 		ld	a5,16(a5)
  54              		.loc 2 15 24
  55 0018 E7800700 		jalr	a5
  56              	.LVL2:
  16:src/Thread.cpp **** }
  57              		.loc 2 16 1
  58 001c 83308100 		ld	ra,8(sp)
  59              		.cfi_restore 1
  60 0020 03340100 		ld	s0,0(sp)
  61              		.cfi_restore 8
  62              		.cfi_def_cfa 2, 16
  63 0024 13010101 		addi	sp,sp,16
  64              		.cfi_def_cfa_offset 0
  65 0028 67800000 		jr	ra
  66              		.cfi_endproc
  67              	.LFE8:
  69              		.align	2
  70              		.globl	_ZN6ThreadD2Ev
  72              	_ZN6ThreadD2Ev:
  73              	.LFB14:
  17:src/Thread.cpp **** 
  18:src/Thread.cpp **** int Thread::start ()
  19:src/Thread.cpp **** {
  20:src/Thread.cpp ****     // Sistemski poziv dodat za thread_start()
  21:src/Thread.cpp ****    return thread_start(myHandle);
  22:src/Thread.cpp **** }
  23:src/Thread.cpp **** 
  24:src/Thread.cpp **** void Thread::join()
  25:src/Thread.cpp **** {
GAS LISTING /tmp/ccU6qz9d.s 			page 3


  26:src/Thread.cpp ****     thread_join(myHandle);
  27:src/Thread.cpp **** }
  28:src/Thread.cpp **** 
  29:src/Thread.cpp **** void Thread::dispatch ()
  30:src/Thread.cpp **** {
  31:src/Thread.cpp ****     thread_dispatch();
  32:src/Thread.cpp **** }
  33:src/Thread.cpp **** 
  34:src/Thread.cpp **** int Thread::sleep (time_t vreme)
  35:src/Thread.cpp **** {
  36:src/Thread.cpp ****     return time_sleep(vreme);
  37:src/Thread.cpp **** }
  38:src/Thread.cpp **** 
  39:src/Thread.cpp **** Thread::~Thread() {
  74              		.loc 2 39 1 is_stmt 1
  75              		.cfi_startproc
  76              		.cfi_personality 0x9b,DW.ref.__gxx_personality_v0
  77              		.cfi_lsda 0x1b,.LLSDA14
  78              	.LVL3:
  79 002c 130101FE 		addi	sp,sp,-32
  80              		.cfi_def_cfa_offset 32
  81 0030 233C1100 		sd	ra,24(sp)
  82 0034 23388100 		sd	s0,16(sp)
  83 0038 23349100 		sd	s1,8(sp)
  84              		.cfi_offset 1, -8
  85              		.cfi_offset 8, -16
  86              		.cfi_offset 9, -24
  87 003c 13040102 		addi	s0,sp,32
  88              		.cfi_def_cfa 8, 0
  89 0040 93040500 		mv	s1,a0
  90              	.LBB2:
  91              		.loc 2 39 17 is_stmt 0
  92 0044 97070000 		lla	a5,_ZTV6Thread+16
  92      93870700 
  93 004c 2330F500 		sd	a5,0(a0)
  40:src/Thread.cpp ****     // Ukoliko nit jos uvek radi cekamo nit da zavrsi!
  41:src/Thread.cpp ****     thread_join(myHandle);
  94              		.loc 2 41 5 is_stmt 1
  95              		.loc 2 41 16 is_stmt 0
  96 0050 03358500 		ld	a0,8(a0)
  97              	.LVL4:
  98 0054 97000000 		call	_Z11thread_joinP3TCB@plt
  98      E7800000 
  99              	.LVL5:
  42:src/Thread.cpp ****     thread_delete(myHandle);
 100              		.loc 2 42 5 is_stmt 1
 101              		.loc 2 42 18 is_stmt 0
 102 005c 03B58400 		ld	a0,8(s1)
 103 0060 97000000 		call	_Z13thread_deleteP3TCB@plt
 103      E7800000 
 104              	.LVL6:
 105              	.LBE2:
  43:src/Thread.cpp **** 
  44:src/Thread.cpp **** }
 106              		.loc 2 44 1
 107 0068 83308101 		ld	ra,24(sp)
 108              		.cfi_restore 1
GAS LISTING /tmp/ccU6qz9d.s 			page 4


 109 006c 03340101 		ld	s0,16(sp)
 110              		.cfi_restore 8
 111              		.cfi_def_cfa 2, 32
 112 0070 83348100 		ld	s1,8(sp)
 113              		.cfi_restore 9
 114              	.LVL7:
 115 0074 13010102 		addi	sp,sp,32
 116              		.cfi_def_cfa_offset 0
 117 0078 67800000 		jr	ra
 118              		.cfi_endproc
 119              	.LFE14:
 120              		.globl	__gxx_personality_v0
 121              		.section	.gcc_except_table,"a",@progbits
 122              	.LLSDA14:
 123 0000 FF       		.byte	0xff
 124 0001 FF       		.byte	0xff
 125 0002 03       		.byte	0x3
 126 0003 00       		.byte	0
 127              		.text
 129              		.globl	_ZN6ThreadD1Ev
 130              		.set	_ZN6ThreadD1Ev,_ZN6ThreadD2Ev
 131              		.align	2
 132              		.globl	_ZN6ThreadD0Ev
 134              	_ZN6ThreadD0Ev:
 135              	.LFB16:
  39:src/Thread.cpp ****     // Ukoliko nit jos uvek radi cekamo nit da zavrsi!
 136              		.loc 2 39 1 is_stmt 1
 137              		.cfi_startproc
 138              	.LVL8:
 139 007c 130101FE 		addi	sp,sp,-32
 140              		.cfi_def_cfa_offset 32
 141 0080 233C1100 		sd	ra,24(sp)
 142 0084 23388100 		sd	s0,16(sp)
 143 0088 23349100 		sd	s1,8(sp)
 144              		.cfi_offset 1, -8
 145              		.cfi_offset 8, -16
 146              		.cfi_offset 9, -24
 147 008c 13040102 		addi	s0,sp,32
 148              		.cfi_def_cfa 8, 0
 149 0090 93040500 		mv	s1,a0
 150              		.loc 2 44 1 is_stmt 0
 151 0094 97000000 		call	_ZN6ThreadD1Ev
 151      E7800000 
 152              	.LVL9:
 153 009c 13850400 		mv	a0,s1
 154 00a0 97000000 		call	_ZdlPv@plt
 154      E7800000 
 155              	.LVL10:
 156 00a8 83308101 		ld	ra,24(sp)
 157              		.cfi_restore 1
 158 00ac 03340101 		ld	s0,16(sp)
 159              		.cfi_restore 8
 160              		.cfi_def_cfa 2, 32
 161 00b0 83348100 		ld	s1,8(sp)
 162              		.cfi_restore 9
 163              	.LVL11:
 164 00b4 13010102 		addi	sp,sp,32
GAS LISTING /tmp/ccU6qz9d.s 			page 5


 165              		.cfi_def_cfa_offset 0
 166 00b8 67800000 		jr	ra
 167              		.cfi_endproc
 168              	.LFE16:
 170              		.align	2
 171              		.globl	_ZN6ThreadC2EPFvPvES0_
 173              	_ZN6ThreadC2EPFvPvES0_:
 174              	.LFB3:
   6:src/Thread.cpp ****     //Pravimo nit ali je ne stavljamo u Scheduler, za to imamo posebni sistemski poziv!
 175              		.loc 2 6 1 is_stmt 1
 176              		.cfi_startproc
 177              	.LVL12:
 178 00bc 130101FF 		addi	sp,sp,-16
 179              		.cfi_def_cfa_offset 16
 180 00c0 23341100 		sd	ra,8(sp)
 181 00c4 23308100 		sd	s0,0(sp)
 182              		.cfi_offset 1, -8
 183              		.cfi_offset 8, -16
 184 00c8 13040101 		addi	s0,sp,16
 185              		.cfi_def_cfa 8, 0
 186              	.LBB3:
   6:src/Thread.cpp ****     //Pravimo nit ali je ne stavljamo u Scheduler, za to imamo posebni sistemski poziv!
 187              		.loc 2 6 68 is_stmt 0
 188 00cc 97070000 		lla	a5,_ZTV6Thread+16
 188      93870700 
 189 00d4 2330F500 		sd	a5,0(a0)
 190 00d8 2338B500 		sd	a1,16(a0)
 191 00dc 233CC500 		sd	a2,24(a0)
   8:src/Thread.cpp **** }
 192              		.loc 2 8 5 is_stmt 1
   8:src/Thread.cpp **** }
 193              		.loc 2 8 16 is_stmt 0
 194 00e0 13058500 		addi	a0,a0,8
 195              	.LVL13:
 196 00e4 97000000 		call	_Z11thread_makePP3TCBPFvPvES2_@plt
 196      E7800000 
 197              	.LVL14:
 198              	.LBE3:
   9:src/Thread.cpp **** 
 199              		.loc 2 9 1
 200 00ec 83308100 		ld	ra,8(sp)
 201              		.cfi_restore 1
 202 00f0 03340100 		ld	s0,0(sp)
 203              		.cfi_restore 8
 204              		.cfi_def_cfa 2, 16
 205 00f4 13010101 		addi	sp,sp,16
 206              		.cfi_def_cfa_offset 0
 207 00f8 67800000 		jr	ra
 208              		.cfi_endproc
 209              	.LFE3:
 211              		.globl	_ZN6ThreadC1EPFvPvES0_
 212              		.set	_ZN6ThreadC1EPFvPvES0_,_ZN6ThreadC2EPFvPvES0_
 213              		.align	2
 214              		.globl	_ZN6ThreadC2Ev
 216              	_ZN6ThreadC2Ev:
 217              	.LFB6:
  11:src/Thread.cpp **** 
GAS LISTING /tmp/ccU6qz9d.s 			page 6


 218              		.loc 2 11 1 is_stmt 1
 219              		.cfi_startproc
 220              	.LVL15:
 221 00fc 130101FF 		addi	sp,sp,-16
 222              		.cfi_def_cfa_offset 16
 223 0100 23341100 		sd	ra,8(sp)
 224 0104 23308100 		sd	s0,0(sp)
 225              		.cfi_offset 1, -8
 226              		.cfi_offset 8, -16
 227 0108 13040101 		addi	s0,sp,16
 228              		.cfi_def_cfa 8, 0
 229 010c 13060500 		mv	a2,a0
 230              	.LBB4:
  11:src/Thread.cpp **** 
 231              		.loc 2 11 47 is_stmt 0
 232 0110 97050000 		lla	a1,_ZN6Thread7wrapperEPv
 232      93850500 
 233 0118 97000000 		call	_ZN6ThreadC1EPFvPvES0_
 233      E7800000 
 234              	.LVL16:
 235              	.LBE4:
  11:src/Thread.cpp **** 
 236              		.loc 2 11 49
 237 0120 83308100 		ld	ra,8(sp)
 238              		.cfi_restore 1
 239 0124 03340100 		ld	s0,0(sp)
 240              		.cfi_restore 8
 241              		.cfi_def_cfa 2, 16
 242 0128 13010101 		addi	sp,sp,16
 243              		.cfi_def_cfa_offset 0
 244 012c 67800000 		jr	ra
 245              		.cfi_endproc
 246              	.LFE6:
 248              		.globl	_ZN6ThreadC1Ev
 249              		.set	_ZN6ThreadC1Ev,_ZN6ThreadC2Ev
 250              		.align	2
 251              		.globl	_ZN6Thread5startEv
 253              	_ZN6Thread5startEv:
 254              	.LFB9:
  19:src/Thread.cpp ****     // Sistemski poziv dodat za thread_start()
 255              		.loc 2 19 1 is_stmt 1
 256              		.cfi_startproc
 257              	.LVL17:
 258 0130 130101FF 		addi	sp,sp,-16
 259              		.cfi_def_cfa_offset 16
 260 0134 23341100 		sd	ra,8(sp)
 261 0138 23308100 		sd	s0,0(sp)
 262              		.cfi_offset 1, -8
 263              		.cfi_offset 8, -16
 264 013c 13040101 		addi	s0,sp,16
 265              		.cfi_def_cfa 8, 0
  21:src/Thread.cpp **** }
 266              		.loc 2 21 4
  21:src/Thread.cpp **** }
 267              		.loc 2 21 23 is_stmt 0
 268 0140 03358500 		ld	a0,8(a0)
 269              	.LVL18:
GAS LISTING /tmp/ccU6qz9d.s 			page 7


 270 0144 97000000 		call	_Z12thread_startP3TCB@plt
 270      E7800000 
 271              	.LVL19:
  22:src/Thread.cpp **** 
 272              		.loc 2 22 1
 273 014c 83308100 		ld	ra,8(sp)
 274              		.cfi_restore 1
 275 0150 03340100 		ld	s0,0(sp)
 276              		.cfi_restore 8
 277              		.cfi_def_cfa 2, 16
 278 0154 13010101 		addi	sp,sp,16
 279              		.cfi_def_cfa_offset 0
 280 0158 67800000 		jr	ra
 281              		.cfi_endproc
 282              	.LFE9:
 284              		.align	2
 285              		.globl	_ZN6Thread4joinEv
 287              	_ZN6Thread4joinEv:
 288              	.LFB10:
  25:src/Thread.cpp ****     thread_join(myHandle);
 289              		.loc 2 25 1 is_stmt 1
 290              		.cfi_startproc
 291              	.LVL20:
 292 015c 130101FF 		addi	sp,sp,-16
 293              		.cfi_def_cfa_offset 16
 294 0160 23341100 		sd	ra,8(sp)
 295 0164 23308100 		sd	s0,0(sp)
 296              		.cfi_offset 1, -8
 297              		.cfi_offset 8, -16
 298 0168 13040101 		addi	s0,sp,16
 299              		.cfi_def_cfa 8, 0
  26:src/Thread.cpp **** }
 300              		.loc 2 26 5
  26:src/Thread.cpp **** }
 301              		.loc 2 26 16 is_stmt 0
 302 016c 03358500 		ld	a0,8(a0)
 303              	.LVL21:
 304 0170 97000000 		call	_Z11thread_joinP3TCB@plt
 304      E7800000 
 305              	.LVL22:
  27:src/Thread.cpp **** 
 306              		.loc 2 27 1
 307 0178 83308100 		ld	ra,8(sp)
 308              		.cfi_restore 1
 309 017c 03340100 		ld	s0,0(sp)
 310              		.cfi_restore 8
 311              		.cfi_def_cfa 2, 16
 312 0180 13010101 		addi	sp,sp,16
 313              		.cfi_def_cfa_offset 0
 314 0184 67800000 		jr	ra
 315              		.cfi_endproc
 316              	.LFE10:
 318              		.align	2
 319              		.globl	_ZN6Thread8dispatchEv
 321              	_ZN6Thread8dispatchEv:
 322              	.LFB11:
  30:src/Thread.cpp ****     thread_dispatch();
GAS LISTING /tmp/ccU6qz9d.s 			page 8


 323              		.loc 2 30 1 is_stmt 1
 324              		.cfi_startproc
 325 0188 130101FF 		addi	sp,sp,-16
 326              		.cfi_def_cfa_offset 16
 327 018c 23341100 		sd	ra,8(sp)
 328 0190 23308100 		sd	s0,0(sp)
 329              		.cfi_offset 1, -8
 330              		.cfi_offset 8, -16
 331 0194 13040101 		addi	s0,sp,16
 332              		.cfi_def_cfa 8, 0
  31:src/Thread.cpp **** }
 333              		.loc 2 31 5
  31:src/Thread.cpp **** }
 334              		.loc 2 31 20 is_stmt 0
 335 0198 97000000 		call	_Z15thread_dispatchv@plt
 335      E7800000 
 336              	.LVL23:
  32:src/Thread.cpp **** 
 337              		.loc 2 32 1
 338 01a0 83308100 		ld	ra,8(sp)
 339              		.cfi_restore 1
 340 01a4 03340100 		ld	s0,0(sp)
 341              		.cfi_restore 8
 342              		.cfi_def_cfa 2, 16
 343 01a8 13010101 		addi	sp,sp,16
 344              		.cfi_def_cfa_offset 0
 345 01ac 67800000 		jr	ra
 346              		.cfi_endproc
 347              	.LFE11:
 349              		.align	2
 350              		.globl	_ZN6Thread5sleepEm
 352              	_ZN6Thread5sleepEm:
 353              	.LFB12:
  35:src/Thread.cpp ****     return time_sleep(vreme);
 354              		.loc 2 35 1 is_stmt 1
 355              		.cfi_startproc
 356              	.LVL24:
 357 01b0 130101FF 		addi	sp,sp,-16
 358              		.cfi_def_cfa_offset 16
 359 01b4 23341100 		sd	ra,8(sp)
 360 01b8 23308100 		sd	s0,0(sp)
 361              		.cfi_offset 1, -8
 362              		.cfi_offset 8, -16
 363 01bc 13040101 		addi	s0,sp,16
 364              		.cfi_def_cfa 8, 0
  36:src/Thread.cpp **** }
 365              		.loc 2 36 5
  36:src/Thread.cpp **** }
 366              		.loc 2 36 22 is_stmt 0
 367 01c0 97000000 		call	_Z10time_sleepm@plt
 367      E7800000 
 368              	.LVL25:
  37:src/Thread.cpp **** 
 369              		.loc 2 37 1
 370 01c8 83308100 		ld	ra,8(sp)
 371              		.cfi_restore 1
 372 01cc 03340100 		ld	s0,0(sp)
GAS LISTING /tmp/ccU6qz9d.s 			page 9


 373              		.cfi_restore 8
 374              		.cfi_def_cfa 2, 16
 375 01d0 13010101 		addi	sp,sp,16
 376              		.cfi_def_cfa_offset 0
 377 01d4 67800000 		jr	ra
 378              		.cfi_endproc
 379              	.LFE12:
 381              		.weak	_ZTV6Thread
 382              		.section	.data.rel.ro.local._ZTV6Thread,"awG",@progbits,_ZTV6Thread,comdat
 383              		.align	3
 386              	_ZTV6Thread:
 387 0000 00000000 		.dword	0
 387      00000000 
 388 0008 00000000 		.dword	0
 388      00000000 
 389 0010 00000000 		.dword	_ZN6ThreadD1Ev
 389      00000000 
 390 0018 00000000 		.dword	_ZN6ThreadD0Ev
 390      00000000 
 391 0020 00000000 		.dword	_ZN6Thread3runEv
 391      00000000 
 392              		.text
 393              	.Letext0:
 394              		.file 3 "src/../h/../lib/hw.h"
 395              		.file 4 "src/../h/syscall_c.h"
 2266              		.align	3
 2269              	DW.ref.__gxx_personality_v0:
 2270 0000 00000000 		.dword	__gxx_personality_v0
 2270      00000000 
 2271              		.ident	"GCC: (Ubuntu 9.4.0-1ubuntu1~20.04) 9.4.0"
 2272              		.section	.note.GNU-stack,"",@progbits
GAS LISTING /tmp/ccU6qz9d.s 			page 10


DEFINED SYMBOLS
                            *ABS*:0000000000000000 Thread.cpp
     /tmp/ccU6qz9d.s:10     .text._ZN6Thread3runEv:0000000000000000 _ZN6Thread3runEv
     /tmp/ccU6qz9d.s:14     .text._ZN6Thread3runEv:0000000000000000 .L0 
     /tmp/ccU6qz9d.s:16     .text._ZN6Thread3runEv:0000000000000000 .L0 
     /tmp/ccU6qz9d.s:17     .text._ZN6Thread3runEv:0000000000000004 .L0 
     /tmp/ccU6qz9d.s:19     .text._ZN6Thread3runEv:0000000000000008 .L0 
     /tmp/ccU6qz9d.s:21     .text._ZN6Thread3runEv:000000000000000c .L0 
     /tmp/ccU6qz9d.s:23     .text._ZN6Thread3runEv:000000000000000c .L0 
     /tmp/ccU6qz9d.s:24     .text._ZN6Thread3runEv:0000000000000010 .L0 
     /tmp/ccU6qz9d.s:25     .text._ZN6Thread3runEv:0000000000000010 .L0 
     /tmp/ccU6qz9d.s:27     .text._ZN6Thread3runEv:0000000000000014 .L0 
     /tmp/ccU6qz9d.s:29     .text._ZN6Thread3runEv:0000000000000018 .L0 
     /tmp/ccU6qz9d.s:36     .text:0000000000000000 _ZN6Thread7wrapperEPv
     /tmp/ccU6qz9d.s:40     .text:0000000000000000 .L0 
     /tmp/ccU6qz9d.s:42     .text:0000000000000000 .L0 
     /tmp/ccU6qz9d.s:43     .text:0000000000000004 .L0 
     /tmp/ccU6qz9d.s:46     .text:000000000000000c .L0 
     /tmp/ccU6qz9d.s:47     .text:000000000000000c .L0 
     /tmp/ccU6qz9d.s:49     .text:0000000000000010 .L0 
     /tmp/ccU6qz9d.s:51     .text:0000000000000010 .L0 
     /tmp/ccU6qz9d.s:52     .text:0000000000000010 .L0 
     /tmp/ccU6qz9d.s:55     .text:0000000000000018 .L0 
     /tmp/ccU6qz9d.s:58     .text:000000000000001c .L0 
     /tmp/ccU6qz9d.s:59     .text:0000000000000020 .L0 
     /tmp/ccU6qz9d.s:61     .text:0000000000000024 .L0 
     /tmp/ccU6qz9d.s:62     .text:0000000000000024 .L0 
     /tmp/ccU6qz9d.s:64     .text:0000000000000028 .L0 
     /tmp/ccU6qz9d.s:66     .text:000000000000002c .L0 
     /tmp/ccU6qz9d.s:72     .text:000000000000002c _ZN6ThreadD2Ev
     /tmp/ccU6qz9d.s:75     .text:000000000000002c .L0 
     /tmp/ccU6qz9d.s:2269   .data.rel.local.DW.ref.__gxx_personality_v0:0000000000000000 DW.ref.__gxx_personality_v0
     /tmp/ccU6qz9d.s:79     .text:000000000000002c .L0 
     /tmp/ccU6qz9d.s:80     .text:0000000000000030 .L0 
     /tmp/ccU6qz9d.s:84     .text:000000000000003c .L0 
     /tmp/ccU6qz9d.s:85     .text:000000000000003c .L0 
     /tmp/ccU6qz9d.s:86     .text:000000000000003c .L0 
     /tmp/ccU6qz9d.s:88     .text:0000000000000040 .L0 
     /tmp/ccU6qz9d.s:386    .data.rel.ro.local._ZTV6Thread:0000000000000000 _ZTV6Thread
     /tmp/ccU6qz9d.s:92     .text:0000000000000044 .L0 
     /tmp/ccU6qz9d.s:95     .text:0000000000000050 .L0 
     /tmp/ccU6qz9d.s:96     .text:0000000000000050 .L0 
     /tmp/ccU6qz9d.s:101    .text:000000000000005c .L0 
     /tmp/ccU6qz9d.s:102    .text:000000000000005c .L0 
     /tmp/ccU6qz9d.s:107    .text:0000000000000068 .L0 
     /tmp/ccU6qz9d.s:108    .text:000000000000006c .L0 
     /tmp/ccU6qz9d.s:110    .text:0000000000000070 .L0 
     /tmp/ccU6qz9d.s:111    .text:0000000000000070 .L0 
     /tmp/ccU6qz9d.s:113    .text:0000000000000074 .L0 
     /tmp/ccU6qz9d.s:116    .text:0000000000000078 .L0 
     /tmp/ccU6qz9d.s:118    .text:000000000000007c .L0 
     /tmp/ccU6qz9d.s:72     .text:000000000000002c _ZN6ThreadD1Ev
     /tmp/ccU6qz9d.s:134    .text:000000000000007c _ZN6ThreadD0Ev
     /tmp/ccU6qz9d.s:137    .text:000000000000007c .L0 
     /tmp/ccU6qz9d.s:139    .text:000000000000007c .L0 
     /tmp/ccU6qz9d.s:140    .text:0000000000000080 .L0 
     /tmp/ccU6qz9d.s:144    .text:000000000000008c .L0 
GAS LISTING /tmp/ccU6qz9d.s 			page 11


     /tmp/ccU6qz9d.s:145    .text:000000000000008c .L0 
     /tmp/ccU6qz9d.s:146    .text:000000000000008c .L0 
     /tmp/ccU6qz9d.s:148    .text:0000000000000090 .L0 
     /tmp/ccU6qz9d.s:151    .text:0000000000000094 .L0 
     /tmp/ccU6qz9d.s:157    .text:00000000000000ac .L0 
     /tmp/ccU6qz9d.s:159    .text:00000000000000b0 .L0 
     /tmp/ccU6qz9d.s:160    .text:00000000000000b0 .L0 
     /tmp/ccU6qz9d.s:162    .text:00000000000000b4 .L0 
     /tmp/ccU6qz9d.s:165    .text:00000000000000b8 .L0 
     /tmp/ccU6qz9d.s:167    .text:00000000000000bc .L0 
     /tmp/ccU6qz9d.s:173    .text:00000000000000bc _ZN6ThreadC2EPFvPvES0_
     /tmp/ccU6qz9d.s:176    .text:00000000000000bc .L0 
     /tmp/ccU6qz9d.s:178    .text:00000000000000bc .L0 
     /tmp/ccU6qz9d.s:179    .text:00000000000000c0 .L0 
     /tmp/ccU6qz9d.s:182    .text:00000000000000c8 .L0 
     /tmp/ccU6qz9d.s:183    .text:00000000000000c8 .L0 
     /tmp/ccU6qz9d.s:185    .text:00000000000000cc .L0 
     /tmp/ccU6qz9d.s:188    .text:00000000000000cc .L0 
     /tmp/ccU6qz9d.s:193    .text:00000000000000e0 .L0 
     /tmp/ccU6qz9d.s:194    .text:00000000000000e0 .L0 
     /tmp/ccU6qz9d.s:200    .text:00000000000000ec .L0 
     /tmp/ccU6qz9d.s:201    .text:00000000000000f0 .L0 
     /tmp/ccU6qz9d.s:203    .text:00000000000000f4 .L0 
     /tmp/ccU6qz9d.s:204    .text:00000000000000f4 .L0 
     /tmp/ccU6qz9d.s:206    .text:00000000000000f8 .L0 
     /tmp/ccU6qz9d.s:208    .text:00000000000000fc .L0 
     /tmp/ccU6qz9d.s:173    .text:00000000000000bc _ZN6ThreadC1EPFvPvES0_
     /tmp/ccU6qz9d.s:216    .text:00000000000000fc _ZN6ThreadC2Ev
     /tmp/ccU6qz9d.s:219    .text:00000000000000fc .L0 
     /tmp/ccU6qz9d.s:221    .text:00000000000000fc .L0 
     /tmp/ccU6qz9d.s:222    .text:0000000000000100 .L0 
     /tmp/ccU6qz9d.s:225    .text:0000000000000108 .L0 
     /tmp/ccU6qz9d.s:226    .text:0000000000000108 .L0 
     /tmp/ccU6qz9d.s:228    .text:000000000000010c .L0 
     /tmp/ccU6qz9d.s:232    .text:0000000000000110 .L0 
     /tmp/ccU6qz9d.s:237    .text:0000000000000120 .L0 
     /tmp/ccU6qz9d.s:238    .text:0000000000000124 .L0 
     /tmp/ccU6qz9d.s:240    .text:0000000000000128 .L0 
     /tmp/ccU6qz9d.s:241    .text:0000000000000128 .L0 
     /tmp/ccU6qz9d.s:243    .text:000000000000012c .L0 
     /tmp/ccU6qz9d.s:245    .text:0000000000000130 .L0 
     /tmp/ccU6qz9d.s:216    .text:00000000000000fc _ZN6ThreadC1Ev
     /tmp/ccU6qz9d.s:253    .text:0000000000000130 _ZN6Thread5startEv
     /tmp/ccU6qz9d.s:256    .text:0000000000000130 .L0 
     /tmp/ccU6qz9d.s:258    .text:0000000000000130 .L0 
     /tmp/ccU6qz9d.s:259    .text:0000000000000134 .L0 
     /tmp/ccU6qz9d.s:262    .text:000000000000013c .L0 
     /tmp/ccU6qz9d.s:263    .text:000000000000013c .L0 
     /tmp/ccU6qz9d.s:265    .text:0000000000000140 .L0 
     /tmp/ccU6qz9d.s:267    .text:0000000000000140 .L0 
     /tmp/ccU6qz9d.s:268    .text:0000000000000140 .L0 
     /tmp/ccU6qz9d.s:273    .text:000000000000014c .L0 
     /tmp/ccU6qz9d.s:274    .text:0000000000000150 .L0 
     /tmp/ccU6qz9d.s:276    .text:0000000000000154 .L0 
     /tmp/ccU6qz9d.s:277    .text:0000000000000154 .L0 
     /tmp/ccU6qz9d.s:279    .text:0000000000000158 .L0 
     /tmp/ccU6qz9d.s:281    .text:000000000000015c .L0 
GAS LISTING /tmp/ccU6qz9d.s 			page 12


     /tmp/ccU6qz9d.s:287    .text:000000000000015c _ZN6Thread4joinEv
     /tmp/ccU6qz9d.s:290    .text:000000000000015c .L0 
     /tmp/ccU6qz9d.s:292    .text:000000000000015c .L0 
     /tmp/ccU6qz9d.s:293    .text:0000000000000160 .L0 
     /tmp/ccU6qz9d.s:296    .text:0000000000000168 .L0 
     /tmp/ccU6qz9d.s:297    .text:0000000000000168 .L0 
     /tmp/ccU6qz9d.s:299    .text:000000000000016c .L0 
     /tmp/ccU6qz9d.s:301    .text:000000000000016c .L0 
     /tmp/ccU6qz9d.s:302    .text:000000000000016c .L0 
     /tmp/ccU6qz9d.s:307    .text:0000000000000178 .L0 
     /tmp/ccU6qz9d.s:308    .text:000000000000017c .L0 
     /tmp/ccU6qz9d.s:310    .text:0000000000000180 .L0 
     /tmp/ccU6qz9d.s:311    .text:0000000000000180 .L0 
     /tmp/ccU6qz9d.s:313    .text:0000000000000184 .L0 
     /tmp/ccU6qz9d.s:315    .text:0000000000000188 .L0 
     /tmp/ccU6qz9d.s:321    .text:0000000000000188 _ZN6Thread8dispatchEv
     /tmp/ccU6qz9d.s:324    .text:0000000000000188 .L0 
     /tmp/ccU6qz9d.s:325    .text:0000000000000188 .L0 
     /tmp/ccU6qz9d.s:326    .text:000000000000018c .L0 
     /tmp/ccU6qz9d.s:329    .text:0000000000000194 .L0 
     /tmp/ccU6qz9d.s:330    .text:0000000000000194 .L0 
     /tmp/ccU6qz9d.s:332    .text:0000000000000198 .L0 
     /tmp/ccU6qz9d.s:334    .text:0000000000000198 .L0 
     /tmp/ccU6qz9d.s:335    .text:0000000000000198 .L0 
     /tmp/ccU6qz9d.s:338    .text:00000000000001a0 .L0 
     /tmp/ccU6qz9d.s:339    .text:00000000000001a4 .L0 
     /tmp/ccU6qz9d.s:341    .text:00000000000001a8 .L0 
     /tmp/ccU6qz9d.s:342    .text:00000000000001a8 .L0 
     /tmp/ccU6qz9d.s:344    .text:00000000000001ac .L0 
     /tmp/ccU6qz9d.s:346    .text:00000000000001b0 .L0 
     /tmp/ccU6qz9d.s:352    .text:00000000000001b0 _ZN6Thread5sleepEm
     /tmp/ccU6qz9d.s:355    .text:00000000000001b0 .L0 
     /tmp/ccU6qz9d.s:357    .text:00000000000001b0 .L0 
     /tmp/ccU6qz9d.s:358    .text:00000000000001b4 .L0 
     /tmp/ccU6qz9d.s:361    .text:00000000000001bc .L0 
     /tmp/ccU6qz9d.s:362    .text:00000000000001bc .L0 
     /tmp/ccU6qz9d.s:364    .text:00000000000001c0 .L0 
     /tmp/ccU6qz9d.s:366    .text:00000000000001c0 .L0 
     /tmp/ccU6qz9d.s:367    .text:00000000000001c0 .L0 
     /tmp/ccU6qz9d.s:370    .text:00000000000001c8 .L0 
     /tmp/ccU6qz9d.s:371    .text:00000000000001cc .L0 
     /tmp/ccU6qz9d.s:373    .text:00000000000001d0 .L0 
     /tmp/ccU6qz9d.s:374    .text:00000000000001d0 .L0 
     /tmp/ccU6qz9d.s:376    .text:00000000000001d4 .L0 
     /tmp/ccU6qz9d.s:378    .text:00000000000001d8 .L0 
     /tmp/ccU6qz9d.s:32     .text._ZN6Thread3runEv:0000000000000018 .L0 
     /tmp/ccU6qz9d.s:396    .text:00000000000001d8 .L0 
     /tmp/ccU6qz9d.s:92     .text:0000000000000044 .L0 
     /tmp/ccU6qz9d.s:188    .text:00000000000000cc .L0 
     /tmp/ccU6qz9d.s:232    .text:0000000000000110 .L0 
     /tmp/ccU6qz9d.s:1186   .debug_abbrev:0000000000000000 .Ldebug_abbrev0
     /tmp/ccU6qz9d.s:2181   .debug_str:0000000000000235 .LASF66
     /tmp/ccU6qz9d.s:2153   .debug_str:000000000000016d .LASF67
     /tmp/ccU6qz9d.s:2219   .debug_str:00000000000003e7 .LASF68
     /tmp/ccU6qz9d.s:2091   .debug_ranges:0000000000000000 .Ldebug_ranges0
     /tmp/ccU6qz9d.s:2099   .debug_line:0000000000000000 .Ldebug_line0
     /tmp/ccU6qz9d.s:2189   .debug_str:0000000000000321 .LASF0
GAS LISTING /tmp/ccU6qz9d.s 			page 13


     /tmp/ccU6qz9d.s:2163   .debug_str:00000000000001bc .LASF1
     /tmp/ccU6qz9d.s:2175   .debug_str:000000000000020f .LASF2
     /tmp/ccU6qz9d.s:2119   .debug_str:000000000000007c .LASF4
     /tmp/ccU6qz9d.s:2159   .debug_str:00000000000001a1 .LASF3
     /tmp/ccU6qz9d.s:2107   .debug_str:0000000000000029 .LASF5
     /tmp/ccU6qz9d.s:2203   .debug_str:0000000000000378 .LASF6
     /tmp/ccU6qz9d.s:2105   .debug_str:0000000000000016 .LASF7
     /tmp/ccU6qz9d.s:2143   .debug_str:0000000000000130 .LASF8
     /tmp/ccU6qz9d.s:2205   .debug_str:000000000000037f .LASF9
     /tmp/ccU6qz9d.s:2117   .debug_str:000000000000006e .LASF10
     /tmp/ccU6qz9d.s:2261   .debug_str:000000000000050c .LASF11
     /tmp/ccU6qz9d.s:2147   .debug_str:0000000000000152 .LASF12
     /tmp/ccU6qz9d.s:2245   .debug_str:000000000000049c .LASF13
     /tmp/ccU6qz9d.s:2215   .debug_str:00000000000003d2 .LASF14
     /tmp/ccU6qz9d.s:2165   .debug_str:00000000000001cf .LASF15
     /tmp/ccU6qz9d.s:2129   .debug_str:00000000000000ba .LASF16
     /tmp/ccU6qz9d.s:2207   .debug_str:000000000000038f .LASF17
     /tmp/ccU6qz9d.s:2171   .debug_str:00000000000001ef .LASF18
     /tmp/ccU6qz9d.s:2243   .debug_str:0000000000000493 .LASF19
     /tmp/ccU6qz9d.s:2209   .debug_str:00000000000003a5 .LASF20
     /tmp/ccU6qz9d.s:2183   .debug_str:00000000000002f9 .LASF21
     /tmp/ccU6qz9d.s:2241   .debug_str:0000000000000487 .LASF22
     /tmp/ccU6qz9d.s:2221   .debug_str:000000000000040a .LASF23
     /tmp/ccU6qz9d.s:2223   .debug_str:000000000000041a .LASF24
     /tmp/ccU6qz9d.s:2249   .debug_str:00000000000004b3 .LASF25
     /tmp/ccU6qz9d.s:2185   .debug_str:0000000000000307 .LASF26
     /tmp/ccU6qz9d.s:2187   .debug_str:0000000000000313 .LASF27
     /tmp/ccU6qz9d.s:2103   .debug_str:000000000000000d .LASF28
     /tmp/ccU6qz9d.s:2259   .debug_str:0000000000000502 .LASF29
     /tmp/ccU6qz9d.s:2161   .debug_str:00000000000001b3 .LASF30
     /tmp/ccU6qz9d.s:2201   .debug_str:000000000000036d .LASF31
     /tmp/ccU6qz9d.s:2113   .debug_str:000000000000004d .LASF32
     /tmp/ccU6qz9d.s:2149   .debug_str:0000000000000161 .LASF33
     /tmp/ccU6qz9d.s:2137   .debug_str:000000000000010e .LASF34
     /tmp/ccU6qz9d.s:2197   .debug_str:0000000000000353 .LASF35
     /tmp/ccU6qz9d.s:2151   .debug_str:0000000000000166 .LASF36
     /tmp/ccU6qz9d.s:2131   .debug_str:00000000000000d0 .LASF69
     /tmp/ccU6qz9d.s:2101   .debug_str:0000000000000000 .LASF70
     /tmp/ccU6qz9d.s:2133   .debug_str:00000000000000e2 .LASF38
     /tmp/ccU6qz9d.s:2167   .debug_str:00000000000001db .LASF71
     /tmp/ccU6qz9d.s:2145   .debug_str:0000000000000143 .LASF72
     /tmp/ccU6qz9d.s:2191   .debug_str:000000000000032e .LASF73
     /tmp/ccU6qz9d.s:2125   .debug_str:0000000000000098 .LASF74
     /tmp/ccU6qz9d.s:2217   .debug_str:00000000000003e2 .LASF37
     /tmp/ccU6qz9d.s:2255   .debug_str:00000000000004d1 .LASF39
     /tmp/ccU6qz9d.s:2237   .debug_str:000000000000046f .LASF75
     /tmp/ccU6qz9d.s:2155   .debug_str:000000000000017c .LASF76
     /tmp/ccU6qz9d.s:2251   .debug_str:00000000000004c0 .LASF40
     /tmp/ccU6qz9d.s:2179   .debug_str:0000000000000222 .LASF41
     /tmp/ccU6qz9d.s:2231   .debug_str:000000000000044f .LASF77
     /tmp/ccU6qz9d.s:2115   .debug_str:0000000000000058 .LASF78
     /tmp/ccU6qz9d.s:2157   .debug_str:0000000000000192 .LASF42
     /tmp/ccU6qz9d.s:2139   .debug_str:0000000000000113 .LASF79
     /tmp/ccU6qz9d.s:2227   .debug_str:0000000000000436 .LASF43
     /tmp/ccU6qz9d.s:2177   .debug_str:000000000000021d .LASF44
     /tmp/ccU6qz9d.s:2123   .debug_str:0000000000000088 .LASF80
     /tmp/ccU6qz9d.s:2121   .debug_str:0000000000000083 .LASF45
GAS LISTING /tmp/ccU6qz9d.s 			page 14


     /tmp/ccU6qz9d.s:2233   .debug_str:0000000000000457 .LASF46
     /tmp/ccU6qz9d.s:2127   .debug_str:00000000000000ab .LASF47
     /tmp/ccU6qz9d.s:135    .text:000000000000007c .LFB16
     /tmp/ccU6qz9d.s:168    .text:00000000000000bc .LFE16
     /tmp/ccU6qz9d.s:1922   .debug_loc:0000000000000000 .LLST2
     /tmp/ccU6qz9d.s:152    .text:000000000000009c .LVL9
     /tmp/ccU6qz9d.s:155    .text:00000000000000a8 .LVL10
     /tmp/ccU6qz9d.s:2239   .debug_str:0000000000000478 .LASF48
     /tmp/ccU6qz9d.s:73     .text:000000000000002c .LFB14
     /tmp/ccU6qz9d.s:119    .text:000000000000007c .LFE14
     /tmp/ccU6qz9d.s:1940   .debug_loc:000000000000004c .LLST1
     /tmp/ccU6qz9d.s:99     .text:000000000000005c .LVL5
     /tmp/ccU6qz9d.s:104    .text:0000000000000068 .LVL6
     /tmp/ccU6qz9d.s:353    .text:00000000000001b0 .LFB12
     /tmp/ccU6qz9d.s:379    .text:00000000000001d8 .LFE12
     /tmp/ccU6qz9d.s:2111   .debug_str:0000000000000047 .LASF49
     /tmp/ccU6qz9d.s:1958   .debug_loc:0000000000000098 .LLST9
     /tmp/ccU6qz9d.s:368    .text:00000000000001c8 .LVL25
     /tmp/ccU6qz9d.s:322    .text:0000000000000188 .LFB11
     /tmp/ccU6qz9d.s:347    .text:00000000000001b0 .LFE11
     /tmp/ccU6qz9d.s:336    .text:00000000000001a0 .LVL23
     /tmp/ccU6qz9d.s:288    .text:000000000000015c .LFB10
     /tmp/ccU6qz9d.s:316    .text:0000000000000188 .LFE10
     /tmp/ccU6qz9d.s:1972   .debug_loc:00000000000000d1 .LLST8
     /tmp/ccU6qz9d.s:305    .text:0000000000000178 .LVL22
     /tmp/ccU6qz9d.s:254    .text:0000000000000130 .LFB9
     /tmp/ccU6qz9d.s:282    .text:000000000000015c .LFE9
     /tmp/ccU6qz9d.s:1986   .debug_loc:000000000000010a .LLST7
     /tmp/ccU6qz9d.s:271    .text:000000000000014c .LVL19
     /tmp/ccU6qz9d.s:37     .text:0000000000000000 .LFB8
     /tmp/ccU6qz9d.s:67     .text:000000000000002c .LFE8
     /tmp/ccU6qz9d.s:2000   .debug_loc:0000000000000143 .LLST0
     /tmp/ccU6qz9d.s:56     .text:000000000000001c .LVL2
     /tmp/ccU6qz9d.s:2193   .debug_str:0000000000000334 .LASF50
     /tmp/ccU6qz9d.s:217    .text:00000000000000fc .LFB6
     /tmp/ccU6qz9d.s:246    .text:0000000000000130 .LFE6
     /tmp/ccU6qz9d.s:2014   .debug_loc:000000000000017c .LLST6
     /tmp/ccU6qz9d.s:234    .text:0000000000000120 .LVL16
     /tmp/ccU6qz9d.s:2109   .debug_str:0000000000000030 .LASF51
     /tmp/ccU6qz9d.s:174    .text:00000000000000bc .LFB3
     /tmp/ccU6qz9d.s:209    .text:00000000000000fc .LFE3
     /tmp/ccU6qz9d.s:2028   .debug_loc:00000000000001b5 .LLST3
     /tmp/ccU6qz9d.s:2048   .debug_loc:0000000000000203 .LLST4
     /tmp/ccU6qz9d.s:2062   .debug_loc:000000000000023c .LLST5
     /tmp/ccU6qz9d.s:197    .text:00000000000000ec .LVL14
     /tmp/ccU6qz9d.s:11     .text._ZN6Thread3runEv:0000000000000000 .LFB0
     /tmp/ccU6qz9d.s:30     .text._ZN6Thread3runEv:0000000000000018 .LFE0
     /tmp/ccU6qz9d.s:2247   .debug_str:00000000000004ac .LASF52
     /tmp/ccU6qz9d.s:2195   .debug_str:0000000000000343 .LASF54
     /tmp/ccU6qz9d.s:2199   .debug_str:0000000000000358 .LASF53
     /tmp/ccU6qz9d.s:2169   .debug_str:00000000000001e3 .LASF55
     /tmp/ccU6qz9d.s:2211   .debug_str:00000000000003ae .LASF56
     /tmp/ccU6qz9d.s:2235   .debug_str:0000000000000461 .LASF57
     /tmp/ccU6qz9d.s:2229   .debug_str:000000000000043f .LASF58
     /tmp/ccU6qz9d.s:2253   .debug_str:00000000000004c6 .LASF59
     /tmp/ccU6qz9d.s:2135   .debug_str:00000000000000f9 .LASF60
     /tmp/ccU6qz9d.s:2225   .debug_str:0000000000000426 .LASF61
GAS LISTING /tmp/ccU6qz9d.s 			page 15


     /tmp/ccU6qz9d.s:2173   .debug_str:00000000000001f9 .LASF62
     /tmp/ccU6qz9d.s:2213   .debug_str:00000000000003c5 .LASF63
     /tmp/ccU6qz9d.s:2257   .debug_str:00000000000004e3 .LASF64
     /tmp/ccU6qz9d.s:2141   .debug_str:0000000000000124 .LASF65
     /tmp/ccU6qz9d.s:138    .text:000000000000007c .LVL8
     /tmp/ccU6qz9d.s:163    .text:00000000000000b4 .LVL11
     /tmp/ccU6qz9d.s:78     .text:000000000000002c .LVL3
     /tmp/ccU6qz9d.s:97     .text:0000000000000054 .LVL4
     /tmp/ccU6qz9d.s:114    .text:0000000000000074 .LVL7
     /tmp/ccU6qz9d.s:356    .text:00000000000001b0 .LVL24
     /tmp/ccU6qz9d.s:291    .text:000000000000015c .LVL20
     /tmp/ccU6qz9d.s:303    .text:0000000000000170 .LVL21
     /tmp/ccU6qz9d.s:257    .text:0000000000000130 .LVL17
     /tmp/ccU6qz9d.s:269    .text:0000000000000144 .LVL18
     /tmp/ccU6qz9d.s:41     .text:0000000000000000 .LVL1
     /tmp/ccU6qz9d.s:220    .text:00000000000000fc .LVL15
     /tmp/ccU6qz9d.s:177    .text:00000000000000bc .LVL12
     /tmp/ccU6qz9d.s:195    .text:00000000000000e4 .LVL13
     /tmp/ccU6qz9d.s:397    .debug_info:0000000000000000 .Ldebug_info0
     /tmp/ccU6qz9d.s:5      .text:0000000000000000 .Ltext0
     /tmp/ccU6qz9d.s:393    .text:00000000000001d8 .Letext0
     /tmp/ccU6qz9d.s:122    .gcc_except_table:0000000000000000 .LLSDA14

UNDEFINED SYMBOLS
_Z11thread_joinP3TCB
_Z13thread_deleteP3TCB
__gxx_personality_v0
_ZdlPv
_Z11thread_makePP3TCBPFvPvES2_
_Z12thread_startP3TCB
_Z15thread_dispatchv
_Z10time_sleepm
